///////////////////////////////////////////////////////////////////////////////
//                                                                            /
// IAR 8051 C/C++ Compiler V7.30B/W32                   26/May/2011  20:46:49 /
// Copyright 2004-2007 IAR Systems. All rights reserved.                      /
//                                                                            /
//    Core               =  plain                                             /
//    Code model         =  banked                                            /
//    Data model         =  large                                             /
//    Calling convention =  xdata reentrant                                   /
//    Constant location  =  data                                              /
//    Dptr setup         =  1,16                                              /
//    Source file        =  C:\Documents and Settings\Administrator\桌面\proj /
//                          ect\513\hit_wsn_2.0\Projects\zstack\Samples\Coord /
//                          inator\Source\GenericApp.c                        /
//    Command line       =  -f "C:\Documents and Settings\Administrator\桌面\ /
//                          project\513\hit_wsn_2.0\Projects\zstack\Samples\C /
//                          oordinator\CC2430DB\..\..\..\Tools\CC2430DB\f8wCo /
//                          ord.cfg" (-DCPU32MHZ -DFORCE_MAC_NEAR             /
//                          -DROOT=__near_func -DMAC_CFG_APP_PENDING_QUEUE=TR /
//                          UE -DZDO_COORDINATOR -DRTR_NWK -DBLINK_LEDS       /
//                          "-DCONST=const __code" -DGENERIC=__generic) -f    /
//                          "C:\Documents and Settings\Administrator\桌面\pro /
//                          ject\513\hit_wsn_2.0\Projects\zstack\Samples\Coor /
//                          dinator\CC2430DB\..\..\..\Tools\CC2430DB\f8wConfi /
//                          g.cfg" (-DSECURE=0 -DDEFAULT_CHANLIST=0x00000800  /
//                          -DZDAPP_CONFIG_PAN_ID=0xFFFF                      /
//                          -DNWK_START_DELAY=100 -DEXTENDED_JOINING_RANDOM_M /
//                          ASK=0x007F -DBEACON_REQUEST_DELAY=100             /
//                          -DBEACON_REQ_DELAY_MASK=0x00FF                    /
//                          -DROUTE_EXPIRY_TIME=30 -DAPSC_ACK_WAIT_DURATION_P /
//                          OLLED=3000 -DNWK_INDIRECT_MSG_TIMEOUT=7           /
//                          -DMAX_RREQ_ENTRIES=10 -DAPSC_MAX_FRAME_RETRIES=3  /
//                          -DNWK_MAX_DATA_RETRIES=2                          /
//                          -DMAX_POLL_FAILURE_RETRIES=2 -DMAX_BCAST=9        /
//                          -DAPS_MAX_GROUPS=16 -DMAX_RTG_ENTRIES=20          /
//                          -DNWK_MAX_BINDING_ENTRIES=10                      /
//                          -DMAX_BINDING_CLUSTER_IDS=5                       /
//                          "-DDEFAULT_KEY={0x01, 0x03, 0x05, 0x07, 0x09,     /
//                          0x0B, 0x0D, 0x0F, 0x00, 0x02, 0x04, 0x06, 0x08,   /
//                          0x0A, 0x0C, 0x0D}" -DRFD_RCVC_ALWAYS_ON=FALSE     /
//                          -DPOLL_RATE=1000 -DQUEUED_POLL_RATE=100           /
//                          -DRESPONSE_POLL_RATE=100) -DREJOIN_POLL_RATE=440  /
//                          "C:\Documents and Settings\Administrator\桌面\pro /
//                          ject\513\hit_wsn_2.0\Projects\zstack\Samples\Coor /
//                          dinator\Source\GenericApp.c" -D CC2430EB -D       /
//                          REFLECTOR -D ZTOOL_P1 -D MT_TASK -D xMT_ZDO_FUNC  /
//                          -D LCD_SUPPORTED=DEBUG -lC "C:\Documents and      /
//                          Settings\Administrator\桌面\project\513\hit_wsn_2 /
//                          .0\Projects\zstack\Samples\Coordinator\CC2430DB\C /
//                          oordinatorEB\List\" -lA "C:\Documents and         /
//                          Settings\Administrator\桌面\project\513\hit_wsn_2 /
//                          .0\Projects\zstack\Samples\Coordinator\CC2430DB\C /
//                          oordinatorEB\List\" --diag_suppress Pe001,Pa010   /
//                          --diag_remark pe550 -o "C:\Documents and          /
//                          Settings\Administrator\桌面\project\513\hit_wsn_2 /
//                          .0\Projects\zstack\Samples\Coordinator\CC2430DB\C /
//                          oordinatorEB\Obj\" -e -z9 --no_code_motion        /
//                          --debug --core=plain --dptr=16,1                  /
//                          --data_model=large --code_model=banked            /
//                          --calling_convention=xdata_reentrant              /
//                          --place_constants=data --nr_virtual_regs 8 -I     /
//                          "C:\Documents and Settings\Administrator\桌面\pro /
//                          ject\513\hit_wsn_2.0\Projects\zstack\Samples\Coor /
//                          dinator\CC2430DB\" -I "C:\Documents and           /
//                          Settings\Administrator\桌面\project\513\hit_wsn_2 /
//                          .0\Projects\zstack\Samples\Coordinator\CC2430DB\. /
//                          .\SOURCE\" -I "C:\Documents and                   /
//                          Settings\Administrator\桌面\project\513\hit_wsn_2 /
//                          .0\Projects\zstack\Samples\Coordinator\CC2430DB\. /
//                          .\..\..\ZMAIN\TI2430DB\" -I "C:\Documents and     /
//                          Settings\Administrator\桌面\project\513\hit_wsn_2 /
//                          .0\Projects\zstack\Samples\Coordinator\CC2430DB\. /
//                          .\..\..\..\..\COMPONENTS\MT\" -I "C:\Documents    /
//                          and Settings\Administrator\桌面\project\513\hit_w /
//                          sn_2.0\Projects\zstack\Samples\Coordinator\CC2430 /
//                          DB\..\..\..\..\..\COMPONENTS\HAL\INCLUDE\" -I     /
//                          "C:\Documents and Settings\Administrator\桌面\pro /
//                          ject\513\hit_wsn_2.0\Projects\zstack\Samples\Coor /
//                          dinator\CC2430DB\..\..\..\..\..\COMPONENTS\HAL\TA /
//                          RGET\CC2430EB\" -I "C:\Documents and              /
//                          Settings\Administrator\桌面\project\513\hit_wsn_2 /
//                          .0\Projects\zstack\Samples\Coordinator\CC2430DB\. /
//                          .\..\..\..\..\COMPONENTS\OSAL\MCU\CCSOC\" -I      /
//                          "C:\Documents and Settings\Administrator\桌面\pro /
//                          ject\513\hit_wsn_2.0\Projects\zstack\Samples\Coor /
//                          dinator\CC2430DB\..\..\..\..\..\COMPONENTS\OSAL\I /
//                          NCLUDE\" -I "C:\Documents and                     /
//                          Settings\Administrator\桌面\project\513\hit_wsn_2 /
//                          .0\Projects\zstack\Samples\Coordinator\CC2430DB\. /
//                          .\..\..\..\..\COMPONENTS\STACK\AF\" -I            /
//                          "C:\Documents and Settings\Administrator\桌面\pro /
//                          ject\513\hit_wsn_2.0\Projects\zstack\Samples\Coor /
//                          dinator\CC2430DB\..\..\..\..\..\COMPONENTS\STACK\ /
//                          NWK\" -I "C:\Documents and                        /
//                          Settings\Administrator\桌面\project\513\hit_wsn_2 /
//                          .0\Projects\zstack\Samples\Coordinator\CC2430DB\. /
//                          .\..\..\..\..\COMPONENTS\STACK\SEC\" -I           /
//                          "C:\Documents and Settings\Administrator\桌面\pro /
//                          ject\513\hit_wsn_2.0\Projects\zstack\Samples\Coor /
//                          dinator\CC2430DB\..\..\..\..\..\COMPONENTS\STACK\ /
//                          SYS\" -I "C:\Documents and                        /
//                          Settings\Administrator\桌面\project\513\hit_wsn_2 /
//                          .0\Projects\zstack\Samples\Coordinator\CC2430DB\. /
//                          .\..\..\..\..\COMPONENTS\STACK\ZDO\" -I           /
//                          "C:\Documents and Settings\Administrator\桌面\pro /
//                          ject\513\hit_wsn_2.0\Projects\zstack\Samples\Coor /
//                          dinator\CC2430DB\..\..\..\..\..\COMPONENTS\ZMAC\F /
//                          8W\" -I "C:\Documents and                         /
//                          Settings\Administrator\桌面\project\513\hit_wsn_2 /
//                          .0\Projects\zstack\Samples\Coordinator\CC2430DB\. /
//                          .\..\..\..\..\COMPONENTS\ZMAC\" -I "C:\Documents  /
//                          and Settings\Administrator\桌面\project\513\hit_w /
//                          sn_2.0\Projects\zstack\Samples\Coordinator\CC2430 /
//                          DB\..\..\..\..\..\COMPONENTS\SERVICES\SADDR\" -I  /
//                          "C:\Documents and Settings\Administrator\桌面\pro /
//                          ject\513\hit_wsn_2.0\Projects\zstack\Samples\Coor /
//                          dinator\CC2430DB\..\..\..\..\..\COMPONENTS\SERVIC /
//                          ES\SDATA\" -I "C:\Documents and                   /
//                          Settings\Administrator\桌面\project\513\hit_wsn_2 /
//                          .0\Projects\zstack\Samples\Coordinator\CC2430DB\. /
//                          .\..\..\..\..\COMPONENTS\MAC\INCLUDE\" -I         /
//                          "C:\Documents and Settings\Administrator\桌面\pro /
//                          ject\513\hit_wsn_2.0\Projects\zstack\Samples\Coor /
//                          dinator\CC2430DB\..\..\..\..\..\COMPONENTS\MAC\HI /
//                          GH_LEVEL\" -I "C:\Documents and                   /
//                          Settings\Administrator\桌面\project\513\hit_wsn_2 /
//                          .0\Projects\zstack\Samples\Coordinator\CC2430DB\. /
//                          .\..\..\..\..\COMPONENTS\MAC\LOW_LEVEL\SRF03\"    /
//                          -I "C:\Documents and Settings\Administrator\桌面\ /
//                          project\513\hit_wsn_2.0\Projects\zstack\Samples\C /
//                          oordinator\CC2430DB\..\..\..\..\..\COMPONENTS\MAC /
//                          \LOW_LEVEL\SRF03\SINGLE_CHIP\" -I "C:\Program     /
//                          Files\IAR Systems\Embedded Workbench 4.0          /
//                          Evaluation version\8051\INC\" -I "C:\Program      /
//                          Files\IAR Systems\Embedded Workbench 4.0          /
//                          Evaluation version\8051\INC\CLIB\"                /
//    List file          =  C:\Documents and Settings\Administrator\桌面\proj /
//                          ect\513\hit_wsn_2.0\Projects\zstack\Samples\Coord /
//                          inator\CC2430DB\CoordinatorEB\List\GenericApp.s51 /
//                                                                            /
//                                                                            /
///////////////////////////////////////////////////////////////////////////////

        NAME GenericApp

        RTMODEL "__calling_convention", "xdata_reentrant"
        RTMODEL "__code_model", "banked"
        RTMODEL "__core", "plain"
        RTMODEL "__data_model", "large"
        RTMODEL "__dptr_size", "16"
        RTMODEL "__extended_stack", "disabled"
        RTMODEL "__location_for_constants", "data"
        RTMODEL "__number_of_dptrs", "1"
        RTMODEL "__rt_version", "1"

        RSEG DOVERLAY:DATA:NOROOT(0)
        RSEG IOVERLAY:IDATA:NOROOT(0)
        RSEG ISTACK:IDATA:NOROOT(0)
        RSEG PSTACK:XDATA:NOROOT(0)
        RSEG XSTACK:XDATA:NOROOT(0)

        EXTERN ??GenericApp_HandleKeys?relay
        EXTERN ??GenericApp_MessageMSGCB?relay
        EXTERN ??GenericApp_ProcessZDOMsgs?relay
        EXTERN ??UART0ISRopen?relay
        EXTERN ??UART_SETUP?relay
        EXTERN ??initUART?relay
        EXTERN ??uart0_putc?relay
        EXTERN ??uart0_puts?relay
        EXTERN ?ALLOC_XSTACK8
        EXTERN ?BANKED_ENTER_XDATA
        EXTERN ?BANKED_LEAVE_XDATA
        EXTERN ?BDISPATCH
        EXTERN ?BRET
        EXTERN ?DEALLOC_XSTACK8
        EXTERN ?L_EQ_X
        EXTERN ?MOVE_LONG8_XDATA_XDATA
        EXTERN ?PUSH_XSTACK_I_ONE
        EXTERN ?PUSH_XSTACK_I_TWO
        EXTERN ?UC_SWITCH_SPARSE
        EXTERN ?US_SWITCH_DENSE
        EXTERN ?US_SWITCH_SPARSE
        EXTERN ?V0
        EXTERN ?XSP
        EXTERN ?XSTACK_DISP0_8
        EXTERN __INIT_XDATA_I
        EXTERN __INIT_XDATA_Z

        PUBLIC ??GenericApp_HandleKeys?relay
        FUNCTION ??GenericApp_HandleKeys?relay,0203H
        PUBLIC ??GenericApp_Init?relay
        FUNCTION ??GenericApp_Init?relay,0203H
        PUBLIC ??GenericApp_MessageMSGCB?relay
        FUNCTION ??GenericApp_MessageMSGCB?relay,0203H
        PUBLIC ??GenericApp_ProcessEvent?relay
        FUNCTION ??GenericApp_ProcessEvent?relay,0203H
        PUBLIC ??GenericApp_ProcessZDOMsgs?relay
        FUNCTION ??GenericApp_ProcessZDOMsgs?relay,0203H
        PUBLIC ??GenericApp_SendTheMessage?relay
        FUNCTION ??GenericApp_SendTheMessage?relay,0203H
        PUBLIC ??UART0ISRopen?relay
        FUNCTION ??UART0ISRopen?relay,0203H
        PUBLIC ??UART_SETUP?relay
        FUNCTION ??UART_SETUP?relay,0203H
        PUBWEAK `??URX0_IRQ??INTVEC 19`
        PUBLIC ??data_trans_Init?relay
        FUNCTION ??data_trans_Init?relay,0203H
        PUBLIC ??data_trans_process?relay
        FUNCTION ??data_trans_process?relay,0203H
        PUBLIC ??initUART?relay
        FUNCTION ??initUART?relay,0203H
        PUBLIC ??uart0_getString?relay
        FUNCTION ??uart0_getString?relay,0203H
        PUBLIC ??uart0_putc?relay
        FUNCTION ??uart0_putc?relay,0203H
        PUBLIC ??uart0_puts?relay
        FUNCTION ??uart0_puts?relay,0203H
        PUBWEAK CLKCON
        PUBLIC GenericApp_ClusterList
        PUBLIC GenericApp_DstAddr
        PUBLIC GenericApp_HandleKeys
        FUNCTION GenericApp_HandleKeys,021203H
        ARGFRAME XSTACK, 12, STACK
        ARGFRAME IOVERLAY, 0, STATIC
        ARGFRAME DOVERLAY, 0, STATIC
        LOCFRAME ISTACK, 1, STACK
        LOCFRAME XSTACK, 28, STACK
        PUBLIC GenericApp_Init
        FUNCTION GenericApp_Init,021203H
        ARGFRAME XSTACK, 0, STACK
        LOCFRAME ISTACK, 2, STACK
        PUBLIC GenericApp_MessageMSGCB
        FUNCTION GenericApp_MessageMSGCB,0a1203H
        ARGFRAME XSTACK, 12, STACK
        ARGFRAME IOVERLAY, 0, STATIC
        ARGFRAME DOVERLAY, 0, STATIC
        LOCFRAME XSTACK, 10, STACK
        PUBLIC GenericApp_NwkState
        PUBLIC GenericApp_ProcessEvent
        FUNCTION GenericApp_ProcessEvent,0a1203H
        ARGFRAME XSTACK, 0, STACK
        LOCFRAME XSTACK, 12, STACK
        PUBLIC GenericApp_ProcessZDOMsgs
        FUNCTION GenericApp_ProcessZDOMsgs,0a1203H
        ARGFRAME XSTACK, 12, STACK
        ARGFRAME IOVERLAY, 0, STATIC
        ARGFRAME DOVERLAY, 0, STATIC
        LOCFRAME XSTACK, 10, STACK
        PUBLIC GenericApp_SendTheMessage
        FUNCTION GenericApp_SendTheMessage,021203H
        ARGFRAME XSTACK, 0, STACK
        LOCFRAME ISTACK, 2, STACK
        LOCFRAME XSTACK, 31, STACK
        PUBLIC GenericApp_SimpleDesc
        PUBLIC GenericApp_TaskID
        PUBLIC GenericApp_TransID
        PUBLIC GenericApp_epDesc
        PUBWEAK P0SEL
        PUBWEAK P1SEL
        PUBWEAK PERCFG
        PUBWEAK U0BAUD
        PUBWEAK U0CSR
        PUBWEAK U0DBUF
        PUBWEAK U0GCR
        PUBWEAK U0UCR
        PUBLIC UART0ISRopen
        FUNCTION UART0ISRopen,0203H
        ARGFRAME XSTACK, 0, STACK
        ARGFRAME IOVERLAY, 0, STATIC
        ARGFRAME DOVERLAY, 0, STATIC
        PUBLIC UART_SETUP
        FUNCTION UART_SETUP,0203H
        ARGFRAME XSTACK, 0, STACK
        ARGFRAME IOVERLAY, 0, STATIC
        ARGFRAME DOVERLAY, 0, STATIC
        LOCFRAME XSTACK, 12, STACK
        PUBLIC URX0_IRQ
        FUNCTION URX0_IRQ,0233H
        ARGFRAME XSTACK, 0, STACK
        LOCFRAME ISTACK, 2, STACK
        PUBWEAK _A_IEN0
        PUBWEAK _A_IRCON2
        PUBWEAK _A_TCON
        PUBWEAK __Constant_12c00
        PUBWEAK __Constant_1c200
        PUBWEAK __Constant_25800
        PUBWEAK __Constant_38400
        PUBWEAK __Constant_4b000
        PUBWEAK __Constant_9600
        PUBWEAK __Constant_e100
        PUBLIC data_trans_Init
        FUNCTION data_trans_Init,021203H
        ARGFRAME XSTACK, 0, STACK
        LOCFRAME ISTACK, 2, STACK
        PUBLIC data_trans_TaskID
        PUBLIC data_trans_process
        FUNCTION data_trans_process,0203H
        ARGFRAME XSTACK, 0, STACK
        PUBLIC initUART
        FUNCTION initUART,021203H
        ARGFRAME XSTACK, 0, STACK
        ARGFRAME IOVERLAY, 0, STATIC
        ARGFRAME DOVERLAY, 0, STATIC
        LOCFRAME ISTACK, 2, STACK
        PUBLIC uart0_getString
        FUNCTION uart0_getString,0203H
        ARGFRAME XSTACK, 0, STACK
        LOCFRAME ISTACK, 1, STACK
        LOCFRAME XSTACK, 13, STACK
        PUBLIC uart0_putc
        FUNCTION uart0_putc,0203H
        ARGFRAME XSTACK, 13, STACK
        ARGFRAME IOVERLAY, 0, STATIC
        ARGFRAME DOVERLAY, 0, STATIC
        LOCFRAME ISTACK, 1, STACK
        PUBLIC uart0_puts
        FUNCTION uart0_puts,021203H
        ARGFRAME XSTACK, 19, STACK
        ARGFRAME IOVERLAY, 0, STATIC
        ARGFRAME DOVERLAY, 0, STATIC
        LOCFRAME XSTACK, 13, STACK
        
        CFI Names cfiNames0
        CFI StackFrame CFA_SP SP DATA
        CFI StackFrame CFA_PSP16 PSP16 XDATA
        CFI StackFrame CFA_XSP16 XSP16 XDATA
        CFI StaticOverlayFrame CFA_IOVERLAY IOVERLAY
        CFI StaticOverlayFrame CFA_DOVERLAY DOVERLAY
        CFI Resource `PSW.CY`:1, `B.BR0`:1, `B.BR1`:1, `B.BR2`:1, `B.BR3`:1
        CFI Resource `B.BR4`:1, `B.BR5`:1, `B.BR6`:1, `B.BR7`:1, `VB.BR8`:1
        CFI Resource `VB.BR9`:1, `VB.BR10`:1, `VB.BR11`:1, `VB.BR12`:1
        CFI Resource `VB.BR13`:1, `VB.BR14`:1, `VB.BR15`:1, VB:8, B:8, A:8
        CFI Resource PSW:8, DPL0:8, DPH0:8, R0:8, R1:8, R2:8, R3:8, R4:8, R5:8
        CFI Resource R6:8, R7:8, V0:8, V1:8, V2:8, V3:8, V4:8, V5:8, V6:8, V7:8
        CFI Resource SP:8, PSPH:8, PSPL:8, PSP16:16, XSPH:8, XSPL:8, XSP16:16
        CFI VirtualResource ?RET:24
        CFI Resource ?BRET_EXT:8
        CFI VirtualResource ?RET_HIGH:8, ?RET_LOW:8
        CFI ResourceParts PSP16 PSPH, PSPL
        CFI ResourceParts XSP16 XSPH, XSPL
        CFI ResourceParts ?RET ?BRET_EXT, ?RET_HIGH, ?RET_LOW
        CFI EndNames cfiNames0
        
        CFI Common cfiCommon0 Using cfiNames0
        CFI CodeAlign 1
        CFI DataAlign -1
        CFI ReturnAddress ?RET CODE
        CFI CFA_DOVERLAY Used
        CFI CFA_IOVERLAY Used
        CFI CFA_SP SP+-3
        CFI CFA_PSP16 PSP16+0
        CFI CFA_XSP16 XSP16+0
        CFI `PSW.CY` SameValue
        CFI `B.BR0` SameValue
        CFI `B.BR1` SameValue
        CFI `B.BR2` SameValue
        CFI `B.BR3` SameValue
        CFI `B.BR4` SameValue
        CFI `B.BR5` SameValue
        CFI `B.BR6` SameValue
        CFI `B.BR7` SameValue
        CFI `VB.BR8` SameValue
        CFI `VB.BR9` SameValue
        CFI `VB.BR10` SameValue
        CFI `VB.BR11` SameValue
        CFI `VB.BR12` SameValue
        CFI `VB.BR13` SameValue
        CFI `VB.BR14` SameValue
        CFI `VB.BR15` SameValue
        CFI VB SameValue
        CFI B Undefined
        CFI A Undefined
        CFI PSW SameValue
        CFI DPL0 SameValue
        CFI DPH0 SameValue
        CFI R0 Undefined
        CFI R1 Undefined
        CFI R2 Undefined
        CFI R3 Undefined
        CFI R4 Undefined
        CFI R5 Undefined
        CFI R6 SameValue
        CFI R7 SameValue
        CFI V0 SameValue
        CFI V1 SameValue
        CFI V2 SameValue
        CFI V3 SameValue
        CFI V4 SameValue
        CFI V5 SameValue
        CFI V6 SameValue
        CFI V7 SameValue
        CFI PSPH Undefined
        CFI PSPL Undefined
        CFI XSPH Undefined
        CFI XSPL Undefined
        CFI ?RET Concat
        CFI ?BRET_EXT Frame(CFA_SP, 3)
        CFI ?RET_HIGH Frame(CFA_SP, 2)
        CFI ?RET_LOW Frame(CFA_SP, 1)
        CFI EndCommon cfiCommon0
        
        
        CFI Common cfiCommon1 Using cfiNames0
        CFI CodeAlign 1
        CFI DataAlign -1
        CFI ReturnAddress ?RET CODE
        CFI CFA_DOVERLAY Used
        CFI CFA_IOVERLAY Used
        CFI CFA_SP SP+-2
        CFI CFA_PSP16 PSP16+0
        CFI CFA_XSP16 XSP16+0
        CFI `PSW.CY` SameValue
        CFI `B.BR0` SameValue
        CFI `B.BR1` SameValue
        CFI `B.BR2` SameValue
        CFI `B.BR3` SameValue
        CFI `B.BR4` SameValue
        CFI `B.BR5` SameValue
        CFI `B.BR6` SameValue
        CFI `B.BR7` SameValue
        CFI `VB.BR8` SameValue
        CFI `VB.BR9` SameValue
        CFI `VB.BR10` SameValue
        CFI `VB.BR11` SameValue
        CFI `VB.BR12` SameValue
        CFI `VB.BR13` SameValue
        CFI `VB.BR14` SameValue
        CFI `VB.BR15` SameValue
        CFI VB SameValue
        CFI B SameValue
        CFI A SameValue
        CFI PSW SameValue
        CFI DPL0 SameValue
        CFI DPH0 SameValue
        CFI R0 SameValue
        CFI R1 SameValue
        CFI R2 SameValue
        CFI R3 SameValue
        CFI R4 SameValue
        CFI R5 SameValue
        CFI R6 SameValue
        CFI R7 SameValue
        CFI V0 SameValue
        CFI V1 SameValue
        CFI V2 SameValue
        CFI V3 SameValue
        CFI V4 SameValue
        CFI V5 SameValue
        CFI V6 SameValue
        CFI V7 SameValue
        CFI PSPH Undefined
        CFI PSPL Undefined
        CFI XSPH Undefined
        CFI XSPL Undefined
        CFI ?RET Concat
        CFI ?BRET_EXT SameValue
        CFI ?RET_HIGH Frame(CFA_SP, 2)
        CFI ?RET_LOW Frame(CFA_SP, 1)
        CFI EndCommon cfiCommon1
        
afRegister          SYMBOL "afRegister"
RegisterForKeys     SYMBOL "RegisterForKeys"
HalLcdWriteString   SYMBOL "HalLcdWriteString"
ZDO_RegisterForZDOMsg SYMBOL "ZDO_RegisterForZDOMsg"
osal_msg_receive    SYMBOL "osal_msg_receive"
osal_msg_deallocate SYMBOL "osal_msg_deallocate"
HalLedSet           SYMBOL "HalLedSet"
ZDO_ParseEPListRsp  SYMBOL "ZDO_ParseEPListRsp"
osal_mem_free       SYMBOL "osal_mem_free"
NLME_GetShortAddr   SYMBOL "NLME_GetShortAddr"
ZDP_EndDeviceBindReq SYMBOL "ZDP_EndDeviceBindReq"
ZDP_MatchDescReq    SYMBOL "ZDP_MatchDescReq"
HalLcdWriteScreen   SYMBOL "HalLcdWriteScreen"
osal_strlen         SYMBOL "osal_strlen"
AF_DataRequest      SYMBOL "AF_DataRequest"
SPIMgr_RegisterTaskID SYMBOL "SPIMgr_RegisterTaskID"
??AF_DataRequest?relay SYMBOL "?relay", AF_DataRequest
??HalLcdWriteScreen?relay SYMBOL "?relay", HalLcdWriteScreen
??HalLcdWriteString?relay SYMBOL "?relay", HalLcdWriteString
??HalLedSet?relay   SYMBOL "?relay", HalLedSet
??NLME_GetShortAddr?relay SYMBOL "?relay", NLME_GetShortAddr
??RegisterForKeys?relay SYMBOL "?relay", RegisterForKeys
??SPIMgr_RegisterTaskID?relay SYMBOL "?relay", SPIMgr_RegisterTaskID
??ZDO_ParseEPListRsp?relay SYMBOL "?relay", ZDO_ParseEPListRsp
??ZDO_RegisterForZDOMsg?relay SYMBOL "?relay", ZDO_RegisterForZDOMsg
??ZDP_EndDeviceBindReq?relay SYMBOL "?relay", ZDP_EndDeviceBindReq
??ZDP_MatchDescReq?relay SYMBOL "?relay", ZDP_MatchDescReq
??afRegister?relay  SYMBOL "?relay", afRegister
??osal_mem_free?relay SYMBOL "?relay", osal_mem_free
??osal_msg_deallocate?relay SYMBOL "?relay", osal_msg_deallocate
??osal_msg_receive?relay SYMBOL "?relay", osal_msg_receive
??osal_strlen?relay SYMBOL "?relay", osal_strlen
GenericApp_HandleKeys SYMBOL "GenericApp_HandleKeys"
??GenericApp_HandleKeys?relay SYMBOL "?relay", GenericApp_HandleKeys
GenericApp_Init     SYMBOL "GenericApp_Init"
??GenericApp_Init?relay SYMBOL "?relay", GenericApp_Init
GenericApp_MessageMSGCB SYMBOL "GenericApp_MessageMSGCB"
??GenericApp_MessageMSGCB?relay SYMBOL "?relay", GenericApp_MessageMSGCB
GenericApp_ProcessEvent SYMBOL "GenericApp_ProcessEvent"
??GenericApp_ProcessEvent?relay SYMBOL "?relay", GenericApp_ProcessEvent
GenericApp_ProcessZDOMsgs SYMBOL "GenericApp_ProcessZDOMsgs"
??GenericApp_ProcessZDOMsgs?relay SYMBOL "?relay", GenericApp_ProcessZDOMsgs
GenericApp_SendTheMessage SYMBOL "GenericApp_SendTheMessage"
??GenericApp_SendTheMessage?relay SYMBOL "?relay", GenericApp_SendTheMessage
UART0ISRopen        SYMBOL "UART0ISRopen"
??UART0ISRopen?relay SYMBOL "?relay", UART0ISRopen
UART_SETUP          SYMBOL "UART_SETUP"
??UART_SETUP?relay  SYMBOL "?relay", UART_SETUP
URX0_IRQ            SYMBOL "URX0_IRQ"
`??URX0_IRQ??INTVEC 19` SYMBOL "??INTVEC 19", URX0_IRQ
data_trans_Init     SYMBOL "data_trans_Init"
??data_trans_Init?relay SYMBOL "?relay", data_trans_Init
data_trans_process  SYMBOL "data_trans_process"
??data_trans_process?relay SYMBOL "?relay", data_trans_process
initUART            SYMBOL "initUART"
??initUART?relay    SYMBOL "?relay", initUART
uart0_getString     SYMBOL "uart0_getString"
??uart0_getString?relay SYMBOL "?relay", uart0_getString
uart0_putc          SYMBOL "uart0_putc"
??uart0_putc?relay  SYMBOL "?relay", uart0_putc
uart0_puts          SYMBOL "uart0_puts"
??uart0_puts?relay  SYMBOL "?relay", uart0_puts

        EXTERN afRegister
        FUNCTION afRegister,0202H
        ARGFRAME ISTACK, 2, STACK
        ARGFRAME PSTACK, 0, STACK
        ARGFRAME XSTACK, 0, STACK
        ARGFRAME IOVERLAY, 0, STATIC
        ARGFRAME DOVERLAY, 0, STATIC
        EXTERN RegisterForKeys
        FUNCTION RegisterForKeys,0202H
        ARGFRAME ISTACK, 2, STACK
        ARGFRAME PSTACK, 0, STACK
        ARGFRAME XSTACK, 0, STACK
        ARGFRAME IOVERLAY, 0, STATIC
        ARGFRAME DOVERLAY, 0, STATIC
        EXTERN HalLcdWriteString
        FUNCTION HalLcdWriteString,0202H
        ARGFRAME ISTACK, 2, STACK
        ARGFRAME PSTACK, 0, STACK
        ARGFRAME XSTACK, 0, STACK
        ARGFRAME IOVERLAY, 0, STATIC
        ARGFRAME DOVERLAY, 0, STATIC
        EXTERN ZDO_RegisterForZDOMsg
        FUNCTION ZDO_RegisterForZDOMsg,0202H
        ARGFRAME ISTACK, 2, STACK
        ARGFRAME PSTACK, 0, STACK
        ARGFRAME XSTACK, 0, STACK
        ARGFRAME IOVERLAY, 0, STATIC
        ARGFRAME DOVERLAY, 0, STATIC
        EXTERN osal_msg_receive
        FUNCTION osal_msg_receive,0202H
        ARGFRAME ISTACK, 0, STACK
        ARGFRAME PSTACK, 0, STACK
        ARGFRAME XSTACK, 12, STACK
        ARGFRAME IOVERLAY, 0, STATIC
        ARGFRAME DOVERLAY, 0, STATIC
        EXTERN osal_msg_deallocate
        FUNCTION osal_msg_deallocate,0202H
        ARGFRAME ISTACK, 0, STACK
        ARGFRAME PSTACK, 0, STACK
        ARGFRAME XSTACK, 12, STACK
        ARGFRAME IOVERLAY, 0, STATIC
        ARGFRAME DOVERLAY, 0, STATIC
        EXTERN HalLedSet
        FUNCTION HalLedSet,0202H
        ARGFRAME ISTACK, 0, STACK
        ARGFRAME PSTACK, 0, STACK
        ARGFRAME XSTACK, 19, STACK
        ARGFRAME IOVERLAY, 0, STATIC
        ARGFRAME DOVERLAY, 0, STATIC
        EXTERN ZDO_ParseEPListRsp
        FUNCTION ZDO_ParseEPListRsp,0202H
        ARGFRAME ISTACK, 0, STACK
        ARGFRAME PSTACK, 0, STACK
        ARGFRAME XSTACK, 10, STACK
        ARGFRAME IOVERLAY, 0, STATIC
        ARGFRAME DOVERLAY, 0, STATIC
        EXTERN osal_mem_free
        FUNCTION osal_mem_free,0202H
        ARGFRAME ISTACK, 0, STACK
        ARGFRAME PSTACK, 0, STACK
        ARGFRAME XSTACK, 10, STACK
        ARGFRAME IOVERLAY, 0, STATIC
        ARGFRAME DOVERLAY, 0, STATIC
        EXTERN NLME_GetShortAddr
        FUNCTION NLME_GetShortAddr,0202H
        ARGFRAME ISTACK, 0, STACK
        ARGFRAME PSTACK, 0, STACK
        ARGFRAME XSTACK, 19, STACK
        ARGFRAME IOVERLAY, 0, STATIC
        ARGFRAME DOVERLAY, 0, STATIC
        EXTERN ZDP_EndDeviceBindReq
        FUNCTION ZDP_EndDeviceBindReq,0202H
        ARGFRAME ISTACK, 0, STACK
        ARGFRAME PSTACK, 0, STACK
        ARGFRAME XSTACK, 28, STACK
        ARGFRAME IOVERLAY, 0, STATIC
        ARGFRAME DOVERLAY, 0, STATIC
        EXTERN ZDP_MatchDescReq
        FUNCTION ZDP_MatchDescReq,0202H
        ARGFRAME ISTACK, 0, STACK
        ARGFRAME PSTACK, 0, STACK
        ARGFRAME XSTACK, 27, STACK
        ARGFRAME IOVERLAY, 0, STATIC
        ARGFRAME DOVERLAY, 0, STATIC
        EXTERN HalLcdWriteScreen
        FUNCTION HalLcdWriteScreen,0202H
        ARGFRAME ISTACK, 0, STACK
        ARGFRAME PSTACK, 0, STACK
        ARGFRAME XSTACK, 10, STACK
        ARGFRAME IOVERLAY, 0, STATIC
        ARGFRAME DOVERLAY, 0, STATIC
        EXTERN osal_strlen
        FUNCTION osal_strlen,0202H
        ARGFRAME ISTACK, 0, STACK
        ARGFRAME PSTACK, 0, STACK
        ARGFRAME XSTACK, 27, STACK
        ARGFRAME IOVERLAY, 0, STATIC
        ARGFRAME DOVERLAY, 0, STATIC
        EXTERN AF_DataRequest
        FUNCTION AF_DataRequest,0202H
        ARGFRAME ISTACK, 0, STACK
        ARGFRAME PSTACK, 0, STACK
        ARGFRAME XSTACK, 31, STACK
        ARGFRAME IOVERLAY, 0, STATIC
        ARGFRAME DOVERLAY, 0, STATIC
        EXTERN SPIMgr_RegisterTaskID
        FUNCTION SPIMgr_RegisterTaskID,0202H
        ARGFRAME ISTACK, 2, STACK
        ARGFRAME PSTACK, 0, STACK
        ARGFRAME XSTACK, 0, STACK
        ARGFRAME IOVERLAY, 0, STATIC
        ARGFRAME DOVERLAY, 0, STATIC
        EXTERN ??AF_DataRequest?relay
        FUNCTION ??AF_DataRequest?relay,00H
        EXTERN ??HalLcdWriteScreen?relay
        FUNCTION ??HalLcdWriteScreen?relay,00H
        EXTERN ??HalLcdWriteString?relay
        FUNCTION ??HalLcdWriteString?relay,00H
        EXTERN ??HalLedSet?relay
        FUNCTION ??HalLedSet?relay,00H
        EXTERN ??NLME_GetShortAddr?relay
        FUNCTION ??NLME_GetShortAddr?relay,00H
        EXTERN ??RegisterForKeys?relay
        FUNCTION ??RegisterForKeys?relay,00H
        EXTERN ??SPIMgr_RegisterTaskID?relay
        FUNCTION ??SPIMgr_RegisterTaskID?relay,00H
        EXTERN ??ZDO_ParseEPListRsp?relay
        FUNCTION ??ZDO_ParseEPListRsp?relay,00H
        EXTERN ??ZDO_RegisterForZDOMsg?relay
        FUNCTION ??ZDO_RegisterForZDOMsg?relay,00H
        EXTERN ??ZDP_EndDeviceBindReq?relay
        FUNCTION ??ZDP_EndDeviceBindReq?relay,00H
        EXTERN ??ZDP_MatchDescReq?relay
        FUNCTION ??ZDP_MatchDescReq?relay,00H
        EXTERN ??afRegister?relay
        FUNCTION ??afRegister?relay,00H
        EXTERN ??osal_mem_free?relay
        FUNCTION ??osal_mem_free?relay,00H
        EXTERN ??osal_msg_deallocate?relay
        FUNCTION ??osal_msg_deallocate?relay,00H
        EXTERN ??osal_msg_receive?relay
        FUNCTION ??osal_msg_receive?relay,00H
        EXTERN ??osal_strlen?relay
        FUNCTION ??osal_strlen?relay,00H
        EXTERN cfg0

// C:\Documents and Settings\Administrator\桌面\project\513\hit_wsn_2.0\Projects\zstack\Samples\Coordinator\Source\GenericApp.c
//    1 /**************************************************************************************************
//    2   Filename:       GenericApp.c
//    3   Revised:        $Date: 2007-10-27 17:16:54 -0700 (Sat, 27 Oct 2007) $
//    4   Revision:       $Revision: 15793 $
//    5 
//    6   Description:    Generic Application (no Profile).
//    7 
//    8 
//    9   Copyright 2004-2007 Texas Instruments Incorporated. All rights reserved.
//   10 
//   11   IMPORTANT: Your use of this Software is limited to those specific rights
//   12   granted under the terms of a software license agreement between the user
//   13   who downloaded the software, his/her employer (which must be your employer)
//   14   and Texas Instruments Incorporated (the "License").  You may not use this
//   15   Software unless you agree to abide by the terms of the License. The License
//   16   limits your use, and you acknowledge, that the Software may not be modified,
//   17   copied or distributed unless embedded on a Texas Instruments microcontroller
//   18   or used solely and exclusively in conjunction with a Texas Instruments radio
//   19   frequency transceiver, which is integrated into your product.  Other than for
//   20   the foregoing purpose, you may not use, reproduce, copy, prepare derivative
//   21   works of, modify, distribute, perform, display or sell this Software and/or
//   22   its documentation for any purpose.
//   23 
//   24   YOU FURTHER ACKNOWLEDGE AND AGREE THAT THE SOFTWARE AND DOCUMENTATION ARE
//   25   PROVIDED AS IS?WITHOUT WARRANTY OF ANY KIND, EITHER EXPRESS OR IMPLIED, 
//   26   INCLUDING WITHOUT LIMITATION, ANY WARRANTY OF MERCHANTABILITY, TITLE, 
//   27   NON-INFRINGEMENT AND FITNESS FOR A PARTICULAR PURPOSE. IN NO EVENT SHALL
//   28   TEXAS INSTRUMENTS OR ITS LICENSORS BE LIABLE OR OBLIGATED UNDER CONTRACT,
//   29   NEGLIGENCE, STRICT LIABILITY, CONTRIBUTION, BREACH OF WARRANTY, OR OTHER
//   30   LEGAL EQUITABLE THEORY ANY DIRECT OR INDIRECT DAMAGES OR EXPENSES
//   31   INCLUDING BUT NOT LIMITED TO ANY INCIDENTAL, SPECIAL, INDIRECT, PUNITIVE
//   32   OR CONSEQUENTIAL DAMAGES, LOST PROFITS OR LOST DATA, COST OF PROCUREMENT
//   33   OF SUBSTITUTE GOODS, TECHNOLOGY, SERVICES, OR ANY CLAIMS BY THIRD PARTIES
//   34   (INCLUDING BUT NOT LIMITED TO ANY DEFENSE THEREOF), OR OTHER SIMILAR COSTS.
//   35 
//   36   Should you have any questions regarding your right to use this Software,
//   37   contact Texas Instruments Incorporated at www.TI.com. 
//   38 **************************************************************************************************/
//   39 
//   40 /*********************************************************************
//   41   This application isn't intended to do anything useful, it is
//   42   intended to be a simple example of an application's structure.
//   43 
//   44   This application sends "Hello World" to another "Generic"
//   45   application every 15 seconds.  The application will also
//   46   receive "Hello World" packets.
//   47 
//   48   The "Hello World" messages are sent/received as MSG type message.
//   49 
//   50   This applications doesn't have a profile, so it handles everything
//   51   directly - itself.
//   52 
//   53   Key control:
//   54     SW1:
//   55     SW2:  initiates end device binding
//   56     SW3:
//   57     SW4:  initiates a match description request
//   58 *********************************************************************/
//   59 
//   60 /*********************************************************************
//   61  * INCLUDES
//   62  */
//   63 #include "OSAL.h"
//   64 #include "AF.h"
//   65 #include "ZDApp.h"
//   66 #include "ZDObject.h"
//   67 #include "ZDProfile.h"
//   68 
//   69 #include "GenericApp.h"
//   70 #include "DebugTrace.h"
//   71 
//   72 #if !defined( WIN32 )
//   73   #include "OnBoard.h"

        ASEGN SFR_AN:DATA:NOROOT,086H
// unsigned char volatile __sfr U0CSR
U0CSR:
        DS 1

        ASEGN SFR_AN:DATA:NOROOT,088H
// union <unnamed> volatile __sfr _A_TCON
_A_TCON:
        DS 1

        ASEGN SFR_AN:DATA:NOROOT,0a8H
// union <unnamed> volatile __sfr _A_IEN0
_A_IEN0:
        DS 1

        ASEGN SFR_AN:DATA:NOROOT,0c1H
// unsigned char volatile __sfr U0DBUF
U0DBUF:
        DS 1

        ASEGN SFR_AN:DATA:NOROOT,0c2H
// unsigned char volatile __sfr U0BAUD
U0BAUD:
        DS 1

        ASEGN SFR_AN:DATA:NOROOT,0c4H
// unsigned char volatile __sfr U0UCR
U0UCR:
        DS 1

        ASEGN SFR_AN:DATA:NOROOT,0c5H
// unsigned char volatile __sfr U0GCR
U0GCR:
        DS 1

        ASEGN SFR_AN:DATA:NOROOT,0c6H
// unsigned char volatile __sfr CLKCON
CLKCON:
        DS 1

        ASEGN SFR_AN:DATA:NOROOT,0e8H
// union <unnamed> volatile __sfr _A_IRCON2
_A_IRCON2:
        DS 1

        ASEGN SFR_AN:DATA:NOROOT,0f1H
// unsigned char volatile __sfr PERCFG
PERCFG:
        DS 1

        ASEGN SFR_AN:DATA:NOROOT,0f3H
// unsigned char volatile __sfr P0SEL
P0SEL:
        DS 1

        ASEGN SFR_AN:DATA:NOROOT,0f4H
// unsigned char volatile __sfr P1SEL
P1SEL:
        DS 1

        RSEG XDATA_I:XDATA:NOROOT(0)
        DATA
`?<Constant "GenericApp">`:
        DS 11
        REQUIRE `?<Initializer for <Constant "GenericApp">>`
        REQUIRE __INIT_XDATA_I

        RSEG XDATA_I:XDATA:NOROOT(0)
        DATA
`?<Constant "hal sw1 pressed!\\r\\n">`:
        DS 19
        REQUIRE `?<Initializer for <Constant "hal sw1 pressed!\\`
        REQUIRE __INIT_XDATA_I

        RSEG XDATA_I:XDATA:NOROOT(0)
        DATA
`?<Constant "hal sw2 pressed!\\r\\n">`:
        DS 19
        REQUIRE `?<Initializer for <Constant "hal sw2 pressed!\\`
        REQUIRE __INIT_XDATA_I

        RSEG XDATA_I:XDATA:NOROOT(0)
        DATA
`?<Constant "[[hal sw3 pressed\\n">`:
        DS 19
        REQUIRE `?<Initializer for <Constant "[[hal sw3 pressed`
        REQUIRE __INIT_XDATA_I

        RSEG XDATA_I:XDATA:NOROOT(0)
        DATA
`?<Constant "hal sw4 pressed!\\n\\r\\n">`:
        DS 20
        REQUIRE `?<Initializer for <Constant "hal sw4 pressed!\\`
        REQUIRE __INIT_XDATA_I

        RSEG XDATA_I:XDATA:NOROOT(0)
        DATA
`?<Constant "rcvd">`:
        DS 5
        REQUIRE `?<Initializer for <Constant "rcvd">>`
        REQUIRE __INIT_XDATA_I

        RSEG XDATA_I:XDATA:NOROOT(0)
        DATA
`?<Constant "Hello World">`:
        DS 12
        REQUIRE `?<Initializer for <Constant "Hello World">>`
        REQUIRE __INIT_XDATA_I
//   74 #endif
//   75 
//   76 /* HAL */
//   77 #include "hal_lcd.h"
//   78 #include "hal_led.h"
//   79 #include "hal_key.h"
//   80 #include "hal_uart.h"
//   81 #include "uart0.h"
//   82 
//   83 //xiaoyang add 
//   84 #include <string.h>
//   85 #include <stdio.h>
//   86 #include "SPIMgr.h"
//   87 //#include <stdlib.h>
//   88 /*********************************************************************
//   89  * MACROS
//   90  */
//   91 /*********************************************************************
//   92  * MACROS
//   93  */
//   94 //xiaoyang add
//   95 /* See the important comment by the otaBuf declaration below concerning the
//   96  * mandatory use of this macro vice directly invoking osal_mem_free().
//   97  */
//   98 #define FREE_OTABUF() { \ 
//   99   if ( otaBuf ) \ 
//  100   { \ 
//  101     osal_mem_free( otaBuf ); \ 
//  102   } \ 
//  103   if ( otaBuf2 ) \ 
//  104   { \ 
//  105     SerialApp_SendData( otaBuf2, otaLen2 ); \ 
//  106     otaBuf2 = NULL; \ 
//  107   } \ 
//  108   else \ 
//  109   { \ 
//  110     otaBuf = NULL; \ 
//  111   } \ 
//  112 }
//  113 
//  114 /*********************************************************************
//  115  * CONSTANTS
//  116  */
//  117 
//  118 #if !defined( SERIAL_APP_PORT )
//  119   #define SERIAL_APP_PORT  1
//  120 #endif
//  121 
//  122 #if !defined( SERIAL_APP_BAUD )
//  123   // CC2430 only allows 38.4k or 115.2k.
//  124   #define SERIAL_APP_BAUD  HAL_UART_BR_38400
//  125   //#define SERIAL_APP_BAUD  HAL_UART_BR_115200
//  126 #endif
//  127 
//  128 // When the Rx buf space is less than this threshold, invoke the Rx callback.
//  129 #if !defined( SERIAL_APP_THRESH )
//  130   #define SERIAL_APP_THRESH  48
//  131 #endif
//  132 
//  133 #if !defined( SERIAL_APP_RX_MAX )
//  134   #if (defined( HAL_UART_DMA )) && HAL_UART_DMA
//  135     #define SERIAL_APP_RX_MAX  128
//  136   #else
//  137     /* The generic safe Rx minimum is 48, but if you know your PC App will not
//  138      * continue to send more than a byte after receiving the ~CTS, lower max
//  139      * here and safe min in _hal_uart.c to just 8.
//  140      */
//  141     #define SERIAL_APP_RX_MAX  64
//  142   #endif
//  143 #endif
//  144 
//  145 #if !defined( SERIAL_APP_TX_MAX )
//  146   #if (defined( HAL_UART_DMA )) && HAL_UART_DMA
//  147   #define SERIAL_APP_TX_MAX  128
//  148   #else
//  149     #define SERIAL_APP_TX_MAX  64
//  150   #endif
//  151 #endif
//  152 
//  153 // Millisecs of idle time after a byte is received before invoking Rx callback.
//  154 #if !defined( SERIAL_APP_IDLE )
//  155   #define SERIAL_APP_IDLE  6
//  156 #endif
//  157 
//  158 // This is the desired byte count per OTA message.
//  159 #if !defined( SERIAL_APP_RX_CNT )
//  160   #if (defined( HAL_UART_DMA )) && HAL_UART_DMA
//  161     #define SERIAL_APP_RX_CNT  80
//  162   #else
//  163     #define SERIAL_APP_RX_CNT  6
//  164   #endif
//  165 #endif
//  166 
//  167 // Loopback Rx bytes to Tx for thruput testing.
//  168 #if !defined( SERIAL_APP_LOOPBACK )
//  169   #define SERIAL_APP_LOOPBACK  FALSE
//  170 #endif
//  171 
//  172 #if SERIAL_APP_LOOPBACK
//  173   #define SERIALAPP_TX_RTRY_EVT      0x0010
//  174   #define SERIALAPP_TX_RTRY_TIMEOUT  250
//  175 #endif
//  176 
//  177 /*********************************************************************
//  178  * CONSTANTS
//  179  */
//  180 
//  181 /*********************************************************************
//  182  * TYPEDEFS
//  183  */
//  184 
//  185 /*********************************************************************
//  186  * DEBUG
//  187  */
//  188 #define _m_debug    1
//  189 
//  190 /*********************************************************************
//  191  * GLOBAL VARIABLES
//  192  */
//  193 
//  194 // This list should be filled with Application specific Cluster IDs.

        RSEG XDATA_I:XDATA:NOROOT(0)
        DATA
//  195 const cId_t GenericApp_ClusterList[GENERICAPP_MAX_CLUSTERS] =
GenericApp_ClusterList:
        DS 2
        REQUIRE `?<Initializer for GenericApp_ClusterList>`
        REQUIRE __INIT_XDATA_I
//  196 {
//  197   GENERICAPP_CLUSTERID
//  198 };
//  199 

        RSEG XDATA_I:XDATA:NOROOT(0)
        DATA
//  200 const SimpleDescriptionFormat_t GenericApp_SimpleDesc =
GenericApp_SimpleDesc:
        DS 12
        REQUIRE `?<Initializer for GenericApp_SimpleDesc>`
        REQUIRE __INIT_XDATA_I

        RSEG XDATA_I:XDATA:NOROOT(0)
        DATA
__Constant_9600:
        DS 4
        REQUIRE `?<Initializer for __Constant_9600>`
        REQUIRE __INIT_XDATA_I

        RSEG XDATA_I:XDATA:NOROOT(0)
        DATA
__Constant_e100:
        DS 4
        REQUIRE `?<Initializer for __Constant_e100>`
        REQUIRE __INIT_XDATA_I

        RSEG XDATA_I:XDATA:NOROOT(0)
        DATA
__Constant_12c00:
        DS 4
        REQUIRE `?<Initializer for __Constant_12c00>`
        REQUIRE __INIT_XDATA_I

        RSEG XDATA_I:XDATA:NOROOT(0)
        DATA
__Constant_1c200:
        DS 4
        REQUIRE `?<Initializer for __Constant_1c200>`
        REQUIRE __INIT_XDATA_I

        RSEG XDATA_I:XDATA:NOROOT(0)
        DATA
__Constant_25800:
        DS 4
        REQUIRE `?<Initializer for __Constant_25800>`
        REQUIRE __INIT_XDATA_I

        RSEG XDATA_I:XDATA:NOROOT(0)
        DATA
__Constant_38400:
        DS 4
        REQUIRE `?<Initializer for __Constant_38400>`
        REQUIRE __INIT_XDATA_I

        RSEG XDATA_I:XDATA:NOROOT(0)
        DATA
__Constant_4b000:
        DS 4
        REQUIRE `?<Initializer for __Constant_4b000>`
        REQUIRE __INIT_XDATA_I
//  201 {
//  202   GENERICAPP_ENDPOINT,              //  int Endpoint;
//  203   GENERICAPP_PROFID,                //  uint16 AppProfId[2];
//  204   GENERICAPP_DEVICEID,              //  uint16 AppDeviceId[2];
//  205   GENERICAPP_DEVICE_VERSION,        //  int   AppDevVer:4;
//  206   GENERICAPP_FLAGS,                 //  int   AppFlags:4;
//  207   GENERICAPP_MAX_CLUSTERS,          //  byte  AppNumInClusters;
//  208   (cId_t *)GenericApp_ClusterList,  //  byte *pAppInClusterList;
//  209   GENERICAPP_MAX_CLUSTERS,          //  byte  AppNumInClusters;
//  210   (cId_t *)GenericApp_ClusterList   //  byte *pAppInClusterList;
//  211 };
//  212 
//  213 // This is the Endpoint/Interface description.  It is defined here, but
//  214 // filled-in in GenericApp_Init().  Another way to go would be to fill
//  215 // in the structure here and make it a "const" (in code space).  The
//  216 // way it's defined in this sample app it is define in RAM.

        RSEG XDATA_Z:XDATA:NOROOT(0)
//  217 endPointDesc_t GenericApp_epDesc;
GenericApp_epDesc:
        DS 6
        REQUIRE __INIT_XDATA_Z
//  218 
//  219 /*********************************************************************
//  220  * EXTERNAL VARIABLES
//  221  */
//  222 
//  223 /*********************************************************************
//  224  * EXTERNAL FUNCTIONS
//  225  */
//  226 
//  227 /*********************************************************************
//  228  * LOCAL VARIABLES
//  229  */

        RSEG XDATA_Z:XDATA:NOROOT(0)
//  230 byte GenericApp_TaskID;   // Task ID for internal task/event processing
GenericApp_TaskID:
        DS 1
        REQUIRE __INIT_XDATA_Z
//  231                           // This variable will be received when
//  232                           // GenericApp_Init() is called.

        RSEG XDATA_Z:XDATA:NOROOT(0)
//  233 devStates_t GenericApp_NwkState;
GenericApp_NwkState:
        DS 1
        REQUIRE __INIT_XDATA_Z
//  234 
//  235 

        RSEG XDATA_Z:XDATA:NOROOT(0)
//  236 byte GenericApp_TransID;  // This is the unique message ID (counter)
GenericApp_TransID:
        DS 1
        REQUIRE __INIT_XDATA_Z
//  237 

        RSEG XDATA_Z:XDATA:NOROOT(0)
//  238 afAddrType_t GenericApp_DstAddr;
GenericApp_DstAddr:
        DS 4
        REQUIRE __INIT_XDATA_Z
//  239 
//  240 
//  241 //------------------------------------------------------------------------------
//  242 //xiaoyang add, data_trans task
//  243 //------------------------------------------------------------------------------

        RSEG XDATA_Z:XDATA:NOROOT(0)
//  244 byte data_trans_TaskID;
data_trans_TaskID:
        DS 1
        REQUIRE __INIT_XDATA_Z
//  245 
//  246 
//  247 /*********************************************************************
//  248  * LOCAL FUNCTIONS
//  249  */
//  250 void GenericApp_ProcessZDOMsgs( zdoIncomingMsg_t *inMsg );
//  251 void GenericApp_HandleKeys( byte shift, byte keys );
//  252 void GenericApp_MessageMSGCB( afIncomingMSGPacket_t *pckt );
//  253 void GenericApp_SendTheMessage( void );
//  254 
//  255 /*********************************************************************
//  256  * NETWORK LAYER CALLBACKS
//  257  */
//  258 
//  259 /*********************************************************************
//  260  * PUBLIC FUNCTIONS
//  261  */
//  262 
//  263 /*********************************************************************
//  264  * @fn      GenericApp_Init
//  265  *
//  266  * @brief   Initialization function for the Generic App Task.
//  267  *          This is called during initialization and should contain
//  268  *          any application specific initialization (ie. hardware
//  269  *          initialization/setup, table initialization, power up
//  270  *          notificaiton ... ).
//  271  *
//  272  * @param   task_id - the ID assigned by OSAL.  This ID should be
//  273  *                    used to send messages and set timers.
//  274  *
//  275  * @return  none
//  276  */

        RSEG BANKED_CODE:CODE:NOROOT(0)
//  277 void GenericApp_Init( byte task_id )
GenericApp_Init:
        CFI Block cfiBlock0 Using cfiCommon0
        CFI Function GenericApp_Init
//  278 {
        FUNCALL GenericApp_Init, afRegister
        LOCFRAME ISTACK, 2, STACK
        LOCFRAME PSTACK, 0, STACK
        LOCFRAME XSTACK, 0, STACK
        LOCFRAME IOVERLAY, 0, STATIC
        LOCFRAME DOVERLAY, 0, STATIC
        ARGFRAME ISTACK, 2, STACK
        ARGFRAME PSTACK, 0, STACK
        ARGFRAME XSTACK, 0, STACK
        ARGFRAME IOVERLAY, 0, STATIC
        ARGFRAME DOVERLAY, 0, STATIC
        FUNCALL GenericApp_Init, RegisterForKeys
        LOCFRAME ISTACK, 2, STACK
        LOCFRAME PSTACK, 0, STACK
        LOCFRAME XSTACK, 0, STACK
        LOCFRAME IOVERLAY, 0, STATIC
        LOCFRAME DOVERLAY, 0, STATIC
        ARGFRAME ISTACK, 2, STACK
        ARGFRAME PSTACK, 0, STACK
        ARGFRAME XSTACK, 0, STACK
        ARGFRAME IOVERLAY, 0, STATIC
        ARGFRAME DOVERLAY, 0, STATIC
        FUNCALL GenericApp_Init, HalLcdWriteString
        LOCFRAME ISTACK, 2, STACK
        LOCFRAME PSTACK, 0, STACK
        LOCFRAME XSTACK, 0, STACK
        LOCFRAME IOVERLAY, 0, STATIC
        LOCFRAME DOVERLAY, 0, STATIC
        ARGFRAME ISTACK, 2, STACK
        ARGFRAME PSTACK, 0, STACK
        ARGFRAME XSTACK, 0, STACK
        ARGFRAME IOVERLAY, 0, STATIC
        ARGFRAME DOVERLAY, 0, STATIC
        FUNCALL GenericApp_Init, ZDO_RegisterForZDOMsg
        LOCFRAME ISTACK, 2, STACK
        LOCFRAME PSTACK, 0, STACK
        LOCFRAME XSTACK, 0, STACK
        LOCFRAME IOVERLAY, 0, STATIC
        LOCFRAME DOVERLAY, 0, STATIC
        ARGFRAME ISTACK, 2, STACK
        ARGFRAME PSTACK, 0, STACK
        ARGFRAME XSTACK, 0, STACK
        ARGFRAME IOVERLAY, 0, STATIC
        ARGFRAME DOVERLAY, 0, STATIC
        FUNCALL GenericApp_Init, ZDO_RegisterForZDOMsg
        LOCFRAME ISTACK, 2, STACK
        LOCFRAME PSTACK, 0, STACK
        LOCFRAME XSTACK, 0, STACK
        LOCFRAME IOVERLAY, 0, STATIC
        LOCFRAME DOVERLAY, 0, STATIC
        ARGFRAME ISTACK, 2, STACK
        ARGFRAME PSTACK, 0, STACK
        ARGFRAME XSTACK, 0, STACK
        ARGFRAME IOVERLAY, 0, STATIC
        ARGFRAME DOVERLAY, 0, STATIC
        FUNCALL GenericApp_Init, initUART
        LOCFRAME ISTACK, 2, STACK
        LOCFRAME PSTACK, 0, STACK
        LOCFRAME XSTACK, 0, STACK
        LOCFRAME IOVERLAY, 0, STATIC
        LOCFRAME DOVERLAY, 0, STATIC
        ARGFRAME ISTACK, 2, STACK
        ARGFRAME PSTACK, 0, STACK
        ARGFRAME XSTACK, 0, STACK
        ARGFRAME IOVERLAY, 0, STATIC
        ARGFRAME DOVERLAY, 0, STATIC
        PUSH    DPL
        CFI DPL0 Frame(CFA_SP, 4)
        CFI CFA_SP SP+-4
        PUSH    DPH
        CFI DPH0 Frame(CFA_SP, 5)
        CFI CFA_SP SP+-5
        ; Saved register size: 2
        ; Auto size: 0
//  279   GenericApp_TaskID = task_id;
        MOV     A,R1
        MOV     DPTR,#GenericApp_TaskID
        MOVX    @DPTR,A
//  280   GenericApp_NwkState = DEV_INIT;
        MOV     A,#0x1
        MOV     DPTR,#GenericApp_NwkState
        MOVX    @DPTR,A
//  281   GenericApp_TransID = 0;
        CLR     A
        MOV     DPTR,#GenericApp_TransID
        MOVX    @DPTR,A
//  282   //xiaoyang add
//  283   //halUARTCfg_t uartConfig;
//  284   // Device hardware initialization can be added here or in main() (Zmain.c).
//  285   // If the hardware is application specific - add it here.
//  286   // If the hardware is other parts of the device add it in main().
//  287 
//  288   GenericApp_DstAddr.addrMode = (afAddrMode_t)AddrNotPresent;
        MOV     DPTR,#(GenericApp_DstAddr + 2)
        MOVX    @DPTR,A
//  289   GenericApp_DstAddr.endPoint = 0;
        MOV     DPTR,#(GenericApp_DstAddr + 3)
        MOVX    @DPTR,A
//  290   GenericApp_DstAddr.addr.shortAddr = 0;
        MOV     DPTR,#GenericApp_DstAddr
        MOVX    @DPTR,A
        INC     DPTR
        MOVX    @DPTR,A
//  291 
//  292   // Fill out the endpoint description.
//  293   GenericApp_epDesc.endPoint = GENERICAPP_ENDPOINT;
        MOV     A,#0xa
        MOV     DPTR,#GenericApp_epDesc
        MOVX    @DPTR,A
//  294   GenericApp_epDesc.task_id = &GenericApp_TaskID;
        MOV     DPTR,#(GenericApp_epDesc + 1)
        MOV     A,#(GenericApp_TaskID & 0xff)
        MOVX    @DPTR,A
        INC     DPTR
        MOV     A,#((GenericApp_TaskID >> 8) & 0xff)
        MOVX    @DPTR,A
//  295   GenericApp_epDesc.simpleDesc
//  296             = (SimpleDescriptionFormat_t *)&GenericApp_SimpleDesc;
        MOV     DPTR,#(GenericApp_epDesc + 3)
        MOV     A,#(GenericApp_SimpleDesc & 0xff)
        MOVX    @DPTR,A
        INC     DPTR
        MOV     A,#((GenericApp_SimpleDesc >> 8) & 0xff)
        MOVX    @DPTR,A
//  297   GenericApp_epDesc.latencyReq = noLatencyReqs;
        CLR     A
        MOV     DPTR,#(GenericApp_epDesc + 5)
        MOVX    @DPTR,A
//  298 
//  299   // Register the endpoint description with the AF
//  300   afRegister( &GenericApp_epDesc );
        ; Setup parameters for call to function afRegister
        MOV     R2,#(GenericApp_epDesc & 0xff)
        MOV     R3,#((GenericApp_epDesc >> 8) & 0xff)
        LCALL   ??afRegister?relay
//  301 
//  302   // Register for all key events - This app will handle all key events
//  303   RegisterForKeys( GenericApp_TaskID );
        ; Setup parameters for call to function RegisterForKeys
        MOV     DPTR,#GenericApp_TaskID
        MOVX    A,@DPTR
        MOV     R1,A
        LCALL   ??RegisterForKeys?relay
//  304 
//  305   // Update the display
//  306 #if defined ( LCD_SUPPORTED )
//  307     HalLcdWriteString( "GenericApp", HAL_LCD_LINE_1 );
        ; Setup parameters for call to function HalLcdWriteString
        MOV     R1,#0x0
        MOV     R2,#(`?<Constant "GenericApp">` & 0xff)
        MOV     R3,#((`?<Constant "GenericApp">` >> 8) & 0xff)
        LCALL   ??HalLcdWriteString?relay
//  308 #endif
//  309     /*
//  310   //xiaoyang add
//  311   uartConfig.configured           = TRUE;              // 2430 don't care.
//  312   uartConfig.baudRate             = SERIAL_APP_BAUD;
//  313   uartConfig.flowControl          = TRUE;
//  314   uartConfig.flowControlThreshold = SERIAL_APP_THRESH;
//  315   uartConfig.rx.maxBufSize        = SERIAL_APP_RX_MAX;
//  316   uartConfig.tx.maxBufSize        = SERIAL_APP_TX_MAX;
//  317   uartConfig.idleTimeout          = SERIAL_APP_IDLE;   // 2430 don't care.
//  318   uartConfig.intEnable            = TRUE;              // 2430 don't care.
//  319 #if SERIAL_APP_LOOPBACK
//  320   uartConfig.callBackFunc         = NULL;
//  321 #else
//  322   uartConfig.callBackFunc         = NULL;
//  323 #endif
//  324   HalUARTOpen (SERIAL_APP_PORT, &uartConfig);
//  325   */
//  326   //
//  327   ZDO_RegisterForZDOMsg( GenericApp_TaskID, End_Device_Bind_rsp );
        ; Setup parameters for call to function ZDO_RegisterForZDOMsg
        MOV     R2,#0x20
        MOV     R3,#-0x80
        MOV     DPTR,#GenericApp_TaskID
        MOVX    A,@DPTR
        MOV     R1,A
        LCALL   ??ZDO_RegisterForZDOMsg?relay
//  328   ZDO_RegisterForZDOMsg( GenericApp_TaskID, Match_Desc_rsp );
        ; Setup parameters for call to function ZDO_RegisterForZDOMsg
        MOV     R2,#0x6
        MOV     R3,#-0x80
        MOV     DPTR,#GenericApp_TaskID
        MOVX    A,@DPTR
        MOV     R1,A
        LCALL   ??ZDO_RegisterForZDOMsg?relay
//  329   
//  330   //xiaoyang ADD@2011.5.26
//  331   initUART();
        ; Setup parameters for call to function initUART
        LCALL   ??initUART?relay
        CFI EndBlock cfiBlock0
//  332 }
        REQUIRE ?Subroutine4
        ; // Fall through to label ?Subroutine4

        RSEG BANKED_CODE:CODE:NOROOT(0)
?Subroutine4:
        CFI Block cfiBlock1 Using cfiCommon0
        CFI NoFunction
        CFI CFA_SP SP+-5
        CFI DPL0 Frame(CFA_SP, 4)
        CFI DPH0 Frame(CFA_SP, 5)
        POP     DPH
        CFI CFA_SP SP+-4
        CFI DPH0 SameValue
        POP     DPL
        CFI CFA_SP SP+-3
        CFI DPL0 SameValue
        LJMP    ?BRET
        CFI EndBlock cfiBlock1
//  333 
//  334 /*********************************************************************
//  335  * @fn      GenericApp_ProcessEvent
//  336  *
//  337  * @brief   Generic Application Task event processor.  This function
//  338  *          is called to process all events for the task.  Events
//  339  *          include timers, messages and any other user defined events.
//  340  *
//  341  * @param   task_id  - The OSAL assigned task ID.
//  342  * @param   events - events to process.  This is a bit map and can
//  343  *                   contain more than one event.
//  344  *
//  345  * @return  none
//  346  */

        RSEG BANKED_CODE:CODE:NOROOT(0)
//  347 UINT16 GenericApp_ProcessEvent( byte task_id, UINT16 events )
GenericApp_ProcessEvent:
        CFI Block cfiBlock2 Using cfiCommon0
        CFI Function GenericApp_ProcessEvent
//  348 {
        FUNCALL GenericApp_ProcessEvent, osal_msg_receive
        LOCFRAME ISTACK, 0, STACK
        LOCFRAME PSTACK, 0, STACK
        LOCFRAME XSTACK, 12, STACK
        LOCFRAME IOVERLAY, 0, STATIC
        LOCFRAME DOVERLAY, 0, STATIC
        ARGFRAME ISTACK, 0, STACK
        ARGFRAME PSTACK, 0, STACK
        ARGFRAME XSTACK, 12, STACK
        ARGFRAME IOVERLAY, 0, STATIC
        ARGFRAME DOVERLAY, 0, STATIC
        FUNCALL GenericApp_ProcessEvent, osal_msg_deallocate
        LOCFRAME ISTACK, 0, STACK
        LOCFRAME PSTACK, 0, STACK
        LOCFRAME XSTACK, 12, STACK
        LOCFRAME IOVERLAY, 0, STATIC
        LOCFRAME DOVERLAY, 0, STATIC
        ARGFRAME ISTACK, 0, STACK
        ARGFRAME PSTACK, 0, STACK
        ARGFRAME XSTACK, 12, STACK
        ARGFRAME IOVERLAY, 0, STATIC
        ARGFRAME DOVERLAY, 0, STATIC
        FUNCALL GenericApp_ProcessEvent, osal_msg_receive
        LOCFRAME ISTACK, 0, STACK
        LOCFRAME PSTACK, 0, STACK
        LOCFRAME XSTACK, 12, STACK
        LOCFRAME IOVERLAY, 0, STATIC
        LOCFRAME DOVERLAY, 0, STATIC
        ARGFRAME ISTACK, 0, STACK
        ARGFRAME PSTACK, 0, STACK
        ARGFRAME XSTACK, 12, STACK
        ARGFRAME IOVERLAY, 0, STATIC
        ARGFRAME DOVERLAY, 0, STATIC
        FUNCALL GenericApp_ProcessEvent, GenericApp_ProcessZDOMsgs
        LOCFRAME ISTACK, 0, STACK
        LOCFRAME PSTACK, 0, STACK
        LOCFRAME XSTACK, 12, STACK
        LOCFRAME IOVERLAY, 0, STATIC
        LOCFRAME DOVERLAY, 0, STATIC
        ARGFRAME ISTACK, 0, STACK
        ARGFRAME PSTACK, 0, STACK
        ARGFRAME XSTACK, 12, STACK
        ARGFRAME IOVERLAY, 0, STATIC
        ARGFRAME DOVERLAY, 0, STATIC
        FUNCALL GenericApp_ProcessEvent, GenericApp_HandleKeys
        LOCFRAME ISTACK, 0, STACK
        LOCFRAME PSTACK, 0, STACK
        LOCFRAME XSTACK, 12, STACK
        LOCFRAME IOVERLAY, 0, STATIC
        LOCFRAME DOVERLAY, 0, STATIC
        ARGFRAME ISTACK, 0, STACK
        ARGFRAME PSTACK, 0, STACK
        ARGFRAME XSTACK, 12, STACK
        ARGFRAME IOVERLAY, 0, STATIC
        ARGFRAME DOVERLAY, 0, STATIC
        FUNCALL GenericApp_ProcessEvent, GenericApp_MessageMSGCB
        LOCFRAME ISTACK, 0, STACK
        LOCFRAME PSTACK, 0, STACK
        LOCFRAME XSTACK, 12, STACK
        LOCFRAME IOVERLAY, 0, STATIC
        LOCFRAME DOVERLAY, 0, STATIC
        ARGFRAME ISTACK, 0, STACK
        ARGFRAME PSTACK, 0, STACK
        ARGFRAME XSTACK, 12, STACK
        ARGFRAME IOVERLAY, 0, STATIC
        ARGFRAME DOVERLAY, 0, STATIC
        MOV     A,#-0xc
        LCALL   ?BANKED_ENTER_XDATA
        CFI DPH0 load(1, XDATA, add(CFA_XSP16, literal(-1)))
        CFI DPL0 load(1, XDATA, add(CFA_XSP16, literal(-2)))
        CFI ?BRET_EXT load(1, XDATA, add(CFA_XSP16, literal(-3)))
        CFI ?RET_HIGH load(1, XDATA, add(CFA_XSP16, literal(-4)))
        CFI ?RET_LOW load(1, XDATA, add(CFA_XSP16, literal(-5)))
        CFI R7 load(1, XDATA, add(CFA_XSP16, literal(-6)))
        CFI V3 load(1, XDATA, add(CFA_XSP16, literal(-7)))
        CFI V2 load(1, XDATA, add(CFA_XSP16, literal(-8)))
        CFI V1 load(1, XDATA, add(CFA_XSP16, literal(-9)))
        CFI V0 load(1, XDATA, add(CFA_XSP16, literal(-10)))
        CFI VB load(1, XDATA, add(CFA_XSP16, literal(-11)))
        CFI R6 load(1, XDATA, add(CFA_XSP16, literal(-12)))
        CFI CFA_SP SP+0
        CFI CFA_XSP16 add(XSP16, 12)
        ; Saved register size: 12
        ; Auto size: 0
        MOV     A,R2
        MOV     R6,A
        MOV     A,R3
        MOV     R7,A
//  349   afIncomingMSGPacket_t *MSGpkt;
//  350   afDataConfirm_t *afDataConfirm;
//  351 
//  352   // Data Confirmation message fields
//  353   byte sentEP;
//  354   ZStatus_t sentStatus;
//  355   byte sentTransID;       // This should match the value sent
//  356 
//  357   if ( events & SYS_EVENT_MSG )
        MOV     A,#-0x80
        ANL     A,R7
        MOV     R1,A
        CLR     A
        JNZ     ??GenericApp_ProcessEvent_0
        MOV     A,R1
??GenericApp_ProcessEvent_0:
        JZ      ??GenericApp_ProcessEvent_1
//  358   {
//  359     MSGpkt = (afIncomingMSGPacket_t *)osal_msg_receive( GenericApp_TaskID );
        ; Setup parameters for call to function osal_msg_receive
        SJMP    ??GenericApp_ProcessEvent_2
//  360     while ( MSGpkt )
//  361     {
//  362       switch ( MSGpkt->hdr.event )
//  363       {
//  364         case ZDO_CB_MSG:
//  365           GenericApp_ProcessZDOMsgs( (zdoIncomingMsg_t *)MSGpkt );
//  366           break;
//  367 
//  368         case KEY_CHANGE:
//  369           GenericApp_HandleKeys( ((keyChange_t *)MSGpkt)->state, ((keyChange_t *)MSGpkt)->keys );
//  370           break;
//  371 
//  372         case AF_DATA_CONFIRM_CMD:
//  373           // This message is received as a confirmation of a data packet sent.
//  374           // The status is of ZStatus_t type [defined in ZComDef.h]
//  375           // The message fields are defined in AF.h
//  376           afDataConfirm = (afDataConfirm_t *)MSGpkt;
//  377           sentEP = afDataConfirm->endpoint;
//  378           sentStatus = afDataConfirm->hdr.status;
//  379           sentTransID = afDataConfirm->transID;
//  380           (void)sentEP;
//  381           (void)sentTransID;
//  382 
//  383           // Action taken when confirmation is received.
//  384           if ( sentStatus != ZSuccess )
//  385           {
//  386             // The data wasn't delivered -- Do something
//  387           }
//  388           break;
//  389 
//  390         case AF_INCOMING_MSG_CMD:
//  391           GenericApp_MessageMSGCB( MSGpkt );
//  392           break;
//  393 
//  394         case ZDO_STATE_CHANGE:
//  395           GenericApp_NwkState = (devStates_t)(MSGpkt->hdr.status);
??GenericApp_ProcessEvent_3:
        MOV     DPL,?V0 + 0
        MOV     DPH,?V0 + 1
        INC     DPTR
        MOVX    A,@DPTR
        MOV     DPTR,#GenericApp_NwkState
        MOVX    @DPTR,A
//  396           if ( (GenericApp_NwkState == DEV_ZB_COORD)
//  397               || (GenericApp_NwkState == DEV_ROUTER)
//  398               || (GenericApp_NwkState == DEV_END_DEVICE) )
//  399           {
//  400             // Start sending "the" message in a regular interval.
//  401             /*
//  402             osal_start_timerEx( GenericApp_TaskID,
//  403                                 GENERICAPP_SEND_MSG_EVT,
//  404                                 GENERICAPP_SEND_MSG_TIMEOUT );
//  405             */
//  406             
//  407           }
//  408           break;
//  409 
//  410         default:
//  411           break;
//  412       }
//  413 
//  414       // Release the memory
//  415       osal_msg_deallocate( (uint8 *)MSGpkt );
??GenericApp_ProcessEvent_4:
        ; Setup parameters for call to function osal_msg_deallocate
        MOV     R2,?V0 + 0
        MOV     R3,?V0 + 1
        LCALL   ??osal_msg_deallocate?relay
//  416 
//  417       // Next
//  418       MSGpkt = (afIncomingMSGPacket_t *)osal_msg_receive( GenericApp_TaskID );
        ; Setup parameters for call to function osal_msg_receive
??GenericApp_ProcessEvent_2:
        MOV     DPTR,#GenericApp_TaskID
        MOVX    A,@DPTR
        MOV     R1,A
        LCALL   ??osal_msg_receive?relay
        MOV     ?V0 + 0,R2
        MOV     ?V0 + 1,R3
        MOV     A,?V0 + 0
        JNZ     ??GenericApp_ProcessEvent_5
        MOV     A,?V0 + 1
??GenericApp_ProcessEvent_5:
        JZ      ??GenericApp_ProcessEvent_6
        MOV     DPL,?V0 + 0
        MOV     DPH,?V0 + 1
        MOVX    A,@DPTR
        LCALL   ?UC_SWITCH_SPARSE
`?<Jumptable for GenericApp_ProcessEvent>_0`:
        DATA
        DB        0
        DB        4
        DB        26
        DW        ??GenericApp_ProcessEvent_7
        DB        192
        DW        ??GenericApp_ProcessEvent_8
        DB        209
        DW        ??GenericApp_ProcessEvent_3
        DB        211
        DW        ??GenericApp_ProcessEvent_9
        DW        ??GenericApp_ProcessEvent_4
        CODE
??GenericApp_ProcessEvent_9:
        ; Setup parameters for call to function GenericApp_ProcessZDOMsgs
        MOV     R2,?V0 + 0
        MOV     R3,?V0 + 1
        LCALL   ??GenericApp_ProcessZDOMsgs?relay
        SJMP    ??GenericApp_ProcessEvent_4
??GenericApp_ProcessEvent_8:
        ; Setup parameters for call to function GenericApp_HandleKeys
        MOV     DPL,?V0 + 0
        MOV     DPH,?V0 + 1
        INC     DPTR
        INC     DPTR
        INC     DPTR
        MOVX    A,@DPTR
        MOV     R2,A
        MOV     DPL,?V0 + 0
        MOV     DPH,?V0 + 1
        INC     DPTR
        INC     DPTR
        MOVX    A,@DPTR
        MOV     R1,A
        LCALL   ??GenericApp_HandleKeys?relay
        SJMP    ??GenericApp_ProcessEvent_4
??GenericApp_ProcessEvent_7:
        ; Setup parameters for call to function GenericApp_MessageMSGCB
        MOV     R2,?V0 + 0
        MOV     R3,?V0 + 1
        LCALL   ??GenericApp_MessageMSGCB?relay
        SJMP    ??GenericApp_ProcessEvent_4
//  419     }
//  420 
//  421     // return unprocessed events
//  422     return (events ^ SYS_EVENT_MSG);
??GenericApp_ProcessEvent_6:
        MOV     A,R6
        MOV     R2,A
        MOV     A,#-0x80
        XRL     A,R7
        MOV     R3,A
        SJMP    ??GenericApp_ProcessEvent_10
//  423   }
//  424 
//  425   // Send a message out - This event is generated by a timer
//  426   //  (setup in GenericApp_Init()).
//  427   if ( events & GENERICAPP_SEND_MSG_EVT )
??GenericApp_ProcessEvent_1:
        MOV     A,R6
        MOV     C,0xE0 /* A   */.0
        JNC     ??GenericApp_ProcessEvent_11
//  428   {
//  429     // Send "the" message
//  430     //GenericApp_SendTheMessage();
//  431 
//  432     // Setup to send message again
//  433     //osal_start_timerEx( GenericApp_TaskID,
//  434       //                  GENERICAPP_SEND_MSG_EVT,
//  435         //                GENERICAPP_SEND_MSG_TIMEOUT );
//  436 
//  437     // return unprocessed events
//  438     return (events ^ GENERICAPP_SEND_MSG_EVT);
        MOV     A,#0x1
        XRL     A,R6
        MOV     R2,A
        SJMP    ??GenericApp_ProcessEvent_10
//  439   }
//  440 
//  441   // Discard unknown events
//  442   return 0;
??GenericApp_ProcessEvent_11:
        MOV     R2,#0x0
        MOV     R3,#0x0
        CFI EndBlock cfiBlock2
??GenericApp_ProcessEvent_10:
        REQUIRE ?Subroutine5
        ; // Fall through to label ?Subroutine5
//  443 }

        RSEG BANKED_CODE:CODE:NOROOT(0)
?Subroutine5:
        CFI Block cfiBlock3 Using cfiCommon0
        CFI NoFunction
        CFI CFA_SP SP+0
        CFI CFA_XSP16 add(XSP16, 12)
        CFI VB load(1, XDATA, add(CFA_XSP16, literal(-11)))
        CFI DPL0 load(1, XDATA, add(CFA_XSP16, literal(-2)))
        CFI DPH0 load(1, XDATA, add(CFA_XSP16, literal(-1)))
        CFI R6 load(1, XDATA, add(CFA_XSP16, literal(-12)))
        CFI R7 load(1, XDATA, add(CFA_XSP16, literal(-6)))
        CFI V0 load(1, XDATA, add(CFA_XSP16, literal(-10)))
        CFI V1 load(1, XDATA, add(CFA_XSP16, literal(-9)))
        CFI V2 load(1, XDATA, add(CFA_XSP16, literal(-8)))
        CFI V3 load(1, XDATA, add(CFA_XSP16, literal(-7)))
        CFI ?BRET_EXT load(1, XDATA, add(CFA_XSP16, literal(-3)))
        CFI ?RET_HIGH load(1, XDATA, add(CFA_XSP16, literal(-4)))
        CFI ?RET_LOW load(1, XDATA, add(CFA_XSP16, literal(-5)))
        MOV     R7,#0x4
        LJMP    ?BANKED_LEAVE_XDATA
        CFI EndBlock cfiBlock3
//  444 
//  445 /*********************************************************************
//  446  * Event Generation Functions
//  447  */
//  448 /*********************************************************************
//  449  * @fn      GenericApp_ProcessZDOMsgs()
//  450  *
//  451  * @brief   Process response messages
//  452  *
//  453  * @param   none
//  454  *
//  455  * @return  none
//  456  */

        RSEG BANKED_CODE:CODE:NOROOT(0)
//  457 void GenericApp_ProcessZDOMsgs( zdoIncomingMsg_t *inMsg )
GenericApp_ProcessZDOMsgs:
        CFI Block cfiBlock4 Using cfiCommon0
        CFI Function GenericApp_ProcessZDOMsgs
//  458 {
        FUNCALL GenericApp_ProcessZDOMsgs, HalLedSet
        LOCFRAME ISTACK, 0, STACK
        LOCFRAME PSTACK, 0, STACK
        LOCFRAME XSTACK, 10, STACK
        LOCFRAME IOVERLAY, 0, STATIC
        LOCFRAME DOVERLAY, 0, STATIC
        ARGFRAME ISTACK, 0, STACK
        ARGFRAME PSTACK, 0, STACK
        ARGFRAME XSTACK, 10, STACK
        ARGFRAME IOVERLAY, 0, STATIC
        ARGFRAME DOVERLAY, 0, STATIC
        FUNCALL GenericApp_ProcessZDOMsgs, HalLedSet
        LOCFRAME ISTACK, 0, STACK
        LOCFRAME PSTACK, 0, STACK
        LOCFRAME XSTACK, 10, STACK
        LOCFRAME IOVERLAY, 0, STATIC
        LOCFRAME DOVERLAY, 0, STATIC
        ARGFRAME ISTACK, 0, STACK
        ARGFRAME PSTACK, 0, STACK
        ARGFRAME XSTACK, 10, STACK
        ARGFRAME IOVERLAY, 0, STATIC
        ARGFRAME DOVERLAY, 0, STATIC
        FUNCALL GenericApp_ProcessZDOMsgs, ZDO_ParseEPListRsp
        LOCFRAME ISTACK, 0, STACK
        LOCFRAME PSTACK, 0, STACK
        LOCFRAME XSTACK, 10, STACK
        LOCFRAME IOVERLAY, 0, STATIC
        LOCFRAME DOVERLAY, 0, STATIC
        ARGFRAME ISTACK, 0, STACK
        ARGFRAME PSTACK, 0, STACK
        ARGFRAME XSTACK, 10, STACK
        ARGFRAME IOVERLAY, 0, STATIC
        ARGFRAME DOVERLAY, 0, STATIC
        FUNCALL GenericApp_ProcessZDOMsgs, HalLedSet
        LOCFRAME ISTACK, 0, STACK
        LOCFRAME PSTACK, 0, STACK
        LOCFRAME XSTACK, 10, STACK
        LOCFRAME IOVERLAY, 0, STATIC
        LOCFRAME DOVERLAY, 0, STATIC
        ARGFRAME ISTACK, 0, STACK
        ARGFRAME PSTACK, 0, STACK
        ARGFRAME XSTACK, 10, STACK
        ARGFRAME IOVERLAY, 0, STATIC
        ARGFRAME DOVERLAY, 0, STATIC
        FUNCALL GenericApp_ProcessZDOMsgs, osal_mem_free
        LOCFRAME ISTACK, 0, STACK
        LOCFRAME PSTACK, 0, STACK
        LOCFRAME XSTACK, 10, STACK
        LOCFRAME IOVERLAY, 0, STATIC
        LOCFRAME DOVERLAY, 0, STATIC
        ARGFRAME ISTACK, 0, STACK
        ARGFRAME PSTACK, 0, STACK
        ARGFRAME XSTACK, 10, STACK
        ARGFRAME IOVERLAY, 0, STATIC
        ARGFRAME DOVERLAY, 0, STATIC
        MOV     A,#-0xa
        LCALL   ?BANKED_ENTER_XDATA
        CFI DPH0 load(1, XDATA, add(CFA_XSP16, literal(-1)))
        CFI DPL0 load(1, XDATA, add(CFA_XSP16, literal(-2)))
        CFI ?BRET_EXT load(1, XDATA, add(CFA_XSP16, literal(-3)))
        CFI ?RET_HIGH load(1, XDATA, add(CFA_XSP16, literal(-4)))
        CFI ?RET_LOW load(1, XDATA, add(CFA_XSP16, literal(-5)))
        CFI R7 load(1, XDATA, add(CFA_XSP16, literal(-6)))
        CFI V1 load(1, XDATA, add(CFA_XSP16, literal(-7)))
        CFI V0 load(1, XDATA, add(CFA_XSP16, literal(-8)))
        CFI VB load(1, XDATA, add(CFA_XSP16, literal(-9)))
        CFI R6 load(1, XDATA, add(CFA_XSP16, literal(-10)))
        CFI CFA_SP SP+0
        CFI CFA_XSP16 add(XSP16, 10)
        ; Saved register size: 10
        ; Auto size: 0
//  459   switch ( inMsg->clusterID )
        MOV     A,R2
        ADD     A,#0xc
        MOV     DPL,A
        MOV     A,R3
        ADDC    A,#0x0
        MOV     DPH,A
        LCALL   ?Subroutine1 & 0xFFFF
??CrossCallReturnLabel_2:
        LCALL   ?US_SWITCH_SPARSE
`?<Jumptable for GenericApp_ProcessZDOMsgs>_0`:
        DATA
        DW        0
        DW        2
        DW        32774
        DW        ??GenericApp_ProcessZDOMsgs_0
        DW        32800
        DW        ??GenericApp_ProcessZDOMsgs_1
        DW        ??GenericApp_ProcessZDOMsgs_2
        CODE
//  460   {
//  461     case End_Device_Bind_rsp:
//  462       if ( ZDO_ParseBindRsp( inMsg ) == ZSuccess )
??GenericApp_ProcessZDOMsgs_1:
        MOV     A,R2
        ADD     A,#0x11
        MOV     DPL,A
        MOV     A,R3
        ADDC    A,#0x0
        MOV     DPH,A
        MOVX    A,@DPTR
        MOV     R0,A
        INC     DPTR
        MOVX    A,@DPTR
        MOV     DPH,A
        MOV     DPL,R0
        MOVX    A,@DPTR
        JNZ     ??GenericApp_ProcessZDOMsgs_3
//  463       {
//  464         // Light LED
//  465         HalLedSet( HAL_LED_4, HAL_LED_MODE_ON );
        ; Setup parameters for call to function HalLedSet
        MOV     R2,#0x1
??GenericApp_ProcessZDOMsgs_4:
        MOV     R1,#0x8
        LCALL   ??HalLedSet?relay
        SJMP    ??GenericApp_ProcessZDOMsgs_2
//  466       }
//  467 #if defined(BLINK_LEDS)
//  468       else
//  469       {
//  470         // Flash LED to show failure
//  471         HalLedSet ( HAL_LED_4, HAL_LED_MODE_FLASH );
??GenericApp_ProcessZDOMsgs_3:
        ; Setup parameters for call to function HalLedSet
        MOV     R2,#0x4
        SJMP    ??GenericApp_ProcessZDOMsgs_4
//  472       }
//  473 #endif
//  474       break;
//  475 
//  476     case Match_Desc_rsp:
//  477       {
//  478         ZDO_ActiveEndpointRsp_t *pRsp = ZDO_ParseEPListRsp( inMsg );
??GenericApp_ProcessZDOMsgs_0:
        ; Setup parameters for call to function ZDO_ParseEPListRsp
        LCALL   ??ZDO_ParseEPListRsp?relay
        MOV     ?V0 + 0,R2
        MOV     ?V0 + 1,R3
        MOV     R6,?V0 + 0
        MOV     R7,?V0 + 1
//  479         if ( pRsp )
        MOV     A,R6
        JNZ     ??GenericApp_ProcessZDOMsgs_5
        MOV     A,R7
??GenericApp_ProcessZDOMsgs_5:
        JZ      ??GenericApp_ProcessZDOMsgs_2
//  480         {
//  481           if ( pRsp->status == ZSuccess && pRsp->cnt )
        MOV     DPL,R6
        MOV     DPH,R7
        MOVX    A,@DPTR
        JNZ     ??GenericApp_ProcessZDOMsgs_6
        INC     DPTR
        INC     DPTR
        INC     DPTR
        MOVX    A,@DPTR
        JZ      ??GenericApp_ProcessZDOMsgs_6
//  482           {
//  483             GenericApp_DstAddr.addrMode = (afAddrMode_t)Addr16Bit;
        MOV     A,#0x2
        MOV     DPTR,#(GenericApp_DstAddr + 2)
        MOVX    @DPTR,A
//  484             GenericApp_DstAddr.addr.shortAddr = pRsp->nwkAddr;
        MOV     DPL,R6
        MOV     DPH,R7
        INC     DPTR
        MOVX    A,@DPTR
        MOV     R0,A
        INC     DPTR
        MOVX    A,@DPTR
        MOV     R1,A
        MOV     DPTR,#GenericApp_DstAddr
        MOV     A,R0
        MOVX    @DPTR,A
        INC     DPTR
        MOV     A,R1
        MOVX    @DPTR,A
//  485             // Take the first endpoint, Can be changed to search through endpoints
//  486             GenericApp_DstAddr.endPoint = pRsp->epList[0];
        MOV     DPL,R6
        MOV     DPH,R7
        INC     DPTR
        INC     DPTR
        INC     DPTR
        INC     DPTR
        MOVX    A,@DPTR
        MOV     DPTR,#(GenericApp_DstAddr + 3)
        MOVX    @DPTR,A
//  487 
//  488             // Light LED
//  489             HalLedSet( HAL_LED_4, HAL_LED_MODE_ON );
        ; Setup parameters for call to function HalLedSet
        MOV     R2,#0x1
        MOV     R1,#0x8
        LCALL   ??HalLedSet?relay
//  490           }
//  491           osal_mem_free( pRsp );
??GenericApp_ProcessZDOMsgs_6:
        ; Setup parameters for call to function osal_mem_free
        MOV     A,R6
        MOV     R2,A
        MOV     A,R7
        MOV     R3,A
        LCALL   ??osal_mem_free?relay
//  492         }
//  493       }
//  494       break;
//  495   }
//  496 }
??GenericApp_ProcessZDOMsgs_2:
        SJMP    ??Subroutine6_0
        CFI EndBlock cfiBlock4

        RSEG BANKED_CODE:CODE:NOROOT(0)
?Subroutine6:
        CFI Block cfiBlock5 Using cfiCommon0
        CFI NoFunction
        CFI CFA_SP SP+0
        CFI CFA_XSP16 add(XSP16, 19)
        CFI VB load(1, XDATA, add(CFA_XSP16, literal(-9)))
        CFI DPL0 load(1, XDATA, add(CFA_XSP16, literal(-2)))
        CFI DPH0 load(1, XDATA, add(CFA_XSP16, literal(-1)))
        CFI R6 load(1, XDATA, add(CFA_XSP16, literal(-10)))
        CFI R7 load(1, XDATA, add(CFA_XSP16, literal(-6)))
        CFI V0 load(1, XDATA, add(CFA_XSP16, literal(-8)))
        CFI V1 load(1, XDATA, add(CFA_XSP16, literal(-7)))
        CFI ?BRET_EXT load(1, XDATA, add(CFA_XSP16, literal(-3)))
        CFI ?RET_HIGH load(1, XDATA, add(CFA_XSP16, literal(-4)))
        CFI ?RET_LOW load(1, XDATA, add(CFA_XSP16, literal(-5)))
        CFI Invalid
        LCALL   ?DEALLOC_XSTACK8
        CFI CFA_XSP16 add(XSP16, 10)
        CFI Valid
??Subroutine6_0:
        MOV     R7,#0x2
        LJMP    ?BANKED_LEAVE_XDATA
        CFI EndBlock cfiBlock5
//  497 
//  498 /*********************************************************************
//  499  * @fn      GenericApp_HandleKeys
//  500  *
//  501  * @brief   Handles all key events for this device.
//  502  *
//  503  * @param   shift - true if in shift/alt.
//  504  * @param   keys - bit field for key events. Valid entries:
//  505  *                 HAL_KEY_SW_4
//  506  *                 HAL_KEY_SW_3
//  507  *                 HAL_KEY_SW_2
//  508  *                 HAL_KEY_SW_1
//  509  *
//  510  * @return  none
//  511  */

        RSEG BANKED_CODE:CODE:NOROOT(0)
//  512 void GenericApp_HandleKeys( byte shift, byte keys )
GenericApp_HandleKeys:
        CFI Block cfiBlock6 Using cfiCommon0
        CFI Function GenericApp_HandleKeys
//  513 {
        FUNCALL GenericApp_HandleKeys, uart0_puts
        LOCFRAME ISTACK, 0, STACK
        LOCFRAME PSTACK, 0, STACK
        LOCFRAME XSTACK, 19, STACK
        LOCFRAME IOVERLAY, 0, STATIC
        LOCFRAME DOVERLAY, 0, STATIC
        ARGFRAME ISTACK, 0, STACK
        ARGFRAME PSTACK, 0, STACK
        ARGFRAME XSTACK, 19, STACK
        ARGFRAME IOVERLAY, 0, STATIC
        ARGFRAME DOVERLAY, 0, STATIC
        FUNCALL GenericApp_HandleKeys, uart0_puts
        LOCFRAME ISTACK, 0, STACK
        LOCFRAME PSTACK, 0, STACK
        LOCFRAME XSTACK, 19, STACK
        LOCFRAME IOVERLAY, 0, STATIC
        LOCFRAME DOVERLAY, 0, STATIC
        ARGFRAME ISTACK, 0, STACK
        ARGFRAME PSTACK, 0, STACK
        ARGFRAME XSTACK, 19, STACK
        ARGFRAME IOVERLAY, 0, STATIC
        ARGFRAME DOVERLAY, 0, STATIC
        FUNCALL GenericApp_HandleKeys, HalLedSet
        LOCFRAME ISTACK, 0, STACK
        LOCFRAME PSTACK, 0, STACK
        LOCFRAME XSTACK, 19, STACK
        LOCFRAME IOVERLAY, 0, STATIC
        LOCFRAME DOVERLAY, 0, STATIC
        ARGFRAME ISTACK, 0, STACK
        ARGFRAME PSTACK, 0, STACK
        ARGFRAME XSTACK, 19, STACK
        ARGFRAME IOVERLAY, 0, STATIC
        ARGFRAME DOVERLAY, 0, STATIC
        FUNCALL GenericApp_HandleKeys, NLME_GetShortAddr
        LOCFRAME ISTACK, 0, STACK
        LOCFRAME PSTACK, 0, STACK
        LOCFRAME XSTACK, 19, STACK
        LOCFRAME IOVERLAY, 0, STATIC
        LOCFRAME DOVERLAY, 0, STATIC
        ARGFRAME ISTACK, 0, STACK
        ARGFRAME PSTACK, 0, STACK
        ARGFRAME XSTACK, 19, STACK
        ARGFRAME IOVERLAY, 0, STATIC
        ARGFRAME DOVERLAY, 0, STATIC
        FUNCALL GenericApp_HandleKeys, ZDP_EndDeviceBindReq
        LOCFRAME ISTACK, 0, STACK
        LOCFRAME PSTACK, 0, STACK
        LOCFRAME XSTACK, 28, STACK
        LOCFRAME IOVERLAY, 0, STATIC
        LOCFRAME DOVERLAY, 0, STATIC
        ARGFRAME ISTACK, 0, STACK
        ARGFRAME PSTACK, 0, STACK
        ARGFRAME XSTACK, 28, STACK
        ARGFRAME IOVERLAY, 0, STATIC
        ARGFRAME DOVERLAY, 0, STATIC
        FUNCALL GenericApp_HandleKeys, uart0_puts
        LOCFRAME ISTACK, 0, STACK
        LOCFRAME PSTACK, 0, STACK
        LOCFRAME XSTACK, 19, STACK
        LOCFRAME IOVERLAY, 0, STATIC
        LOCFRAME DOVERLAY, 0, STATIC
        ARGFRAME ISTACK, 0, STACK
        ARGFRAME PSTACK, 0, STACK
        ARGFRAME XSTACK, 19, STACK
        ARGFRAME IOVERLAY, 0, STATIC
        ARGFRAME DOVERLAY, 0, STATIC
        FUNCALL GenericApp_HandleKeys, uart0_puts
        LOCFRAME ISTACK, 0, STACK
        LOCFRAME PSTACK, 0, STACK
        LOCFRAME XSTACK, 19, STACK
        LOCFRAME IOVERLAY, 0, STATIC
        LOCFRAME DOVERLAY, 0, STATIC
        ARGFRAME ISTACK, 0, STACK
        ARGFRAME PSTACK, 0, STACK
        ARGFRAME XSTACK, 19, STACK
        ARGFRAME IOVERLAY, 0, STATIC
        ARGFRAME DOVERLAY, 0, STATIC
        FUNCALL GenericApp_HandleKeys, HalLedSet
        LOCFRAME ISTACK, 0, STACK
        LOCFRAME PSTACK, 0, STACK
        LOCFRAME XSTACK, 19, STACK
        LOCFRAME IOVERLAY, 0, STATIC
        LOCFRAME DOVERLAY, 0, STATIC
        ARGFRAME ISTACK, 0, STACK
        ARGFRAME PSTACK, 0, STACK
        ARGFRAME XSTACK, 19, STACK
        ARGFRAME IOVERLAY, 0, STATIC
        ARGFRAME DOVERLAY, 0, STATIC
        FUNCALL GenericApp_HandleKeys, ZDP_MatchDescReq
        LOCFRAME ISTACK, 0, STACK
        LOCFRAME PSTACK, 0, STACK
        LOCFRAME XSTACK, 27, STACK
        LOCFRAME IOVERLAY, 0, STATIC
        LOCFRAME DOVERLAY, 0, STATIC
        ARGFRAME ISTACK, 0, STACK
        ARGFRAME PSTACK, 0, STACK
        ARGFRAME XSTACK, 27, STACK
        ARGFRAME IOVERLAY, 0, STATIC
        ARGFRAME DOVERLAY, 0, STATIC
        MOV     A,#-0xa
        LCALL   ?BANKED_ENTER_XDATA
        CFI DPH0 load(1, XDATA, add(CFA_XSP16, literal(-1)))
        CFI DPL0 load(1, XDATA, add(CFA_XSP16, literal(-2)))
        CFI ?BRET_EXT load(1, XDATA, add(CFA_XSP16, literal(-3)))
        CFI ?RET_HIGH load(1, XDATA, add(CFA_XSP16, literal(-4)))
        CFI ?RET_LOW load(1, XDATA, add(CFA_XSP16, literal(-5)))
        CFI R7 load(1, XDATA, add(CFA_XSP16, literal(-6)))
        CFI V1 load(1, XDATA, add(CFA_XSP16, literal(-7)))
        CFI V0 load(1, XDATA, add(CFA_XSP16, literal(-8)))
        CFI VB load(1, XDATA, add(CFA_XSP16, literal(-9)))
        CFI R6 load(1, XDATA, add(CFA_XSP16, literal(-10)))
        CFI CFA_SP SP+0
        CFI CFA_XSP16 add(XSP16, 10)
        ; Saved register size: 10
        ; Auto size: 9
        MOV     A,#-0x9
        LCALL   ?ALLOC_XSTACK8
        CFI CFA_XSP16 add(XSP16, 19)
        MOV     A,R2
        MOV     R6,A
//  514   zAddrType_t dstAddr;
//  515 
//  516   // Shift is used to make each button/switch dual purpose.
//  517   if ( shift )
        MOV     A,R1
        JZ      $+5
        LJMP    ??GenericApp_HandleKeys_0 & 0xFFFF
//  518   {
//  519     if ( keys & HAL_KEY_SW_1 )
//  520     {
//  521     }
//  522     if ( keys & HAL_KEY_SW_2 )
//  523     {
//  524     }
//  525     if ( keys & HAL_KEY_SW_3 )
//  526     {
//  527     }
//  528     if ( keys & HAL_KEY_SW_4 )
//  529     {
//  530     }
//  531   }
//  532   else
//  533   {
//  534     if ( keys & HAL_KEY_SW_1 )
        MOV     A,R6
        MOV     C,0xE0 /* A   */.0
        JNC     ??GenericApp_HandleKeys_1
//  535     {
//  536 #if _m_debug
//  537       uart0_puts("hal sw1 pressed!\r\n",strlen("hal sw1 pressed!\r\n"));
        ; Setup parameters for call to function uart0_puts
        MOV     R4,#0x12
        MOV     R5,#0x0
        MOV     R2,#(`?<Constant "hal sw1 pressed!\\r\\n">` & 0xff)
        MOV     R3,#((`?<Constant "hal sw1 pressed!\\r\\n">` >> 8) & 0xff)
        LCALL   ??uart0_puts?relay
//  538 #endif
//  539     }
//  540 
//  541     if ( keys & HAL_KEY_SW_2 )
??GenericApp_HandleKeys_1:
        MOV     A,R6
        MOV     C,0xE0 /* A   */.1
        JNC     ??GenericApp_HandleKeys_2
//  542     {
//  543       //xiaoyang add
//  544 #if _m_debug
//  545       uart0_puts("hal sw2 pressed!\r\n",strlen("hal sw2 pressed!\r\n"));
        ; Setup parameters for call to function uart0_puts
        MOV     R4,#0x12
        MOV     R5,#0x0
        MOV     R2,#(`?<Constant "hal sw2 pressed!\\r\\n">` & 0xff)
        MOV     R3,#((`?<Constant "hal sw2 pressed!\\r\\n">` >> 8) & 0xff)
        LCALL   ?Subroutine0 & 0xFFFF
//  546 #endif
//  547       HalLedSet ( HAL_LED_4, HAL_LED_MODE_OFF );
//  548 
//  549       // Initiate an End Device Bind Request for the mandatory endpoint
//  550       dstAddr.addrMode = Addr16Bit;
??CrossCallReturnLabel_0:
        LCALL   ?XSTACK_DISP0_8
        MOV     A,#0x2
        MOVX    @DPTR,A
//  551       dstAddr.addr.shortAddr = 0x0000; // Coordinator
        MOV     DPL,?XSP + 0
        MOV     DPH,?XSP + 1
        CLR     A
        MOVX    @DPTR,A
        INC     DPTR
        MOVX    @DPTR,A
//  552       ZDP_EndDeviceBindReq( &dstAddr, NLME_GetShortAddr(),
//  553                             GenericApp_epDesc.endPoint,
//  554                             GENERICAPP_PROFID,
//  555                             GENERICAPP_MAX_CLUSTERS, (cId_t *)GenericApp_ClusterList,
//  556                             GENERICAPP_MAX_CLUSTERS, (cId_t *)GenericApp_ClusterList,
//  557                             FALSE );
        ; Setup parameters for call to function NLME_GetShortAddr
        LCALL   ??NLME_GetShortAddr?relay
        MOV     ?V0 + 0,R2
        MOV     ?V0 + 1,R3
        MOV     R4,?V0 + 0
        MOV     R5,?V0 + 1
        ; Setup parameters for call to function ZDP_EndDeviceBindReq
        MOV     ?V0 + 0,#0x0
        MOV     R0,#?V0 + 0
        LCALL   ?PUSH_XSTACK_I_ONE
        CFI CFA_XSP16 add(XSP16, 20)
        MOV     ?V0 + 0,#(GenericApp_ClusterList & 0xff)
        MOV     ?V0 + 1,#((GenericApp_ClusterList >> 8) & 0xff)
        MOV     R0,#?V0 + 0
        LCALL   ?PUSH_XSTACK_I_TWO
        CFI CFA_XSP16 add(XSP16, 22)
        MOV     ?V0 + 0,#0x1
        MOV     R0,#?V0 + 0
        LCALL   ?PUSH_XSTACK_I_ONE
        CFI CFA_XSP16 add(XSP16, 23)
        MOV     ?V0 + 0,#(GenericApp_ClusterList & 0xff)
        MOV     R0,#?V0 + 0
        LCALL   ?PUSH_XSTACK_I_TWO
        CFI CFA_XSP16 add(XSP16, 25)
        MOV     ?V0 + 0,#0x1
        MOV     R0,#?V0 + 0
        LCALL   ?PUSH_XSTACK_I_ONE
        CFI CFA_XSP16 add(XSP16, 26)
        MOV     ?V0 + 0,#0x4
        MOV     ?V0 + 1,#0xf
        MOV     R0,#?V0 + 0
        LCALL   ?PUSH_XSTACK_I_TWO
        CFI CFA_XSP16 add(XSP16, 28)
        MOV     DPTR,#GenericApp_epDesc
        MOVX    A,@DPTR
        MOV     R1,A
        MOV     A,#0x9
        LCALL   ?XSTACK_DISP0_8
        MOV     R2,DPL
        MOV     R3,DPH
        LCALL   ??ZDP_EndDeviceBindReq?relay
        MOV     A,#0x9
        LCALL   ?DEALLOC_XSTACK8
        CFI CFA_XSP16 add(XSP16, 19)
//  558     }
//  559     
//  560     //导航按键像下按
//  561     if ( keys & HAL_KEY_SW_3 )
??GenericApp_HandleKeys_2:
        MOV     A,R6
        MOV     C,0xE0 /* A   */.4
        JNC     ??GenericApp_HandleKeys_3
//  562     {
//  563 #if _m_debug
//  564       
//  565       char buf[65]="";
//  566       uint16 len = 0;
//  567       uart0_puts("[[hal sw3 pressed\n",strlen("[[hal sw3 pressed\n")+1);
        ; Setup parameters for call to function uart0_puts
        MOV     R4,#0x13
        MOV     R5,#0x0
        MOV     R2,#(`?<Constant "[[hal sw3 pressed\\n">` & 0xff)
        MOV     R3,#((`?<Constant "[[hal sw3 pressed\\n">` >> 8) & 0xff)
        LCALL   ??uart0_puts?relay
//  568       //len = uart0_getString (buf,64);
//  569       //HalUARTRead(0,buf, 64);
//  570       //buf[65] = '\0';
//  571       //HalUARTWrite(0,buf,strlen(buf));
//  572       
//  573       //启动任务
//  574       //osal_start_timerEx (data_trans_TaskID, 5, 250); //250ms后执行data_trans_process
//  575 #endif
//  576     }
//  577 
//  578     //导航按键向左按
//  579     if ( keys & HAL_KEY_SW_4 )
??GenericApp_HandleKeys_3:
        MOV     A,R6
        MOV     C,0xE0 /* A   */.3
        JNC     ??GenericApp_HandleKeys_0
//  580     {
//  581 #if _m_debug
//  582       uart0_puts("hal sw4 pressed!\n\r\n",strlen("hal sw4 pressed!\n\r\n"));
        ; Setup parameters for call to function uart0_puts
        MOV     R4,#0x13
        MOV     R5,#0x0
        MOV     R2,#(`?<Constant "hal sw4 pressed!\\n\\r\\n">` & 0xff)
        MOV     R3,#((`?<Constant "hal sw4 pressed!\\n\\r\\n">` >> 8) & 0xff)
        LCALL   ?Subroutine0 & 0xFFFF
//  583 #endif
//  584       HalLedSet ( HAL_LED_4, HAL_LED_MODE_OFF );
//  585 
//  586       // Initiate a Match Description Request (Service Discovery)
//  587       dstAddr.addrMode = AddrBroadcast;
??CrossCallReturnLabel_1:
        LCALL   ?XSTACK_DISP0_8
        MOV     A,#0xf
        MOVX    @DPTR,A
//  588       dstAddr.addr.shortAddr = NWK_BROADCAST_SHORTADDR;
        MOV     DPL,?XSP + 0
        MOV     DPH,?XSP + 1
        MOV     A,#-0x1
        MOVX    @DPTR,A
        INC     DPTR
        MOVX    @DPTR,A
//  589       ZDP_MatchDescReq( &dstAddr, NWK_BROADCAST_SHORTADDR,
//  590                         GENERICAPP_PROFID,
//  591                         GENERICAPP_MAX_CLUSTERS, (cId_t *)GenericApp_ClusterList,
//  592                         GENERICAPP_MAX_CLUSTERS, (cId_t *)GenericApp_ClusterList,
//  593                         FALSE );
        ; Setup parameters for call to function ZDP_MatchDescReq
        MOV     ?V0 + 0,#0x0
        MOV     R0,#?V0 + 0
        LCALL   ?PUSH_XSTACK_I_ONE
        CFI CFA_XSP16 add(XSP16, 20)
        MOV     ?V0 + 0,#(GenericApp_ClusterList & 0xff)
        MOV     ?V0 + 1,#((GenericApp_ClusterList >> 8) & 0xff)
        MOV     R0,#?V0 + 0
        LCALL   ?PUSH_XSTACK_I_TWO
        CFI CFA_XSP16 add(XSP16, 22)
        MOV     ?V0 + 0,#0x1
        MOV     R0,#?V0 + 0
        LCALL   ?PUSH_XSTACK_I_ONE
        CFI CFA_XSP16 add(XSP16, 23)
        MOV     ?V0 + 0,#(GenericApp_ClusterList & 0xff)
        MOV     R0,#?V0 + 0
        LCALL   ?PUSH_XSTACK_I_TWO
        CFI CFA_XSP16 add(XSP16, 25)
        MOV     ?V0 + 0,#0x4
        MOV     ?V0 + 1,#0xf
        MOV     R0,#?V0 + 0
        LCALL   ?PUSH_XSTACK_I_TWO
        CFI CFA_XSP16 add(XSP16, 27)
        MOV     R1,#0x1
        MOV     R4,#-0x1
        MOV     R5,#-0x1
        MOV     A,#0x8
        LCALL   ?XSTACK_DISP0_8
        MOV     R2,DPL
        MOV     R3,DPH
        LCALL   ??ZDP_MatchDescReq?relay
        MOV     A,#0x8
        LCALL   ?DEALLOC_XSTACK8
        CFI CFA_XSP16 add(XSP16, 19)
//  594     }
//  595   }
//  596 }
??GenericApp_HandleKeys_0:
        MOV     A,#0x9
        LJMP    ?Subroutine6 & 0xFFFF
        CFI EndBlock cfiBlock6

        RSEG BANKED_CODE:CODE:NOROOT(0)
?Subroutine0:
        CFI Block cfiCond7 Using cfiCommon0
        CFI NoFunction
        CFI Conditional ??CrossCallReturnLabel_0
        CFI R6 load(1, XDATA, add(CFA_XSP16, literal(-10)))
        CFI VB load(1, XDATA, add(CFA_XSP16, literal(-9)))
        CFI V0 load(1, XDATA, add(CFA_XSP16, literal(-8)))
        CFI V1 load(1, XDATA, add(CFA_XSP16, literal(-7)))
        CFI R7 load(1, XDATA, add(CFA_XSP16, literal(-6)))
        CFI ?RET_LOW load(1, XDATA, add(CFA_XSP16, literal(-5)))
        CFI ?RET_HIGH load(1, XDATA, add(CFA_XSP16, literal(-4)))
        CFI ?BRET_EXT load(1, XDATA, add(CFA_XSP16, literal(-3)))
        CFI DPL0 load(1, XDATA, add(CFA_XSP16, literal(-2)))
        CFI DPH0 load(1, XDATA, add(CFA_XSP16, literal(-1)))
        CFI CFA_SP SP+0
        CFI CFA_XSP16 add(XSP16, 19)
        CFI Block cfiCond8 Using cfiCommon0
        CFI (cfiCond8) NoFunction
        CFI (cfiCond8) Conditional ??CrossCallReturnLabel_1
        CFI (cfiCond8) R6 load(1, XDATA, add(CFA_XSP16, literal(-10)))
        CFI (cfiCond8) VB load(1, XDATA, add(CFA_XSP16, literal(-9)))
        CFI (cfiCond8) V0 load(1, XDATA, add(CFA_XSP16, literal(-8)))
        CFI (cfiCond8) V1 load(1, XDATA, add(CFA_XSP16, literal(-7)))
        CFI (cfiCond8) R7 load(1, XDATA, add(CFA_XSP16, literal(-6)))
        CFI (cfiCond8) ?RET_LOW load(1, XDATA, add(CFA_XSP16, literal(-5)))
        CFI (cfiCond8) ?RET_HIGH load(1, XDATA, add(CFA_XSP16, literal(-4)))
        CFI (cfiCond8) ?BRET_EXT load(1, XDATA, add(CFA_XSP16, literal(-3)))
        CFI (cfiCond8) DPL0 load(1, XDATA, add(CFA_XSP16, literal(-2)))
        CFI (cfiCond8) DPH0 load(1, XDATA, add(CFA_XSP16, literal(-1)))
        CFI (cfiCond8) CFA_SP SP+0
        CFI (cfiCond8) CFA_XSP16 add(XSP16, 19)
        CFI Block cfiPicker9 Using cfiCommon1
        CFI (cfiPicker9) NoFunction
        CFI (cfiPicker9) Picker
        LCALL   ??uart0_puts?relay
        ; Setup parameters for call to function HalLedSet
        ; Setup parameters for call to function HalLedSet
        MOV     R2,#0x0
        MOV     R1,#0x8
        LCALL   ??HalLedSet?relay
        MOV     A,#0x8
        RET
        CFI EndBlock cfiCond7
        CFI EndBlock cfiCond8
        CFI EndBlock cfiPicker9
//  597 
//  598 /*********************************************************************
//  599  * LOCAL FUNCTIONS
//  600  */
//  601 
//  602 /*********************************************************************
//  603  * @fn      GenericApp_MessageMSGCB
//  604  *
//  605  * @brief   Data message processor callback.  This function processes
//  606  *          any incoming data - probably from other devices.  So, based
//  607  *          on cluster ID, perform the intended action.
//  608  *
//  609  * @param   none
//  610  *
//  611  * @return  none
//  612  */

        RSEG BANKED_CODE:CODE:NOROOT(0)
//  613 void GenericApp_MessageMSGCB( afIncomingMSGPacket_t *pkt )
GenericApp_MessageMSGCB:
        CFI Block cfiBlock10 Using cfiCommon0
        CFI Function GenericApp_MessageMSGCB
//  614 {
        FUNCALL GenericApp_MessageMSGCB, HalLcdWriteScreen
        LOCFRAME ISTACK, 0, STACK
        LOCFRAME PSTACK, 0, STACK
        LOCFRAME XSTACK, 10, STACK
        LOCFRAME IOVERLAY, 0, STATIC
        LOCFRAME DOVERLAY, 0, STATIC
        ARGFRAME ISTACK, 0, STACK
        ARGFRAME PSTACK, 0, STACK
        ARGFRAME XSTACK, 10, STACK
        ARGFRAME IOVERLAY, 0, STATIC
        ARGFRAME DOVERLAY, 0, STATIC
        MOV     A,#-0xa
        LCALL   ?BANKED_ENTER_XDATA
        CFI DPH0 load(1, XDATA, add(CFA_XSP16, literal(-1)))
        CFI DPL0 load(1, XDATA, add(CFA_XSP16, literal(-2)))
        CFI ?BRET_EXT load(1, XDATA, add(CFA_XSP16, literal(-3)))
        CFI ?RET_HIGH load(1, XDATA, add(CFA_XSP16, literal(-4)))
        CFI ?RET_LOW load(1, XDATA, add(CFA_XSP16, literal(-5)))
        CFI R7 load(1, XDATA, add(CFA_XSP16, literal(-6)))
        CFI V1 load(1, XDATA, add(CFA_XSP16, literal(-7)))
        CFI V0 load(1, XDATA, add(CFA_XSP16, literal(-8)))
        CFI VB load(1, XDATA, add(CFA_XSP16, literal(-9)))
        CFI R6 load(1, XDATA, add(CFA_XSP16, literal(-10)))
        CFI CFA_SP SP+0
        CFI CFA_XSP16 add(XSP16, 10)
        ; Saved register size: 10
        ; Auto size: 0
//  615   switch ( pkt->clusterId )
        MOV     DPL,R2
        MOV     DPH,R3
        INC     DPTR
        INC     DPTR
        INC     DPTR
        INC     DPTR
        LCALL   ?Subroutine1 & 0xFFFF
??CrossCallReturnLabel_3:
        LCALL   ?US_SWITCH_DENSE
`?<Jumptable for GenericApp_MessageMSGCB>_0`:
        DATA
        DW        1
        DB        0
        DW        ??GenericApp_MessageMSGCB_0
        DW        ??GenericApp_MessageMSGCB_1
        CODE
//  616   {
//  617     case GENERICAPP_CLUSTERID:
//  618       // "the" message
//  619 #if defined( LCD_SUPPORTED )
//  620       HalLcdWriteScreen( (char*)pkt->cmd.Data, "rcvd" );
??GenericApp_MessageMSGCB_1:
        ; Setup parameters for call to function HalLcdWriteScreen
        MOV     R4,#(`?<Constant "rcvd">` & 0xff)
        MOV     R5,#((`?<Constant "rcvd">` >> 8) & 0xff)
        MOV     A,R2
        ADD     A,#0x15
        MOV     DPL,A
        MOV     A,R3
        ADDC    A,#0x0
        MOV     DPH,A
        MOVX    A,@DPTR
        MOV     R2,A
        INC     DPTR
        MOVX    A,@DPTR
        MOV     R3,A
        LCALL   ??HalLcdWriteScreen?relay
//  621 #elif defined( WIN32 )
//  622       WPRINTSTR( pkt->cmd.Data );
//  623 #endif
//  624       break;
//  625   }
//  626 }
??GenericApp_MessageMSGCB_0:
        LJMP    ??Subroutine6_0 & 0xFFFF
        CFI EndBlock cfiBlock10

        RSEG BANKED_CODE:CODE:NOROOT(0)
?Subroutine1:
        CFI Block cfiCond11 Using cfiCommon0
        CFI NoFunction
        CFI Conditional ??CrossCallReturnLabel_2
        CFI R6 load(1, XDATA, add(CFA_XSP16, literal(-10)))
        CFI VB load(1, XDATA, add(CFA_XSP16, literal(-9)))
        CFI V0 load(1, XDATA, add(CFA_XSP16, literal(-8)))
        CFI V1 load(1, XDATA, add(CFA_XSP16, literal(-7)))
        CFI R7 load(1, XDATA, add(CFA_XSP16, literal(-6)))
        CFI ?RET_LOW load(1, XDATA, add(CFA_XSP16, literal(-5)))
        CFI ?RET_HIGH load(1, XDATA, add(CFA_XSP16, literal(-4)))
        CFI ?BRET_EXT load(1, XDATA, add(CFA_XSP16, literal(-3)))
        CFI DPL0 load(1, XDATA, add(CFA_XSP16, literal(-2)))
        CFI DPH0 load(1, XDATA, add(CFA_XSP16, literal(-1)))
        CFI CFA_SP SP+0
        CFI CFA_XSP16 add(XSP16, 10)
        CFI Block cfiCond12 Using cfiCommon0
        CFI (cfiCond12) NoFunction
        CFI (cfiCond12) Conditional ??CrossCallReturnLabel_3
        CFI (cfiCond12) R6 load(1, XDATA, add(CFA_XSP16, literal(-10)))
        CFI (cfiCond12) VB load(1, XDATA, add(CFA_XSP16, literal(-9)))
        CFI (cfiCond12) V0 load(1, XDATA, add(CFA_XSP16, literal(-8)))
        CFI (cfiCond12) V1 load(1, XDATA, add(CFA_XSP16, literal(-7)))
        CFI (cfiCond12) R7 load(1, XDATA, add(CFA_XSP16, literal(-6)))
        CFI (cfiCond12) ?RET_LOW load(1, XDATA, add(CFA_XSP16, literal(-5)))
        CFI (cfiCond12) ?RET_HIGH load(1, XDATA, add(CFA_XSP16, literal(-4)))
        CFI (cfiCond12) ?BRET_EXT load(1, XDATA, add(CFA_XSP16, literal(-3)))
        CFI (cfiCond12) DPL0 load(1, XDATA, add(CFA_XSP16, literal(-2)))
        CFI (cfiCond12) DPH0 load(1, XDATA, add(CFA_XSP16, literal(-1)))
        CFI (cfiCond12) CFA_SP SP+0
        CFI (cfiCond12) CFA_XSP16 add(XSP16, 10)
        CFI Block cfiPicker13 Using cfiCommon1
        CFI (cfiPicker13) NoFunction
        CFI (cfiPicker13) Picker
        MOVX    A,@DPTR
        MOV     ?V0 + 0,A
        INC     DPTR
        MOVX    A,@DPTR
        MOV     ?V0 + 1,A
        MOV     R0,#?V0 + 0
        RET
        CFI EndBlock cfiCond11
        CFI EndBlock cfiCond12
        CFI EndBlock cfiPicker13
//  627 
//  628 /*********************************************************************
//  629  * @fn      GenericApp_SendTheMessage
//  630  *
//  631  * @brief   Send "the" message.
//  632  *
//  633  * @param   none
//  634  *
//  635  * @return  none
//  636  */

        RSEG BANKED_CODE:CODE:NOROOT(0)
//  637 void GenericApp_SendTheMessage( void )
GenericApp_SendTheMessage:
        CFI Block cfiBlock14 Using cfiCommon0
        CFI Function GenericApp_SendTheMessage
//  638 {
        FUNCALL GenericApp_SendTheMessage, osal_strlen
        LOCFRAME ISTACK, 0, STACK
        LOCFRAME PSTACK, 0, STACK
        LOCFRAME XSTACK, 27, STACK
        LOCFRAME IOVERLAY, 0, STATIC
        LOCFRAME DOVERLAY, 0, STATIC
        ARGFRAME ISTACK, 0, STACK
        ARGFRAME PSTACK, 0, STACK
        ARGFRAME XSTACK, 27, STACK
        ARGFRAME IOVERLAY, 0, STATIC
        ARGFRAME DOVERLAY, 0, STATIC
        FUNCALL GenericApp_SendTheMessage, AF_DataRequest
        LOCFRAME ISTACK, 0, STACK
        LOCFRAME PSTACK, 0, STACK
        LOCFRAME XSTACK, 31, STACK
        LOCFRAME IOVERLAY, 0, STATIC
        LOCFRAME DOVERLAY, 0, STATIC
        ARGFRAME ISTACK, 0, STACK
        ARGFRAME PSTACK, 0, STACK
        ARGFRAME XSTACK, 31, STACK
        ARGFRAME IOVERLAY, 0, STATIC
        ARGFRAME DOVERLAY, 0, STATIC
        MOV     A,#-0xa
        LCALL   ?BANKED_ENTER_XDATA
        CFI DPH0 load(1, XDATA, add(CFA_XSP16, literal(-1)))
        CFI DPL0 load(1, XDATA, add(CFA_XSP16, literal(-2)))
        CFI ?BRET_EXT load(1, XDATA, add(CFA_XSP16, literal(-3)))
        CFI ?RET_HIGH load(1, XDATA, add(CFA_XSP16, literal(-4)))
        CFI ?RET_LOW load(1, XDATA, add(CFA_XSP16, literal(-5)))
        CFI R7 load(1, XDATA, add(CFA_XSP16, literal(-6)))
        CFI V1 load(1, XDATA, add(CFA_XSP16, literal(-7)))
        CFI V0 load(1, XDATA, add(CFA_XSP16, literal(-8)))
        CFI VB load(1, XDATA, add(CFA_XSP16, literal(-9)))
        CFI R6 load(1, XDATA, add(CFA_XSP16, literal(-10)))
        CFI CFA_SP SP+0
        CFI CFA_XSP16 add(XSP16, 10)
        ; Saved register size: 10
        ; Auto size: 12
        MOV     A,#-0xc
        LCALL   ?ALLOC_XSTACK8
        CFI CFA_XSP16 add(XSP16, 22)
//  639   char theMessageData[] = "Hello World";
        MOV     DPL,?XSP + 0
        MOV     DPH,?XSP + 1
        MOV     R4,DPL
        MOV     R5,DPH
        MOV     DPH,#((`?<Constant "Hello World">` >> 8) & 0xff)
        MOV     DPL,#(`?<Constant "Hello World">` & 0xff)
        MOV     A,#0xc
        LCALL   ?MOVE_LONG8_XDATA_XDATA
//  640 
//  641   if ( AF_DataRequest( &GenericApp_DstAddr, &GenericApp_epDesc,
//  642                        GENERICAPP_CLUSTERID,
//  643                        (byte)osal_strlen( theMessageData ) + 1,
//  644                        (byte *)&theMessageData,
//  645                        &GenericApp_TransID,
//  646                        AF_DISCV_ROUTE, AF_DEFAULT_RADIUS ) == afStatus_SUCCESS )
        ; Setup parameters for call to function AF_DataRequest
        MOV     ?V0 + 0,#0xa
        MOV     R0,#?V0 + 0
        LCALL   ?PUSH_XSTACK_I_ONE
        CFI CFA_XSP16 add(XSP16, 23)
        MOV     ?V0 + 0,#(GenericApp_TransID & 0xff)
        MOV     ?V0 + 1,#((GenericApp_TransID >> 8) & 0xff)
        MOV     R0,#?V0 + 0
        LCALL   ?PUSH_XSTACK_I_TWO
        CFI CFA_XSP16 add(XSP16, 25)
        MOV     A,#0x3
        LCALL   ?XSTACK_DISP0_8
        MOV     ?V0 + 0,DPL
        MOV     ?V0 + 1,DPH
        MOV     R0,#?V0 + 0
        LCALL   ?PUSH_XSTACK_I_TWO
        CFI CFA_XSP16 add(XSP16, 27)
        ; Setup parameters for call to function osal_strlen
        MOV     A,#0x5
        LCALL   ?XSTACK_DISP0_8
        MOV     R2,DPL
        MOV     R3,DPH
        LCALL   ??osal_strlen?relay
        MOV     A,R2
        MOV     R0,A
        MOV     A,#0x1
        ADD     A,R0
        MOV     ?V0 + 0,A
        CLR     A
        ADDC    A,#0x0
        MOV     ?V0 + 1,A
        MOV     R0,#?V0 + 0
        LCALL   ?PUSH_XSTACK_I_TWO
        CFI CFA_XSP16 add(XSP16, 29)
        MOV     ?V0 + 0,#0x1
        MOV     ?V0 + 1,#0x0
        MOV     R0,#?V0 + 0
        LCALL   ?PUSH_XSTACK_I_TWO
        CFI CFA_XSP16 add(XSP16, 31)
        MOV     R1,#0x20
        MOV     R4,#(GenericApp_epDesc & 0xff)
        MOV     R5,#((GenericApp_epDesc >> 8) & 0xff)
        MOV     R2,#(GenericApp_DstAddr & 0xff)
        MOV     R3,#((GenericApp_DstAddr >> 8) & 0xff)
        LCALL   ??AF_DataRequest?relay
        MOV     A,#0x9
        LCALL   ?DEALLOC_XSTACK8
        CFI CFA_XSP16 add(XSP16, 22)
//  647   {
//  648     // Successfully requested to be sent.
//  649   }
//  650   else
//  651   {
//  652     // Error occurred in request to send.
//  653   }
//  654 }
        MOV     A,#0xc
        LJMP    ?Subroutine6 & 0xFFFF
        CFI EndBlock cfiBlock14
//  655 
//  656 /*********************************************************************
//  657 *********************************************************************/
//  658 /*********************************************************************
//  659  * TYPEDEFS
//  660  */
//  661 #ifndef UART0_GET_STR
//  662 #define UART0_GET_STR   1
//  663 typedef struct
//  664 {
//  665   uint8 *rxBuf;
//  666   uint8 rxHead;
//  667   uint8 rxTail;
//  668   uint8 rxMax;
//  669   uint8 rxCnt;
//  670   uint8 rxTick;
//  671   uint8 rxHigh;
//  672 
//  673   uint8 *txBuf;
//  674 #if HAL_UART_BIG_TX_BUF
//  675   uint16 txHead;
//  676   uint16 txTail;
//  677   uint16 txMax;
//  678   uint16 txCnt;
//  679 #else
//  680   uint8 txHead;
//  681   uint8 txTail;
//  682   uint8 txMax;
//  683   uint8 txCnt;
//  684 #endif
//  685   uint8 txTick;
//  686 
//  687   uint8 flag;
//  688 
//  689   halUARTCBack_t rxCB;
//  690 } uartCfg_t;
//  691 
//  692 #if ( HAL_UART_DEBUG )
//  693   #define HAL_UART_ASSERT( expr)        HAL_ASSERT( expr )
//  694 #else
//  695   #define HAL_UART_ASSERT( expr )
//  696 #endif
//  697 
//  698 #define UART_CFG_U1F  0x80  // USART1 flag bit.
//  699 #define UART_CFG_DMA  0x40  // Port is using DMA.
//  700 #define UART_CFG_FLW  0x20  // Port is using flow control.
//  701 #define UART_CFG_SP4  0x10
//  702 #define UART_CFG_SP3  0x08
//  703 #define UART_CFG_SP2  0x04
//  704 #define UART_CFG_RXF  0x02  // Rx flow is disabled.
//  705 #define UART_CFG_TXF  0x01  // Tx is in process.
//  706 
//  707 extern uartCfg_t *cfg0;
//  708 /*xiaoyang added*/

        RSEG BANKED_CODE:CODE:NOROOT(0)
//  709 uint16 uart0_getString(char* buf,uint16 max_len)
uart0_getString:
        CFI Block cfiBlock15 Using cfiCommon0
        CFI Function uart0_getString
//  710 {
        MOV     A,#-0xd
        LCALL   ?BANKED_ENTER_XDATA
        CFI DPH0 load(1, XDATA, add(CFA_XSP16, literal(-1)))
        CFI DPL0 load(1, XDATA, add(CFA_XSP16, literal(-2)))
        CFI ?BRET_EXT load(1, XDATA, add(CFA_XSP16, literal(-3)))
        CFI ?RET_HIGH load(1, XDATA, add(CFA_XSP16, literal(-4)))
        CFI ?RET_LOW load(1, XDATA, add(CFA_XSP16, literal(-5)))
        CFI R7 load(1, XDATA, add(CFA_XSP16, literal(-6)))
        CFI V4 load(1, XDATA, add(CFA_XSP16, literal(-7)))
        CFI V3 load(1, XDATA, add(CFA_XSP16, literal(-8)))
        CFI V2 load(1, XDATA, add(CFA_XSP16, literal(-9)))
        CFI V1 load(1, XDATA, add(CFA_XSP16, literal(-10)))
        CFI V0 load(1, XDATA, add(CFA_XSP16, literal(-11)))
        CFI VB load(1, XDATA, add(CFA_XSP16, literal(-12)))
        CFI R6 load(1, XDATA, add(CFA_XSP16, literal(-13)))
        CFI CFA_SP SP+0
        CFI CFA_XSP16 add(XSP16, 13)
        ; Saved register size: 13
        ; Auto size: 0
        MOV     A,R4
        MOV     R6,A
        MOV     A,R5
        MOV     R7,A
//  711   //uint16 HalUARTRead( uint8 port, uint8 *buf, uint16 len );
//  712   uartCfg_t *cfg = NULL;
//  713   uint16 cnt = 0;
        MOV     R0,#0x0
        MOV     R1,#0x0
//  714 
//  715   cfg = cfg0;
        MOV     DPTR,#cfg0
        MOVX    A,@DPTR
        MOV     R4,A
        INC     DPTR
        MOVX    A,@DPTR
        MOV     R5,A
        SJMP    ??uart0_getString_0
//  716   HAL_UART_ASSERT( cfg );
//  717   while ( (cfg->rxTail != cfg->rxHead) &&(cnt < max_len) )
//  718   {
//  719     *buf = cfg->rxBuf[cfg->rxTail];
//  720     if ( cfg->rxTail == cfg->rxMax )
//  721     {
//  722       cfg->rxTail = 0;
//  723     }
//  724     else
//  725     {
//  726       cfg->rxTail++;
//  727     }
//  728     //xiaoyang add
//  729     if(*buf == '\0'){
//  730         buf++;
//  731         *buf ='\0' ;
//  732         return cnt;
//  733     }
//  734     buf++;
??uart0_getString_1:
        INC     DPTR
        MOV     R2,DPL
        MOV     R3,DPH
//  735     cnt++;
        MOV     A,R0
        ADD     A,#0x1
        INC     R0
        MOV     A,R1
        ADDC    A,#0x0
        MOV     R1,A
??uart0_getString_0:
        MOV     DPL,R4
        MOV     DPH,R5
        INC     DPTR
        INC     DPTR
        INC     DPTR
        LCALL   ?Subroutine2 & 0xFFFF
??CrossCallReturnLabel_4:
        MOVX    A,@DPTR
        XRL     A,?V0 + 0
        JZ      ??uart0_getString_2
        CLR     C
        MOV     A,R0
        SUBB    A,R6
        MOV     A,R1
        SUBB    A,R7
        JNC     ??uart0_getString_2
        MOV     A,R4
        ADD     A,#0x3
        MOV     ?V0 + 0,A
        MOV     A,R5
        ADDC    A,#0x0
        MOV     ?V0 + 1,A
        MOV     DPL,?V0 + 0
        MOV     DPH,A
        MOVX    A,@DPTR
        MOV     ?V0 + 2,A
        MOV     DPL,R4
        MOV     DPH,R5
        MOVX    A,@DPTR
        ADD     A,?V0 + 2
        MOV     ?V0 + 4,A
        INC     DPTR
        MOVX    A,@DPTR
        ADDC    A,#0x0
        MOV     DPL,?V0 + 4
        MOV     DPH,A
        MOVX    A,@DPTR
        MOV     DPL,R2
        MOV     DPH,R3
        MOVX    @DPTR,A
        MOV     DPL,?V0 + 0
        MOV     DPH,?V0 + 1
        LCALL   ?Subroutine2 & 0xFFFF
??CrossCallReturnLabel_5:
        INC     DPTR
        INC     DPTR
        MOVX    A,@DPTR
        XRL     A,?V0 + 0
        JNZ     ??uart0_getString_3
        CLR     A
        MOV     DPL,R4
        MOV     DPH,R5
        INC     DPTR
        INC     DPTR
        INC     DPTR
        SJMP    ??uart0_getString_4
??uart0_getString_3:
        MOV     DPL,R4
        MOV     DPH,R5
        INC     DPTR
        INC     DPTR
        INC     DPTR
        MOVX    A,@DPTR
        INC     A
??uart0_getString_4:
        MOVX    @DPTR,A
        MOV     DPL,R2
        MOV     DPH,R3
        MOVX    A,@DPTR
        JNZ     ??uart0_getString_1
        CLR     A
        INC     DPTR
        SJMP    ??uart0_getString_5
//  736   }
//  737 
//  738 #if HAL_UART_DMA
//  739   #if HAL_UART_ISR
//  740   if ( cfg->flag & UART_CFG_DMA )
//  741   #endif
//  742   {
//  743     /* If there is no flow control on a DMA-driven UART, the Rx Head & Tail
//  744      * pointers must be reset to zero after every read in order to preserve the
//  745      * full length of the Rx buffer. This implies that every Read must read all
//  746      * of the Rx bytes available, or the pointers will not be reset and the
//  747      * next incoming packet may not fit in the Rx buffer space remaining - thus
//  748      * the end portion of the incoming packet that does not fit would be lost.
//  749      */
//  750     if ( !(cfg->flag & UART_CFG_FLW) )
??uart0_getString_2:
        MOV     A,R4
        ADD     A,#0xf
        MOV     DPL,A
        MOV     A,R5
        ADDC    A,#0x0
        MOV     DPH,A
        MOVX    A,@DPTR
        MOV     C,0xE0 /* A   */.5
        JC      ??uart0_getString_6
//  751     {
//  752       // This is a trick to trigger the DMA abort and restart logic in pollDMA.
//  753       cfg->flag |= UART_CFG_RXF;
        SETB    0xE0 /* A   */.1
??uart0_getString_5:
        MOVX    @DPTR,A
//  754     }
//  755   }
//  756 #endif
//  757 
//  758   return cnt;
??uart0_getString_6:
        MOV     A,R0
        MOV     R2,A
        MOV     A,R1
        MOV     R3,A
        CFI EndBlock cfiBlock15
        REQUIRE ?Subroutine7
        ; // Fall through to label ?Subroutine7
//  759 }

        RSEG BANKED_CODE:CODE:NOROOT(0)
?Subroutine7:
        CFI Block cfiBlock16 Using cfiCommon0
        CFI NoFunction
        CFI CFA_SP SP+0
        CFI CFA_XSP16 add(XSP16, 13)
        CFI VB load(1, XDATA, add(CFA_XSP16, literal(-12)))
        CFI DPL0 load(1, XDATA, add(CFA_XSP16, literal(-2)))
        CFI DPH0 load(1, XDATA, add(CFA_XSP16, literal(-1)))
        CFI R6 load(1, XDATA, add(CFA_XSP16, literal(-13)))
        CFI R7 load(1, XDATA, add(CFA_XSP16, literal(-6)))
        CFI V0 load(1, XDATA, add(CFA_XSP16, literal(-11)))
        CFI V1 load(1, XDATA, add(CFA_XSP16, literal(-10)))
        CFI V2 load(1, XDATA, add(CFA_XSP16, literal(-9)))
        CFI V3 load(1, XDATA, add(CFA_XSP16, literal(-8)))
        CFI V4 load(1, XDATA, add(CFA_XSP16, literal(-7)))
        CFI ?BRET_EXT load(1, XDATA, add(CFA_XSP16, literal(-3)))
        CFI ?RET_HIGH load(1, XDATA, add(CFA_XSP16, literal(-4)))
        CFI ?RET_LOW load(1, XDATA, add(CFA_XSP16, literal(-5)))
        MOV     R7,#0x5
        LJMP    ?BANKED_LEAVE_XDATA
        CFI EndBlock cfiBlock16

        RSEG BANKED_CODE:CODE:NOROOT(0)
?Subroutine2:
        CFI Block cfiCond17 Using cfiCommon0
        CFI NoFunction
        CFI Conditional ??CrossCallReturnLabel_4
        CFI R6 load(1, XDATA, add(CFA_XSP16, literal(-13)))
        CFI VB load(1, XDATA, add(CFA_XSP16, literal(-12)))
        CFI V0 load(1, XDATA, add(CFA_XSP16, literal(-11)))
        CFI V1 load(1, XDATA, add(CFA_XSP16, literal(-10)))
        CFI V2 load(1, XDATA, add(CFA_XSP16, literal(-9)))
        CFI V3 load(1, XDATA, add(CFA_XSP16, literal(-8)))
        CFI V4 load(1, XDATA, add(CFA_XSP16, literal(-7)))
        CFI R7 load(1, XDATA, add(CFA_XSP16, literal(-6)))
        CFI ?RET_LOW load(1, XDATA, add(CFA_XSP16, literal(-5)))
        CFI ?RET_HIGH load(1, XDATA, add(CFA_XSP16, literal(-4)))
        CFI ?BRET_EXT load(1, XDATA, add(CFA_XSP16, literal(-3)))
        CFI DPL0 load(1, XDATA, add(CFA_XSP16, literal(-2)))
        CFI DPH0 load(1, XDATA, add(CFA_XSP16, literal(-1)))
        CFI CFA_SP SP+0
        CFI CFA_XSP16 add(XSP16, 13)
        CFI Block cfiCond18 Using cfiCommon0
        CFI (cfiCond18) NoFunction
        CFI (cfiCond18) Conditional ??CrossCallReturnLabel_5
        CFI (cfiCond18) R6 load(1, XDATA, add(CFA_XSP16, literal(-13)))
        CFI (cfiCond18) VB load(1, XDATA, add(CFA_XSP16, literal(-12)))
        CFI (cfiCond18) V0 load(1, XDATA, add(CFA_XSP16, literal(-11)))
        CFI (cfiCond18) V1 load(1, XDATA, add(CFA_XSP16, literal(-10)))
        CFI (cfiCond18) V2 load(1, XDATA, add(CFA_XSP16, literal(-9)))
        CFI (cfiCond18) V3 load(1, XDATA, add(CFA_XSP16, literal(-8)))
        CFI (cfiCond18) V4 load(1, XDATA, add(CFA_XSP16, literal(-7)))
        CFI (cfiCond18) R7 load(1, XDATA, add(CFA_XSP16, literal(-6)))
        CFI (cfiCond18) ?RET_LOW load(1, XDATA, add(CFA_XSP16, literal(-5)))
        CFI (cfiCond18) ?RET_HIGH load(1, XDATA, add(CFA_XSP16, literal(-4)))
        CFI (cfiCond18) ?BRET_EXT load(1, XDATA, add(CFA_XSP16, literal(-3)))
        CFI (cfiCond18) DPL0 load(1, XDATA, add(CFA_XSP16, literal(-2)))
        CFI (cfiCond18) DPH0 load(1, XDATA, add(CFA_XSP16, literal(-1)))
        CFI (cfiCond18) CFA_SP SP+0
        CFI (cfiCond18) CFA_XSP16 add(XSP16, 13)
        CFI Block cfiPicker19 Using cfiCommon1
        CFI (cfiPicker19) NoFunction
        CFI (cfiPicker19) Picker
        MOVX    A,@DPTR
        MOV     ?V0 + 0,A
        MOV     DPL,R4
        MOV     DPH,R5
        INC     DPTR
        INC     DPTR
        RET
        CFI EndBlock cfiCond17
        CFI EndBlock cfiCond18
        CFI EndBlock cfiPicker19
//  760 #endif
//  761 
//  762 //------------------------------------------------------------------------------
//  763 //xiaoyang add, data_trans task
//  764 //------------------------------------------------------------------------------

        RSEG BANKED_CODE:CODE:NOROOT(0)
//  765 void data_trans_Init( uint8 task_id ) //任务初始化函数
data_trans_Init:
        CFI Block cfiBlock20 Using cfiCommon0
        CFI Function data_trans_Init
//  766 {
        FUNCALL data_trans_Init, SPIMgr_RegisterTaskID
        LOCFRAME ISTACK, 2, STACK
        LOCFRAME PSTACK, 0, STACK
        LOCFRAME XSTACK, 0, STACK
        LOCFRAME IOVERLAY, 0, STATIC
        LOCFRAME DOVERLAY, 0, STATIC
        ARGFRAME ISTACK, 2, STACK
        ARGFRAME PSTACK, 0, STACK
        ARGFRAME XSTACK, 0, STACK
        ARGFRAME IOVERLAY, 0, STATIC
        ARGFRAME DOVERLAY, 0, STATIC
        PUSH    DPL
        CFI DPL0 Frame(CFA_SP, 4)
        CFI CFA_SP SP+-4
        PUSH    DPH
        CFI DPH0 Frame(CFA_SP, 5)
        CFI CFA_SP SP+-5
        ; Saved register size: 2
        ; Auto size: 0
//  767     data_trans_TaskID = task_id;//用data_trans_TaskID全局变量记住自己的任务号，
        MOV     A,R1
        MOV     DPTR,#data_trans_TaskID
        MOVX    @DPTR,A
//  768     SPIMgr_RegisterTaskID( task_id );//注册该任务为串口任务，其实就是App_TaskID = data_trans_TaskID;
        ; Setup parameters for call to function SPIMgr_RegisterTaskID
        LCALL   ??SPIMgr_RegisterTaskID?relay
//  769 }
        LJMP    ?Subroutine4 & 0xFFFF
        CFI EndBlock cfiBlock20
//  770 

        RSEG BANKED_CODE:CODE:NOROOT(0)
//  771 uint16 data_trans_process( uint8 task_id, uint16 events ) //任务处理函数
data_trans_process:
        CFI Block cfiBlock21 Using cfiCommon0
        CFI Function data_trans_process
//  772 {
        ; Saved register size: 0
        ; Auto size: 0
//  773   /*
//  774   char buf[33]="";
//  775   //在串口调试助手中你发什么就收到什么
//  776   HalUARTRead(SPI_MGR_DEFAULT_PORT,buf,32 );//读串口数据到buf
//  777   HalUARTWrite(0,buf,32);//把buf通过串口发出去
//  778 #if defined(ZAPP_P1)
//  779   SPIMgr_AppFlowControl(SPI_MGR_ZAPP_RX_READY);//恢复流，不然不能接收新数据
//  780 #endif
//  781   return 0;   
//  782   */
//  783 }
        LJMP    ?BRET
        CFI EndBlock cfiBlock21
//  784 
//  785 //------------------------------------------------------------------------------
//  786 // xiaoyang add @2011-5-25
//  787 //------------------------------------------------------------------------------
//  788 
//  789 /******************************************************************************
//  790  * CONSTANTS
//  791  */
//  792 //BUFFER buffer;
//  793 
//  794 /******************************************************************************
//  795 * @fn  initUART
//  796 *
//  797 * @brief
//  798 *      Initializes components for the UART application example.
//  799 *
//  800 * Parameters:
//  801 *
//  802 * @param  void
//  803 *
//  804 * @return void
//  805 *
//  806 ******************************************************************************/

        RSEG BANKED_CODE:CODE:NOROOT(0)
//  807 void UART_SETUP(char uart,int baudRate,char options)  
UART_SETUP:
        CFI Block cfiBlock22 Using cfiCommon0
        CFI Function UART_SETUP
//  808 {
        MOV     A,#-0xc
        LCALL   ?BANKED_ENTER_XDATA
        CFI DPH0 load(1, XDATA, add(CFA_XSP16, literal(-1)))
        CFI DPL0 load(1, XDATA, add(CFA_XSP16, literal(-2)))
        CFI ?BRET_EXT load(1, XDATA, add(CFA_XSP16, literal(-3)))
        CFI ?RET_HIGH load(1, XDATA, add(CFA_XSP16, literal(-4)))
        CFI ?RET_LOW load(1, XDATA, add(CFA_XSP16, literal(-5)))
        CFI R7 load(1, XDATA, add(CFA_XSP16, literal(-6)))
        CFI V3 load(1, XDATA, add(CFA_XSP16, literal(-7)))
        CFI V2 load(1, XDATA, add(CFA_XSP16, literal(-8)))
        CFI V1 load(1, XDATA, add(CFA_XSP16, literal(-9)))
        CFI V0 load(1, XDATA, add(CFA_XSP16, literal(-10)))
        CFI VB load(1, XDATA, add(CFA_XSP16, literal(-11)))
        CFI R6 load(1, XDATA, add(CFA_XSP16, literal(-12)))
        CFI CFA_SP SP+0
        CFI CFA_XSP16 add(XSP16, 12)
        ; Saved register size: 12
        ; Auto size: 0
//  809     if ((options) & FLOW_CONTROL_ENABLE){      
        MOV     A,R4
        MOV     C,0xE0 /* A   */.6
        MOV     A,0xf1
        JNC     ??UART_SETUP_0
//  810         if(PERCFG & 0x01){ /* Alt 2        */
        MOV     C,0xE0 /* A   */.0
        JNC     ??UART_SETUP_1
//  811            P1SEL |= 0x3C;                    
        ORL     0xf4,#0x3c
??UART_SETUP_2:
        MOV     A,0xf4
        SJMP    ??UART_SETUP_3
//  812         } else {           /* Alt 1        */
//  813            P0SEL |= 0x3C;                    
??UART_SETUP_1:
        ORL     0xf3,#0x3c
        SJMP    ??UART_SETUP_4
//  814         }                                                                         
//  815     }                                          
//  816     else{                    
//  817         if(PERCFG & 0x01){ /* Alt 2        */
??UART_SETUP_0:
        MOV     C,0xE0 /* A   */.0
        JNC     ??UART_SETUP_5
//  818            P1SEL |= 0x30;                    
        ORL     0xf4,#0x30
        SJMP    ??UART_SETUP_2
//  819         } else {           /* Alt 1        */
//  820            P0SEL |= 0x0C;                    
??UART_SETUP_5:
        ORL     0xf3,#0xc
??UART_SETUP_4:
        MOV     A,0xf3
//  821         }                                                                                                    
//  822     }   
//  823     
//  824     U0GCR = BAUD_E((baudRate), CLKSPD);
??UART_SETUP_3:
        MOV     A,#0x60
        XRL     A,R2
        JNZ     ??UART_SETUP_6
        MOV     A,#0x9
        XRL     A,R3
??UART_SETUP_6:
        JNZ     ??UART_SETUP_7
        MOV     A,0xc6
        MOV     C,0xE0 /* A   */.0
        CLR     A
        MOV     0xE0 /* A   */.0,C
        ADD     A,#0x6
        LJMP    ??UART_SETUP_8 & 0xFFFF
??UART_SETUP_7:
        MOV     A,#-0x40
        XRL     A,R2
        JNZ     ??UART_SETUP_9
        MOV     A,#0x12
        XRL     A,R3
??UART_SETUP_9:
        JNZ     ??UART_SETUP_10
        MOV     A,0xc6
        MOV     C,0xE0 /* A   */.0
        CLR     A
        MOV     0xE0 /* A   */.0,C
        ADD     A,#0x7
        LJMP    ??UART_SETUP_11 & 0xFFFF
??UART_SETUP_10:
        MOV     A,#-0x80
        XRL     A,R2
        JNZ     ??UART_SETUP_12
        MOV     A,#0x25
        XRL     A,R3
??UART_SETUP_12:
        JNZ     ??UART_SETUP_13
        MOV     A,0xc6
        MOV     C,0xE0 /* A   */.0
        CLR     A
        MOV     0xE0 /* A   */.0,C
        ADD     A,#0x8
        LJMP    ??UART_SETUP_14 & 0xFFFF
??UART_SETUP_13:
        MOV     A,#0x40
        XRL     A,R2
        JNZ     ??UART_SETUP_15
        MOV     A,#0x38
        XRL     A,R3
??UART_SETUP_15:
        JNZ     ??UART_SETUP_16
        MOV     A,0xc6
        MOV     C,0xE0 /* A   */.0
        CLR     A
        MOV     0xE0 /* A   */.0,C
        ADD     A,#0x8
        LJMP    ??UART_SETUP_17 & 0xFFFF
??UART_SETUP_16:
        MOV     A,R2
        JNZ     ??UART_SETUP_18
        MOV     A,#0x4b
        XRL     A,R3
??UART_SETUP_18:
        JNZ     ??UART_SETUP_19
        MOV     A,0xc6
        MOV     C,0xE0 /* A   */.0
        CLR     A
        MOV     0xE0 /* A   */.0,C
        ADD     A,#0x9
        LJMP    ??UART_SETUP_20 & 0xFFFF
??UART_SETUP_19:
        MOV     A,#-0x80
        XRL     A,R2
        JNZ     ??UART_SETUP_21
        MOV     A,#0x70
        XRL     A,R3
??UART_SETUP_21:
        JNZ     ??UART_SETUP_22
        MOV     A,0xc6
        MOV     C,0xE0 /* A   */.0
        CLR     A
        MOV     0xE0 /* A   */.0,C
        ADD     A,#0x9
        LJMP    ??UART_SETUP_23 & 0xFFFF
??UART_SETUP_22:
        LCALL   ?Subroutine3 & 0xFFFF
??CrossCallReturnLabel_6:
        LCALL   ?L_EQ_X
        JNZ     ??UART_SETUP_24
        MOV     A,0xc6
        MOV     C,0xE0 /* A   */.0
        CLR     A
        MOV     0xE0 /* A   */.0,C
        ADD     A,#0xa
        LJMP    ??UART_SETUP_25 & 0xFFFF
??UART_SETUP_24:
        MOV     A,R3
        RLC     A
        SUBB    A,0xE0 /* A   */
        MOV     DPTR,#__Constant_e100
        MOV     R0,#?V0 + 0
        LCALL   ?L_EQ_X
        JNZ     ??UART_SETUP_26
        MOV     A,0xc6
        MOV     C,0xE0 /* A   */.0
        CLR     A
        MOV     0xE0 /* A   */.0,C
        ADD     A,#0xa
        LJMP    ??UART_SETUP_27 & 0xFFFF
??UART_SETUP_26:
        MOV     A,R3
        RLC     A
        SUBB    A,0xE0 /* A   */
        MOV     DPTR,#__Constant_12c00
        MOV     R0,#?V0 + 0
        LCALL   ?L_EQ_X
        JNZ     ??UART_SETUP_28
        MOV     A,0xc6
        MOV     C,0xE0 /* A   */.0
        CLR     A
        MOV     0xE0 /* A   */.0,C
        ADD     A,#0xb
        SJMP    ??UART_SETUP_29
??UART_SETUP_28:
        MOV     A,R3
        RLC     A
        SUBB    A,0xE0 /* A   */
        MOV     DPTR,#__Constant_1c200
        MOV     R0,#?V0 + 0
        LCALL   ?L_EQ_X
        JNZ     ??UART_SETUP_30
        MOV     A,0xc6
        MOV     C,0xE0 /* A   */.0
        CLR     A
        MOV     0xE0 /* A   */.0,C
        ADD     A,#0xb
        SJMP    ??UART_SETUP_31
??UART_SETUP_30:
        MOV     A,R3
        RLC     A
        SUBB    A,0xE0 /* A   */
        MOV     DPTR,#__Constant_25800
        MOV     R0,#?V0 + 0
        LCALL   ?L_EQ_X
        JNZ     ??UART_SETUP_32
        MOV     A,0xc6
        MOV     C,0xE0 /* A   */.0
        CLR     A
        MOV     0xE0 /* A   */.0,C
        ADD     A,#0xc
        SJMP    ??UART_SETUP_33
??UART_SETUP_32:
        MOV     A,R3
        RLC     A
        SUBB    A,0xE0 /* A   */
        MOV     DPTR,#__Constant_38400
        MOV     R0,#?V0 + 0
        LCALL   ?L_EQ_X
        JNZ     ??UART_SETUP_34
        MOV     A,0xc6
        MOV     C,0xE0 /* A   */.0
        CLR     A
        MOV     0xE0 /* A   */.0,C
        ADD     A,#0xc
        SJMP    ??UART_SETUP_35
??UART_SETUP_34:
        MOV     A,R3
        RLC     A
        SUBB    A,0xE0 /* A   */
        MOV     DPTR,#__Constant_4b000
        MOV     R0,#?V0 + 0
        LCALL   ?L_EQ_X
        JNZ     ??UART_SETUP_36
        MOV     A,0xc6
        MOV     C,0xE0 /* A   */.0
        CLR     A
        MOV     0xE0 /* A   */.0,C
        ADD     A,#0xd
        MOV     R5,A
        SJMP    ??UART_SETUP_37
??UART_SETUP_36:
        MOV     R5,#0x0
??UART_SETUP_37:
        MOV     A,R5
??UART_SETUP_35:
        MOV     R6,A
        MOV     A,R6
??UART_SETUP_33:
        MOV     R5,A
        MOV     A,R5
??UART_SETUP_31:
        MOV     R6,A
        MOV     A,R6
??UART_SETUP_29:
        MOV     R5,A
        MOV     A,R5
??UART_SETUP_27:
        MOV     R6,A
        MOV     A,R6
??UART_SETUP_25:
        MOV     R5,A
        MOV     A,R5
??UART_SETUP_23:
        MOV     R6,A
        MOV     A,R6
??UART_SETUP_20:
        MOV     R5,A
        MOV     A,R5
??UART_SETUP_17:
        MOV     R6,A
        MOV     A,R6
??UART_SETUP_14:
        MOV     R5,A
        MOV     A,R5
??UART_SETUP_11:
        MOV     R6,A
        MOV     A,R6
??UART_SETUP_8:
        MOV     R5,A
        MOV     0xc5,R5
//  825     U0BAUD = BAUD_M(baudRate);
        MOV     A,#0x60
        XRL     A,R2
        JNZ     ??UART_SETUP_38
        MOV     A,#0x9
        XRL     A,R3
??UART_SETUP_38:
        JNZ     ??UART_SETUP_39
        MOV     R2,#0x3b
        LJMP    ??UART_SETUP_40 & 0xFFFF
??UART_SETUP_39:
        MOV     A,#-0x40
        XRL     A,R2
        JNZ     ??UART_SETUP_41
        MOV     A,#0x12
        XRL     A,R3
??UART_SETUP_41:
        JNZ     ??UART_SETUP_42
        MOV     R3,#0x3b
        LJMP    ??UART_SETUP_43 & 0xFFFF
??UART_SETUP_42:
        MOV     A,#-0x80
        XRL     A,R2
        JNZ     ??UART_SETUP_44
        MOV     A,#0x25
        XRL     A,R3
??UART_SETUP_44:
        JNZ     ??UART_SETUP_45
        MOV     R2,#0x3b
        LJMP    ??UART_SETUP_46 & 0xFFFF
??UART_SETUP_45:
        MOV     A,#0x40
        XRL     A,R2
        JNZ     ??UART_SETUP_47
        MOV     A,#0x38
        XRL     A,R3
??UART_SETUP_47:
        JNZ     ??UART_SETUP_48
        MOV     R3,#-0x28
        LJMP    ??UART_SETUP_49 & 0xFFFF
??UART_SETUP_48:
        MOV     A,R2
        JNZ     ??UART_SETUP_50
        MOV     A,#0x4b
        XRL     A,R3
??UART_SETUP_50:
        JNZ     ??UART_SETUP_51
        MOV     R2,#0x3b
        LJMP    ??UART_SETUP_52 & 0xFFFF
??UART_SETUP_51:
        MOV     A,#-0x80
        XRL     A,R2
        JNZ     ??UART_SETUP_53
        MOV     A,#0x70
        XRL     A,R3
??UART_SETUP_53:
        JNZ     ??UART_SETUP_54
        MOV     R3,#-0x28
        SJMP    ??UART_SETUP_55
??UART_SETUP_54:
        LCALL   ?Subroutine3 & 0xFFFF
??CrossCallReturnLabel_7:
        LCALL   ?L_EQ_X
        JNZ     ??UART_SETUP_56
        MOV     R2,#0x3b
        SJMP    ??UART_SETUP_57
??UART_SETUP_56:
        MOV     DPTR,#__Constant_e100
        MOV     R0,#?V0 + 0
        LCALL   ?L_EQ_X
        JNZ     ??UART_SETUP_58
        MOV     R3,#-0x28
        SJMP    ??UART_SETUP_59
??UART_SETUP_58:
        MOV     DPTR,#__Constant_12c00
        MOV     R0,#?V0 + 0
        LCALL   ?L_EQ_X
        JNZ     ??UART_SETUP_60
        MOV     R2,#0x3b
        SJMP    ??UART_SETUP_61
??UART_SETUP_60:
        MOV     DPTR,#__Constant_1c200
        MOV     R0,#?V0 + 0
        LCALL   ?L_EQ_X
        JNZ     ??UART_SETUP_62
        MOV     R3,#-0x28
        SJMP    ??UART_SETUP_63
??UART_SETUP_62:
        MOV     DPTR,#__Constant_25800
        MOV     R0,#?V0 + 0
        LCALL   ?L_EQ_X
        JNZ     ??UART_SETUP_64
        MOV     R2,#0x3b
        SJMP    ??UART_SETUP_65
??UART_SETUP_64:
        MOV     DPTR,#__Constant_38400
        MOV     R0,#?V0 + 0
        LCALL   ?L_EQ_X
        JNZ     ??UART_SETUP_66
        MOV     R3,#-0x28
        SJMP    ??UART_SETUP_67
??UART_SETUP_66:
        MOV     DPTR,#__Constant_4b000
        MOV     R0,#?V0 + 0
        LCALL   ?L_EQ_X
        JNZ     ??UART_SETUP_68
        MOV     R2,#0x3b
        SJMP    ??UART_SETUP_69
??UART_SETUP_68:
        MOV     R2,#0x0
??UART_SETUP_69:
        MOV     A,R2
        MOV     R3,A
??UART_SETUP_67:
        MOV     A,R3
        MOV     R2,A
??UART_SETUP_65:
        MOV     A,R2
        MOV     R3,A
??UART_SETUP_63:
        MOV     A,R3
        MOV     R2,A
??UART_SETUP_61:
        MOV     A,R2
        MOV     R3,A
??UART_SETUP_59:
        MOV     A,R3
        MOV     R2,A
??UART_SETUP_57:
        MOV     A,R2
        MOV     R3,A
??UART_SETUP_55:
        MOV     A,R3
        MOV     R2,A
??UART_SETUP_52:
        MOV     A,R2
        MOV     R3,A
??UART_SETUP_49:
        MOV     A,R3
        MOV     R2,A
??UART_SETUP_46:
        MOV     A,R2
        MOV     R3,A
??UART_SETUP_43:
        MOV     A,R3
        MOV     R2,A
??UART_SETUP_40:
        MOV     0xc2,R2
//  826     U0UCR = ((options) | 0x80);
        MOV     A,#-0x80
        ORL     A,R4
        MOV     0xc4,A
//  827     U0CSR = 0x80;
        MOV     0x86,#-0x80
//  828                              
//  829     if((options) & TRANSFER_MSB_FIRST){        
        MOV     A,R4
        MOV     C,0xE0 /* A   */.7
        JNC     ??UART_SETUP_70
//  830        U0GCR |= 0x20;                   
        ORL     0xc5,#0x20
//  831     }
//  832 }
??UART_SETUP_70:
        LJMP    ?Subroutine5 & 0xFFFF
        CFI EndBlock cfiBlock22
        REQUIRE U0CSR
        REQUIRE U0BAUD
        REQUIRE U0UCR
        REQUIRE U0GCR
        REQUIRE CLKCON
        REQUIRE PERCFG
        REQUIRE P0SEL
        REQUIRE P1SEL

        RSEG BANKED_CODE:CODE:NOROOT(0)
?Subroutine3:
        CFI Block cfiCond23 Using cfiCommon0
        CFI NoFunction
        CFI Conditional ??CrossCallReturnLabel_6
        CFI R6 load(1, XDATA, add(CFA_XSP16, literal(-12)))
        CFI VB load(1, XDATA, add(CFA_XSP16, literal(-11)))
        CFI V0 load(1, XDATA, add(CFA_XSP16, literal(-10)))
        CFI V1 load(1, XDATA, add(CFA_XSP16, literal(-9)))
        CFI V2 load(1, XDATA, add(CFA_XSP16, literal(-8)))
        CFI V3 load(1, XDATA, add(CFA_XSP16, literal(-7)))
        CFI R7 load(1, XDATA, add(CFA_XSP16, literal(-6)))
        CFI ?RET_LOW load(1, XDATA, add(CFA_XSP16, literal(-5)))
        CFI ?RET_HIGH load(1, XDATA, add(CFA_XSP16, literal(-4)))
        CFI ?BRET_EXT load(1, XDATA, add(CFA_XSP16, literal(-3)))
        CFI DPL0 load(1, XDATA, add(CFA_XSP16, literal(-2)))
        CFI DPH0 load(1, XDATA, add(CFA_XSP16, literal(-1)))
        CFI CFA_SP SP+0
        CFI CFA_XSP16 add(XSP16, 12)
        CFI Block cfiCond24 Using cfiCommon0
        CFI (cfiCond24) NoFunction
        CFI (cfiCond24) Conditional ??CrossCallReturnLabel_7
        CFI (cfiCond24) R6 load(1, XDATA, add(CFA_XSP16, literal(-12)))
        CFI (cfiCond24) VB load(1, XDATA, add(CFA_XSP16, literal(-11)))
        CFI (cfiCond24) V0 load(1, XDATA, add(CFA_XSP16, literal(-10)))
        CFI (cfiCond24) V1 load(1, XDATA, add(CFA_XSP16, literal(-9)))
        CFI (cfiCond24) V2 load(1, XDATA, add(CFA_XSP16, literal(-8)))
        CFI (cfiCond24) V3 load(1, XDATA, add(CFA_XSP16, literal(-7)))
        CFI (cfiCond24) R7 load(1, XDATA, add(CFA_XSP16, literal(-6)))
        CFI (cfiCond24) ?RET_LOW load(1, XDATA, add(CFA_XSP16, literal(-5)))
        CFI (cfiCond24) ?RET_HIGH load(1, XDATA, add(CFA_XSP16, literal(-4)))
        CFI (cfiCond24) ?BRET_EXT load(1, XDATA, add(CFA_XSP16, literal(-3)))
        CFI (cfiCond24) DPL0 load(1, XDATA, add(CFA_XSP16, literal(-2)))
        CFI (cfiCond24) DPH0 load(1, XDATA, add(CFA_XSP16, literal(-1)))
        CFI (cfiCond24) CFA_SP SP+0
        CFI (cfiCond24) CFA_XSP16 add(XSP16, 12)
        CFI Block cfiPicker25 Using cfiCommon1
        CFI (cfiPicker25) NoFunction
        CFI (cfiPicker25) Picker
        MOV     ?V0 + 0,R2
        MOV     A,R3
        MOV     ?V0 + 1,A
        RLC     A
        SUBB    A,0xE0 /* A   */
        MOV     ?V0 + 2,A
        MOV     ?V0 + 3,A
        MOV     DPTR,#__Constant_9600
        MOV     R0,#?V0 + 0
        RET
        CFI EndBlock cfiCond23
        CFI EndBlock cfiCond24
        CFI EndBlock cfiPicker25
//  833 /*
//  834 void initUART(void)
//  835 {
//  836    // Setup for UART0
//  837    IO_PER_LOC_USART0_AT_PORT0_PIN2345();
//  838 
//  839    //设置波特率和传输模式
//  840    UART_SETUP(0, 9600, HIGH_STOP);
//  841    
//  842    UTX0IF = 1;
//  843 }
//  844 */
//  845 // Global interrupt enables
//  846 #define INT_GLOBAL_ENABLE(on) EA=(!!on)
//  847 

        RSEG BANKED_CODE:CODE:NOROOT(0)
//  848 void UART0ISRopen(void)
UART0ISRopen:
        CFI Block cfiBlock26 Using cfiCommon0
        CFI Function UART0ISRopen
//  849 {
        ; Saved register size: 0
        ; Auto size: 0
//  850   U0UCR|=0x80;
        ORL     0xc4,#0x80
//  851   IEN0 |= 0x04;//开串口接收中断 'URX0IE = 1',
        SETB    0xa8.2
//  852   INT_GLOBAL_ENABLE(TRUE);
        SETB    0xa8.7
//  853 }
        LJMP    ?BRET
        CFI EndBlock cfiBlock26
        REQUIRE _A_IEN0
        REQUIRE U0UCR
//  854 

        RSEG BANKED_CODE:CODE:NOROOT(0)
//  855 void initUART(void)
initUART:
        CFI Block cfiBlock27 Using cfiCommon0
        CFI Function initUART
//  856 {
        FUNCALL initUART, UART_SETUP
        LOCFRAME ISTACK, 2, STACK
        LOCFRAME PSTACK, 0, STACK
        LOCFRAME XSTACK, 0, STACK
        LOCFRAME IOVERLAY, 0, STATIC
        LOCFRAME DOVERLAY, 0, STATIC
        ARGFRAME ISTACK, 2, STACK
        ARGFRAME PSTACK, 0, STACK
        ARGFRAME XSTACK, 0, STACK
        ARGFRAME IOVERLAY, 0, STATIC
        ARGFRAME DOVERLAY, 0, STATIC
        FUNCALL initUART, UART0ISRopen
        LOCFRAME ISTACK, 2, STACK
        LOCFRAME PSTACK, 0, STACK
        LOCFRAME XSTACK, 0, STACK
        LOCFRAME IOVERLAY, 0, STATIC
        LOCFRAME DOVERLAY, 0, STATIC
        ARGFRAME ISTACK, 2, STACK
        ARGFRAME PSTACK, 0, STACK
        ARGFRAME XSTACK, 0, STACK
        ARGFRAME IOVERLAY, 0, STATIC
        ARGFRAME DOVERLAY, 0, STATIC
        PUSH    DPL
        CFI DPL0 Frame(CFA_SP, 4)
        CFI CFA_SP SP+-4
        PUSH    DPH
        CFI DPH0 Frame(CFA_SP, 5)
        CFI CFA_SP SP+-5
        ; Saved register size: 2
        ; Auto size: 0
//  857    // Setup for UART0
//  858   // IO_PER_LOC_UART0_AT_PORT0_PIN2345();
//  859    IO_PER_LOC_USART0_AT_PORT0_PIN2345();
        ANL     0xf1,#0xfe
//  860    //SET_MAIN_CLOCK_SOURCE(CRYSTAL);
//  861    UART_SETUP(0, 9600, HIGH_STOP);
        ; Setup parameters for call to function UART_SETUP
        MOV     R4,#0x2
        MOV     R2,#-0x80
        MOV     R3,#0x25
        MOV     R1,#0x0
        LCALL   ??UART_SETUP?relay
//  862    U0CSR = 0xC5;//允许接收
        MOV     0x86,#-0x3b
//  863    UTX0IF=1;
        SETB    0xe8.1
//  864    URX0IF=1;
        SETB    0x88.3
//  865    
//  866    UART0ISRopen();
        ; Setup parameters for call to function UART0ISRopen
        LCALL   ??UART0ISRopen?relay
//  867 }
        LJMP    ?Subroutine4 & 0xFFFF
        CFI EndBlock cfiBlock27
        REQUIRE U0CSR
        REQUIRE _A_TCON
        REQUIRE _A_IRCON2
        REQUIRE PERCFG
//  868 
//  869 #pragma vector=URX0_VECTOR                //URX0_VECTOR

        RSEG NEAR_CODE:CODE:NOROOT(0)
//  870 __interrupt void URX0_IRQ(void)
URX0_IRQ:
        CFI Block cfiBlock28 Using cfiCommon1
        CFI Function URX0_IRQ
//  871 {
        PUSH    A
        CFI A Frame(CFA_SP, 3)
        CFI CFA_SP SP+-3
        ; Saved register size: 2
        ; Auto size: 0
//  872     char c;
//  873     //while (!URX0IF);
//  874     c = U0DBUF;
        MOV     A,0xc1
//  875     //uart0_putc(c);
//  876     URX0IF=0;
        CLR     0x88.3
//  877 }
        POP     A
        CFI A SameValue
        CFI CFA_SP SP+-2
        RETI
        CFI EndBlock cfiBlock28
        REQUIRE _A_TCON
        REQUIRE U0DBUF
//  878 
//  879 //-----------------------------------------------------------------------------
//  880 // sned str or char via uart0
//  881 //-----------------------------------------------------------------------------
//  882 

        RSEG BANKED_CODE:CODE:NOROOT(0)
//  883 int uart0_putc(int c)
uart0_putc:
        CFI Block cfiBlock29 Using cfiCommon0
        CFI Function uart0_putc
//  884 {
        ; Saved register size: 1
        ; Auto size: 0
//  885    if (c == '\n')  {
        MOV     A,#0xa
        XRL     A,R2
        JNZ     ??uart0_putc_0
        MOV     A,R3
??uart0_putc_0:
        JNZ     ??uart0_putc_1
//  886       while (!UTX0IF);
??uart0_putc_2:
        MOV     C,0xe8.1
        JNC     ??uart0_putc_2
//  887       UTX0IF = 0;
        CLR     0xe8.1
//  888       U0DBUF = 0x0d;       //output CR 
        MOV     0xc1,#0xd
//  889    }
//  890 
//  891    while (!UTX0IF);
??uart0_putc_1:
        MOV     C,0xe8.1
        JNC     ??uart0_putc_1
//  892    UTX0IF = 0;
        CLR     0xe8.1
//  893    return (U0DBUF = c);
        MOV     0xc1,R2
        MOV     R3,#0x0
        LJMP    ?BRET
        CFI EndBlock cfiBlock29
        REQUIRE U0DBUF
        REQUIRE _A_IRCON2
//  894 }
//  895 
//  896 

        RSEG BANKED_CODE:CODE:NOROOT(0)
//  897 void uart0_puts(char* str,int len)
uart0_puts:
        CFI Block cfiBlock30 Using cfiCommon0
        CFI Function uart0_puts
//  898 {
        FUNCALL uart0_puts, uart0_putc
        LOCFRAME ISTACK, 0, STACK
        LOCFRAME PSTACK, 0, STACK
        LOCFRAME XSTACK, 13, STACK
        LOCFRAME IOVERLAY, 0, STATIC
        LOCFRAME DOVERLAY, 0, STATIC
        ARGFRAME ISTACK, 0, STACK
        ARGFRAME PSTACK, 0, STACK
        ARGFRAME XSTACK, 13, STACK
        ARGFRAME IOVERLAY, 0, STATIC
        ARGFRAME DOVERLAY, 0, STATIC
        MOV     A,#-0xd
        LCALL   ?BANKED_ENTER_XDATA
        CFI DPH0 load(1, XDATA, add(CFA_XSP16, literal(-1)))
        CFI DPL0 load(1, XDATA, add(CFA_XSP16, literal(-2)))
        CFI ?BRET_EXT load(1, XDATA, add(CFA_XSP16, literal(-3)))
        CFI ?RET_HIGH load(1, XDATA, add(CFA_XSP16, literal(-4)))
        CFI ?RET_LOW load(1, XDATA, add(CFA_XSP16, literal(-5)))
        CFI R7 load(1, XDATA, add(CFA_XSP16, literal(-6)))
        CFI V4 load(1, XDATA, add(CFA_XSP16, literal(-7)))
        CFI V3 load(1, XDATA, add(CFA_XSP16, literal(-8)))
        CFI V2 load(1, XDATA, add(CFA_XSP16, literal(-9)))
        CFI V1 load(1, XDATA, add(CFA_XSP16, literal(-10)))
        CFI V0 load(1, XDATA, add(CFA_XSP16, literal(-11)))
        CFI VB load(1, XDATA, add(CFA_XSP16, literal(-12)))
        CFI R6 load(1, XDATA, add(CFA_XSP16, literal(-13)))
        CFI CFA_SP SP+0
        CFI CFA_XSP16 add(XSP16, 13)
        ; Saved register size: 13
        ; Auto size: 0
        MOV     ?V0 + 2,R2
        MOV     ?V0 + 3,R3
        MOV     ?V0 + 0,R4
        MOV     ?V0 + 1,R5
//  899     int i = 0;
//  900     if(str == NULL)
        MOV     A,R2
        JNZ     ??uart0_puts_0
        MOV     A,R3
??uart0_puts_0:
        JZ      ??uart0_puts_1
//  901         return ;
//  902     for(i = 0; i < len; i++)
        MOV     R6,#0x0
        MOV     R7,#0x0
        SJMP    ??uart0_puts_2
//  903     {
//  904         uart0_putc(*(str+i));
??uart0_puts_3:
        ; Setup parameters for call to function uart0_putc
        MOV     A,?V0 + 2
        ADD     A,R6
        MOV     DPL,A
        MOV     A,?V0 + 3
        ADDC    A,R7
        MOV     DPH,A
        MOVX    A,@DPTR
        MOV     R2,A
        MOV     R3,#0x0
        LCALL   ??uart0_putc?relay
//  905     }
        MOV     A,R6
        ADD     A,#0x1
        INC     R6
        MOV     A,R7
        ADDC    A,#0x0
        MOV     R7,A
??uart0_puts_2:
        CLR     C
        MOV     A,R6
        SUBB    A,?V0 + 0
        MOV     A,R7
        SUBB    A,?V0 + 1
        MOV     C,0xD0 /* PSW */.2
        XRL     A,PSW
        RLC     A
        JC      ??uart0_puts_3
??uart0_puts_1:
        LJMP    ?Subroutine7 & 0xFFFF
        CFI EndBlock cfiBlock30
//  906 }

        COMMON INTVEC:CODE:ROOT(0)
        ORG 19
`??URX0_IRQ??INTVEC 19`:
        LJMP       (URX0_IRQ)

        RSEG XDATA_ID:CODE:NOROOT(0)
        DATA
`?<Initializer for <Constant "GenericApp">>`:
        DB "GenericApp"

        RSEG XDATA_ID:CODE:NOROOT(0)
        DATA
`?<Initializer for <Constant "hal sw1 pressed!\\`:
        DB "hal sw1 pressed!\015\012"

        RSEG XDATA_ID:CODE:NOROOT(0)
        DATA
`?<Initializer for <Constant "hal sw2 pressed!\\`:
        DB "hal sw2 pressed!\015\012"

        RSEG XDATA_ID:CODE:NOROOT(0)
        DATA
`?<Initializer for <Constant "[[hal sw3 pressed`:
        DB "[[hal sw3 pressed\012"

        RSEG XDATA_ID:CODE:NOROOT(0)
        DATA
`?<Initializer for <Constant "hal sw4 pressed!\\`:
        DB "hal sw4 pressed!\012\015\012"

        RSEG XDATA_ID:CODE:NOROOT(0)
        DATA
`?<Initializer for <Constant "rcvd">>`:
        DB "rcvd"

        RSEG XDATA_ID:CODE:NOROOT(0)
        DATA
`?<Initializer for <Constant "Hello World">>`:
        DB "Hello World"

        RSEG XDATA_ID:CODE:NOROOT(0)
        DATA
`?<Initializer for GenericApp_ClusterList>`:
        DW 1

        RSEG XDATA_ID:CODE:NOROOT(0)
        DATA
`?<Initializer for GenericApp_SimpleDesc>`:
        DB 10
        DW 3844, 1
        DB 0, 1
        DW GenericApp_ClusterList
        DB 1
        DW GenericApp_ClusterList

        RSEG XDATA_ID:CODE:NOROOT(0)
        DATA
`?<Initializer for __Constant_9600>`:
        DD 38400

        RSEG XDATA_ID:CODE:NOROOT(0)
        DATA
`?<Initializer for __Constant_e100>`:
        DD 57600

        RSEG XDATA_ID:CODE:NOROOT(0)
        DATA
`?<Initializer for __Constant_12c00>`:
        DD 76800

        RSEG XDATA_ID:CODE:NOROOT(0)
        DATA
`?<Initializer for __Constant_1c200>`:
        DD 115200

        RSEG XDATA_ID:CODE:NOROOT(0)
        DATA
`?<Initializer for __Constant_25800>`:
        DD 153600

        RSEG XDATA_ID:CODE:NOROOT(0)
        DATA
`?<Initializer for __Constant_38400>`:
        DD 230400

        RSEG XDATA_ID:CODE:NOROOT(0)
        DATA
`?<Initializer for __Constant_4b000>`:
        DD 307200

        RSEG BANK_RELAYS:CODE:REORDER:NOROOT(0)
??GenericApp_Init?relay:
        LCALL   ?BDISPATCH
        DATA
        DC24    GenericApp_Init

        RSEG BANK_RELAYS:CODE:REORDER:NOROOT(0)
??GenericApp_ProcessEvent?relay:
        LCALL   ?BDISPATCH
        DATA
        DC24    GenericApp_ProcessEvent

        RSEG BANK_RELAYS:CODE:REORDER:NOROOT(0)
??GenericApp_ProcessZDOMsgs?relay:
        LCALL   ?BDISPATCH
        DATA
        DC24    GenericApp_ProcessZDOMsgs

        RSEG BANK_RELAYS:CODE:REORDER:NOROOT(0)
??GenericApp_HandleKeys?relay:
        LCALL   ?BDISPATCH
        DATA
        DC24    GenericApp_HandleKeys

        RSEG BANK_RELAYS:CODE:REORDER:NOROOT(0)
??GenericApp_MessageMSGCB?relay:
        LCALL   ?BDISPATCH
        DATA
        DC24    GenericApp_MessageMSGCB

        RSEG BANK_RELAYS:CODE:REORDER:NOROOT(0)
??GenericApp_SendTheMessage?relay:
        LCALL   ?BDISPATCH
        DATA
        DC24    GenericApp_SendTheMessage

        RSEG BANK_RELAYS:CODE:REORDER:NOROOT(0)
??uart0_getString?relay:
        LCALL   ?BDISPATCH
        DATA
        DC24    uart0_getString

        RSEG BANK_RELAYS:CODE:REORDER:NOROOT(0)
??data_trans_Init?relay:
        LCALL   ?BDISPATCH
        DATA
        DC24    data_trans_Init

        RSEG BANK_RELAYS:CODE:REORDER:NOROOT(0)
??data_trans_process?relay:
        LCALL   ?BDISPATCH
        DATA
        DC24    data_trans_process

        RSEG BANK_RELAYS:CODE:REORDER:NOROOT(0)
??UART_SETUP?relay:
        LCALL   ?BDISPATCH
        DATA
        DC24    UART_SETUP

        RSEG BANK_RELAYS:CODE:REORDER:NOROOT(0)
??UART0ISRopen?relay:
        LCALL   ?BDISPATCH
        DATA
        DC24    UART0ISRopen

        RSEG BANK_RELAYS:CODE:REORDER:NOROOT(0)
??initUART?relay:
        LCALL   ?BDISPATCH
        DATA
        DC24    initUART

        RSEG BANK_RELAYS:CODE:REORDER:NOROOT(0)
??uart0_putc?relay:
        LCALL   ?BDISPATCH
        DATA
        DC24    uart0_putc

        RSEG BANK_RELAYS:CODE:REORDER:NOROOT(0)
??uart0_puts?relay:
        LCALL   ?BDISPATCH
        DATA
        DC24    uart0_puts

        END
// 
// 1 880 bytes in segment BANKED_CODE
//    84 bytes in segment BANK_RELAYS
//     3 bytes in segment INTVEC
//     9 bytes in segment NEAR_CODE
//    12 bytes in segment SFR_AN
//   147 bytes in segment XDATA_I
//   147 bytes in segment XDATA_ID
//    14 bytes in segment XDATA_Z
// 
// 2 092 bytes of CODE  memory (+ 31 bytes shared)
//     0 bytes of DATA  memory (+ 12 bytes shared)
//   133 bytes of XDATA memory (+ 28 bytes shared)
//
//Errors: none
//Warnings: 18
