###############################################################################
#                                                                             #
# IAR 8051 C/C++ Compiler V7.30B/W32                    26/May/2011  12:25:27 #
# Copyright 2004-2007 IAR Systems. All rights reserved.                       #
#                                                                             #
#    Core               =  plain                                              #
#    Code model         =  banked                                             #
#    Data model         =  large                                              #
#    Calling convention =  xdata reentrant                                    #
#    Constant location  =  data                                               #
#    Dptr setup         =  1,16                                               #
#    Source file        =  D:\Texas Instruments\ZStack-1.4.3-1.2.1\Components #
#                          \hal\target\CC2430EB\hal_lcd.c                     #
#    Command line       =  -f "D:\Texas Instruments\ZStack-1.4.3-1.2.1\Projec #
#                          ts\zstack\Samples\GenericApp\CC2430DB\..\..\..\Too #
#                          ls\CC2430DB\f8wCoord.cfg" (-DCPU32MHZ              #
#                          -DFORCE_MAC_NEAR -DROOT=__near_func                #
#                          -DMAC_CFG_APP_PENDING_QUEUE=TRUE                   #
#                          -DZDO_COORDINATOR -DRTR_NWK -DBLINK_LEDS           #
#                          "-DCONST=const __code" -DGENERIC=__generic) -f     #
#                          "D:\Texas Instruments\ZStack-1.4.3-1.2.1\Projects\ #
#                          zstack\Samples\GenericApp\CC2430DB\..\..\..\Tools\ #
#                          CC2430DB\f8wConfig.cfg" (-DSECURE=0                #
#                          -DDEFAULT_CHANLIST=0x00000800                      #
#                          -DZDAPP_CONFIG_PAN_ID=0xFFFF                       #
#                          -DNWK_START_DELAY=100 -DEXTENDED_JOINING_RANDOM_MA #
#                          SK=0x007F -DBEACON_REQUEST_DELAY=100               #
#                          -DBEACON_REQ_DELAY_MASK=0x00FF                     #
#                          -DROUTE_EXPIRY_TIME=30 -DAPSC_ACK_WAIT_DURATION_PO #
#                          LLED=3000 -DNWK_INDIRECT_MSG_TIMEOUT=7             #
#                          -DMAX_RREQ_ENTRIES=10 -DAPSC_MAX_FRAME_RETRIES=3   #
#                          -DNWK_MAX_DATA_RETRIES=2                           #
#                          -DMAX_POLL_FAILURE_RETRIES=2 -DMAX_BCAST=9         #
#                          -DAPS_MAX_GROUPS=16 -DMAX_RTG_ENTRIES=20           #
#                          -DNWK_MAX_BINDING_ENTRIES=10                       #
#                          -DMAX_BINDING_CLUSTER_IDS=5 "-DDEFAULT_KEY={0x01,  #
#                          0x03, 0x05, 0x07, 0x09, 0x0B, 0x0D, 0x0F, 0x00,    #
#                          0x02, 0x04, 0x06, 0x08, 0x0A, 0x0C, 0x0D}"         #
#                          -DRFD_RCVC_ALWAYS_ON=FALSE -DPOLL_RATE=1000        #
#                          -DQUEUED_POLL_RATE=100 -DRESPONSE_POLL_RATE=100)   #
#                          -DREJOIN_POLL_RATE=440 "D:\Texas                   #
#                          Instruments\ZStack-1.4.3-1.2.1\Components\hal\targ #
#                          et\CC2430EB\hal_lcd.c" -D CC2430EB -D REFLECTOR    #
#                          -D ZTOOL_P1 -D MT_TASK -D xMT_ZDO_FUNC -D          #
#                          LCD_SUPPORTED=DEBUG -lC "D:\Texas                  #
#                          Instruments\ZStack-1.4.3-1.2.1\Projects\zstack\Sam #
#                          ples\GenericApp\CC2430DB\CoordinatorEB\List\" -lA  #
#                          "D:\Texas Instruments\ZStack-1.4.3-1.2.1\Projects\ #
#                          zstack\Samples\GenericApp\CC2430DB\CoordinatorEB\L #
#                          ist\" --diag_suppress Pe001,Pa010 --diag_remark    #
#                          pe550 -o "D:\Texas Instruments\ZStack-1.4.3-1.2.1\ #
#                          Projects\zstack\Samples\GenericApp\CC2430DB\Coordi #
#                          natorEB\Obj\" -e -z9 --no_code_motion --debug      #
#                          --core=plain --dptr=16,1 --data_model=large        #
#                          --code_model=banked --calling_convention=xdata_ree #
#                          ntrant --place_constants=data --nr_virtual_regs 8  #
#                          -I "D:\Texas Instruments\ZStack-1.4.3-1.2.1\Projec #
#                          ts\zstack\Samples\GenericApp\CC2430DB\" -I         #
#                          "D:\Texas Instruments\ZStack-1.4.3-1.2.1\Projects\ #
#                          zstack\Samples\GenericApp\CC2430DB\..\SOURCE\" -I  #
#                          "D:\Texas Instruments\ZStack-1.4.3-1.2.1\Projects\ #
#                          zstack\Samples\GenericApp\CC2430DB\..\..\..\ZMAIN\ #
#                          TI2430DB\" -I "D:\Texas Instruments\ZStack-1.4.3-1 #
#                          .2.1\Projects\zstack\Samples\GenericApp\CC2430DB\. #
#                          .\..\..\..\..\COMPONENTS\MT\" -I "D:\Texas         #
#                          Instruments\ZStack-1.4.3-1.2.1\Projects\zstack\Sam #
#                          ples\GenericApp\CC2430DB\..\..\..\..\..\COMPONENTS #
#                          \HAL\INCLUDE\" -I "D:\Texas                        #
#                          Instruments\ZStack-1.4.3-1.2.1\Projects\zstack\Sam #
#                          ples\GenericApp\CC2430DB\..\..\..\..\..\COMPONENTS #
#                          \HAL\TARGET\CC2430EB\" -I "D:\Texas                #
#                          Instruments\ZStack-1.4.3-1.2.1\Projects\zstack\Sam #
#                          ples\GenericApp\CC2430DB\..\..\..\..\..\COMPONENTS #
#                          \OSAL\MCU\CCSOC\" -I "D:\Texas                     #
#                          Instruments\ZStack-1.4.3-1.2.1\Projects\zstack\Sam #
#                          ples\GenericApp\CC2430DB\..\..\..\..\..\COMPONENTS #
#                          \OSAL\INCLUDE\" -I "D:\Texas                       #
#                          Instruments\ZStack-1.4.3-1.2.1\Projects\zstack\Sam #
#                          ples\GenericApp\CC2430DB\..\..\..\..\..\COMPONENTS #
#                          \STACK\AF\" -I "D:\Texas                           #
#                          Instruments\ZStack-1.4.3-1.2.1\Projects\zstack\Sam #
#                          ples\GenericApp\CC2430DB\..\..\..\..\..\COMPONENTS #
#                          \STACK\NWK\" -I "D:\Texas                          #
#                          Instruments\ZStack-1.4.3-1.2.1\Projects\zstack\Sam #
#                          ples\GenericApp\CC2430DB\..\..\..\..\..\COMPONENTS #
#                          \STACK\SEC\" -I "D:\Texas                          #
#                          Instruments\ZStack-1.4.3-1.2.1\Projects\zstack\Sam #
#                          ples\GenericApp\CC2430DB\..\..\..\..\..\COMPONENTS #
#                          \STACK\SYS\" -I "D:\Texas                          #
#                          Instruments\ZStack-1.4.3-1.2.1\Projects\zstack\Sam #
#                          ples\GenericApp\CC2430DB\..\..\..\..\..\COMPONENTS #
#                          \STACK\ZDO\" -I "D:\Texas                          #
#                          Instruments\ZStack-1.4.3-1.2.1\Projects\zstack\Sam #
#                          ples\GenericApp\CC2430DB\..\..\..\..\..\COMPONENTS #
#                          \ZMAC\F8W\" -I "D:\Texas                           #
#                          Instruments\ZStack-1.4.3-1.2.1\Projects\zstack\Sam #
#                          ples\GenericApp\CC2430DB\..\..\..\..\..\COMPONENTS #
#                          \ZMAC\" -I "D:\Texas Instruments\ZStack-1.4.3-1.2. #
#                          1\Projects\zstack\Samples\GenericApp\CC2430DB\..\. #
#                          .\..\..\..\COMPONENTS\SERVICES\SADDR\" -I          #
#                          "D:\Texas Instruments\ZStack-1.4.3-1.2.1\Projects\ #
#                          zstack\Samples\GenericApp\CC2430DB\..\..\..\..\..\ #
#                          COMPONENTS\SERVICES\SDATA\" -I "D:\Texas           #
#                          Instruments\ZStack-1.4.3-1.2.1\Projects\zstack\Sam #
#                          ples\GenericApp\CC2430DB\..\..\..\..\..\COMPONENTS #
#                          \MAC\INCLUDE\" -I "D:\Texas                        #
#                          Instruments\ZStack-1.4.3-1.2.1\Projects\zstack\Sam #
#                          ples\GenericApp\CC2430DB\..\..\..\..\..\COMPONENTS #
#                          \MAC\HIGH_LEVEL\" -I "D:\Texas                     #
#                          Instruments\ZStack-1.4.3-1.2.1\Projects\zstack\Sam #
#                          ples\GenericApp\CC2430DB\..\..\..\..\..\COMPONENTS #
#                          \MAC\LOW_LEVEL\SRF03\" -I "D:\Texas                #
#                          Instruments\ZStack-1.4.3-1.2.1\Projects\zstack\Sam #
#                          ples\GenericApp\CC2430DB\..\..\..\..\..\COMPONENTS #
#                          \MAC\LOW_LEVEL\SRF03\SINGLE_CHIP\" -I "D:\Program  #
#                          Files\IAR Systems\Embedded Workbench 4.0           #
#                          Evaluation version\8051\INC\" -I "D:\Program       #
#                          Files\IAR Systems\Embedded Workbench 4.0           #
#                          Evaluation version\8051\INC\CLIB\"                 #
#    List file          =  D:\Texas Instruments\ZStack-1.4.3-1.2.1\Projects\z #
#                          stack\Samples\GenericApp\CC2430DB\CoordinatorEB\Li #
#                          st\hal_lcd.lst                                     #
#    Object file        =  D:\Texas Instruments\ZStack-1.4.3-1.2.1\Projects\z #
#                          stack\Samples\GenericApp\CC2430DB\CoordinatorEB\Ob #
#                          j\hal_lcd.r51                                      #
#                                                                             #
#                                                                             #
###############################################################################

D:\Texas Instruments\ZStack-1.4.3-1.2.1\Components\hal\target\CC2430EB\hal_lcd.c
      1          /**************************************************************************************************
      2            Filename:       hal_lcd.c
      3            Revised:        $Date: 2010-2-25 17:25 $
      4            Revision:       $Revision: 0001 $
      5          
      6            Description:    This file contains the interface to the HAL LCD Service.
      7                            WCG160100   UC1608
      8          
      9            西安华凡科技有限公司
     10            www.zigbeehf.com
     11            www.zigbeehf.com.cn
     12          
     13          **************************************************************************************************/
     14          
     15          /**************************************************************************************************
     16           *                                           INCLUDES
     17           **************************************************************************************************/
     18          #include "hal_types.h"
     19          #include "hal_lcd.h"

   \                                 In  segment SFR_AN, at 0x90
   \   union <unnamed> volatile __sfr _A_P1
   \                     _A_P1:
   \   000000                DS 1

   \                                 In  segment SFR_AN, at 0xf4
   \   unsigned char volatile __sfr P1SEL
   \                     P1SEL:
   \   000000                DS 1

   \                                 In  segment SFR_AN, at 0xfe
   \   unsigned char volatile __sfr P1DIR
   \                     P1DIR:
   \   000000                DS 1
     20          #include "OSAL.h"
     21          #include "OnBoard.h"
     22          
     23          #ifdef ZTOOL_PORT
     24            #include "DebugTrace.h"
     25          #endif
     26          #include "intrinsics.h"
     27          
     28          #define LCD_MAX_BUF 25
     29          //hal_lcd.h 中预定义液晶型号
     30          //LCD160100
     31          
     32          #ifdef LCD160100
     33          //***************************************************************************//
     34          //液晶为160X100 UC1608控制器
     35          //***************************************************************************//
     36          
     37          // LCD port/bit definitions
     38          #define LCD_CD                 P1_4
     39          #define LCD_WR0                P1_5
     40          #define LCD_SCLK               P1_7
     41          #define LCD_SDIN               P1_6
     42          
     43          //english_8x16_pixel
     44          // 8 x 16 font
     45          // index = ASCII - 32
     46          // ------------------  ASCII字模的数据表 ------------------------ //
     47          // 码表从0x20~0x7e                                                //
     48          // 字库:  横向取模左高位     //
     49          // -------------------------------------------------------------- //

   \                                 In  segment CODE_C, align 1
     50          __code const unsigned char font8x16[][16] =              // ASCII
   \                     font8x16:
   \   000000   00000000     DB 0, 0, 0, 0, 0, 0, 0, 0, 0, 0, 0, 0, 0, 0, 0, 0, 0, 0, 24, 60, 60, 60
   \            00000000
   \            00000000
   \            00000000
   \            0000183C
   \            3C3C    
   \   000016   18181800     DB 24, 24, 24, 0, 24, 24, 0, 0, 0, 0, 0, 102, 102, 102, 36, 0, 0, 0, 0
   \            18180000
   \            00000066
   \            66662400
   \            000000  
   \   000029   00000000     DB 0, 0, 0, 0, 0, 0, 0, 0, 0, 0, 108, 108, 254, 108, 108, 108, 254, 108
   \            00000000
   \            00006C6C
   \            FE6C6C6C
   \            FE6C    
   \   00003B   6C000000     DB 108, 0, 0, 0, 0, 24, 24, 124, 198, 194, 192, 124, 6, 134, 198, 124
   \            0018187C
   \            C6C2C07C
   \            0686C67C
   \   00004B   18180000     DB 24, 24, 0, 0, 0, 0, 0, 0, 0, 194, 198, 12, 24, 48, 96, 198, 134, 0
   \            00000000
   \            00C2C60C
   \            183060C6
   \            8600    
   \   00005D   00000000     DB 0, 0, 0, 0, 0, 56, 108, 108, 56, 118, 220, 204, 204, 204, 118, 0, 0
   \            00386C6C
   \            3876DCCC
   \            CCCC7600
   \            00      
   \   00006E   00000030     DB 0, 0, 0, 48, 48, 48, 96, 0, 0, 0, 0, 0, 0, 0, 0, 0, 0, 0, 0, 0, 12
   \            30306000
   \            00000000
   \            00000000
   \            00000000
   \            0C      
   \   000083   18303030     DB 24, 48, 48, 48, 48, 48, 48, 24, 12, 0, 0, 0, 0, 0, 0, 48, 24, 12, 12
   \            30303018
   \            0C000000
   \            00000030
   \            180C0C  
   \   000096   0C0C0C0C     DB 12, 12, 12, 12, 24, 48, 0, 0, 0, 0, 0, 0, 0, 0, 0, 102, 60, 255, 60
   \            18300000
   \            00000000
   \            00000066
   \            3CFF3C  
   \   0000A9   66000000     DB 102, 0, 0, 0, 0, 0, 0, 0, 0, 0, 0, 0, 24, 24, 126, 24, 24, 0, 0, 0
   \            00000000
   \            00000000
   \            18187E18
   \            18000000
   \   0000BD   00000000     DB 0, 0, 0, 0, 0, 0, 0, 0, 0, 0, 0, 0, 24, 24, 24, 48, 0, 0, 0, 0, 0, 0
   \            00000000
   \            00000000
   \            18181830
   \            00000000
   \            0000    
   \   0000D3   00000000     DB 0, 0, 0, 0, 254, 0, 0, 0, 0, 0, 0, 0, 0, 0, 0, 0, 0, 0, 0, 0, 0, 0
   \            FE000000
   \            00000000
   \            00000000
   \            00000000
   \            0000    
   \   0000E9   00181800     DB 0, 24, 24, 0, 0, 0, 0, 0, 0, 0, 0, 2, 6, 12, 24, 48, 96, 192, 128, 0
   \            00000000
   \            00000002
   \            060C1830
   \            60C08000
   \   0000FD   00000000     DB 0, 0, 0, 0, 0, 124, 198, 198, 206, 214, 214, 230, 198, 198, 124, 0
   \            007CC6C6
   \            CED6D6E6
   \            C6C67C00
   \   00010D   00000000     DB 0, 0, 0, 0, 0, 24, 56, 120, 24, 24, 24, 24, 24, 24, 126, 0, 0, 0, 0
   \            00183878
   \            18181818
   \            18187E00
   \            000000  
   \   000120   00007CC6     DB 0, 0, 124, 198, 6, 12, 24, 48, 96, 192, 198, 254, 0, 0, 0, 0, 0, 0
   \            060C1830
   \            60C0C6FE
   \            00000000
   \            0000    
   \   000132   7CC60606     DB 124, 198, 6, 6, 60, 6, 6, 6, 198, 124, 0, 0, 0, 0, 0, 0, 12, 28, 60
   \            3C060606
   \            C67C0000
   \            00000000
   \            0C1C3C  
   \   000145   6CCCFE0C     DB 108, 204, 254, 12, 12, 12, 30, 0, 0, 0, 0, 0, 0, 254, 192, 192, 192
   \            0C0C1E00
   \            00000000
   \            00FEC0C0
   \            C0      
   \   000156   FC0E0606     DB 252, 14, 6, 6, 198, 124, 0, 0, 0, 0, 0, 0, 56, 96, 192, 192, 252
   \            C67C0000
   \            00000000
   \            3860C0C0
   \            FC      
   \   000167   C6C6C6C6     DB 198, 198, 198, 198, 124, 0, 0, 0, 0, 0, 0, 254, 198, 6, 6, 12, 24
   \            7C000000
   \            000000FE
   \            C606060C
   \            18      
   \   000178   30303030     DB 48, 48, 48, 48, 0, 0, 0, 0, 0, 0, 124, 198, 198, 198, 124, 198, 198
   \            00000000
   \            00007CC6
   \            C6C67CC6
   \            C6      
   \   000189   C6C67C00     DB 198, 198, 124, 0, 0, 0, 0, 0, 0, 124, 198, 198, 198, 126, 6, 6, 6
   \            00000000
   \            007CC6C6
   \            C67E0606
   \            06      
   \   00019A   0C780000     DB 12, 120, 0, 0, 0, 0, 0, 0, 0, 0, 24, 24, 0, 0, 0, 24, 24, 0, 0, 0, 0
   \            00000000
   \            00001818
   \            00000018
   \            18000000
   \            00      
   \   0001AF   00000000     DB 0, 0, 0, 0, 0, 24, 24, 0, 0, 0, 24, 24, 48, 0, 0, 0, 0, 0, 0, 0, 6
   \            00181800
   \            00001818
   \            30000000
   \            00000000
   \            06      
   \   0001C4   0C183060     DB 12, 24, 48, 96, 48, 24, 12, 6, 0, 0, 0, 0, 0, 0, 0, 0, 0, 0, 254, 0
   \            30180C06
   \            00000000
   \            00000000
   \            0000FE00
   \   0001D8   00FE0000     DB 0, 254, 0, 0, 0, 0, 0, 0, 0, 0, 0, 96, 48, 24, 12, 6, 12, 24, 48, 96
   \            00000000
   \            00000060
   \            30180C06
   \            0C183060
   \   0001EC   00000000     DB 0, 0, 0, 0, 0, 0, 124, 198, 198, 12, 24, 24, 24, 0, 24, 24, 0, 0, 0
   \            00007CC6
   \            C60C1818
   \            18001818
   \            000000  
   \   0001FF   00000000     DB 0, 0, 0, 0, 124, 198, 198, 222, 222, 222, 220, 192, 124, 0, 0, 0, 0
   \            7CC6C6DE
   \            DEDEDCC0
   \            7C000000
   \            00      
   \   000210   00001038     DB 0, 0, 16, 56, 108, 198, 198, 254, 198, 198, 198, 198, 0, 0, 0, 0, 0
   \            6CC6C6FE
   \            C6C6C6C6
   \            00000000
   \            00      
   \   000221   00FC6666     DB 0, 252, 102, 102, 102, 124, 102, 102, 102, 102, 252, 0, 0, 0, 0, 0
   \            667C6666
   \            6666FC00
   \            00000000
   \   000231   003C66C2     DB 0, 60, 102, 194, 192, 192, 192, 192, 194, 102, 60, 0, 0, 0, 0, 0, 0
   \            C0C0C0C0
   \            C2663C00
   \            00000000
   \            00      
   \   000242   F86C6666     DB 248, 108, 102, 102, 102, 102, 102, 102, 108, 248, 0, 0, 0, 0, 0, 0
   \            66666666
   \            6CF80000
   \            00000000
   \   000252   FE666268     DB 254, 102, 98, 104, 120, 104, 96, 98, 102, 254, 0, 0, 0, 0, 0, 0, 254
   \            78686062
   \            66FE0000
   \            00000000
   \            FE      
   \   000263   66626878     DB 102, 98, 104, 120, 104, 96, 96, 96, 240, 0, 0, 0, 0, 0, 0, 60, 102
   \            68606060
   \            F0000000
   \            0000003C
   \            66      
   \   000274   C2C0C0DE     DB 194, 192, 192, 222, 198, 198, 102, 58, 0, 0, 0, 0, 0, 0, 198, 198
   \            C6C6663A
   \            00000000
   \            0000C6C6
   \   000284   C6C6FEC6     DB 198, 198, 254, 198, 198, 198, 198, 198, 0, 0, 0, 0, 0, 0, 60, 24, 24
   \            C6C6C6C6
   \            00000000
   \            00003C18
   \            18      
   \   000295   18181818     DB 24, 24, 24, 24, 24, 24, 60, 0, 0, 0, 0, 0, 0, 30, 12, 12, 12, 12, 12
   \            18183C00
   \            00000000
   \            001E0C0C
   \            0C0C0C  
   \   0002A8   CCCCCC78     DB 204, 204, 204, 120, 0, 0, 0, 0, 0, 0, 230, 102, 108, 108, 120, 120
   \            00000000
   \            0000E666
   \            6C6C7878
   \   0002B8   6C6666E6     DB 108, 102, 102, 230, 0, 0, 0, 0, 0, 0, 240, 96, 96, 96, 96, 96, 96
   \            00000000
   \            0000F060
   \            60606060
   \            60      
   \   0002C9   6266FE00     DB 98, 102, 254, 0, 0, 0, 0, 0, 0, 198, 238, 254, 254, 214, 198, 198
   \            00000000
   \            00C6EEFE
   \            FED6C6C6
   \   0002D9   C6C6C600     DB 198, 198, 198, 0, 0, 0, 0, 0, 0, 198, 230, 246, 254, 222, 206, 198
   \            00000000
   \            00C6E6F6
   \            FEDECEC6
   \   0002E9   C6C6C600     DB 198, 198, 198, 0, 0, 0, 0, 0, 0, 56, 108, 198, 198, 198, 198, 198
   \            00000000
   \            00386CC6
   \            C6C6C6C6
   \   0002F9   C66C3800     DB 198, 108, 56, 0, 0, 0, 0, 0, 0, 252, 102, 102, 102, 124, 96, 96, 96
   \            00000000
   \            00FC6666
   \            667C6060
   \            60      
   \   00030A   60F00000     DB 96, 240, 0, 0, 0, 0, 0, 0, 124, 198, 198, 198, 198, 198, 198, 214
   \            00000000
   \            7CC6C6C6
   \            C6C6C6D6
   \   00031A   DE7C0C0E     DB 222, 124, 12, 14, 0, 0, 0, 0, 252, 102, 102, 102, 124, 108, 102, 102
   \            00000000
   \            FC666666
   \            7C6C6666
   \   00032A   66E60000     DB 102, 230, 0, 0, 0, 0, 0, 0, 124, 198, 198, 96, 56, 12, 6, 198, 198
   \            00000000
   \            7CC6C660
   \            380C06C6
   \            C6      
   \   00033B   7C000000     DB 124, 0, 0, 0, 0, 0, 0, 126, 126, 90, 24, 24, 24, 24, 24, 24, 60, 0
   \            0000007E
   \            7E5A1818
   \            18181818
   \            3C00    
   \   00034D   00000000     DB 0, 0, 0, 0, 0, 198, 198, 198, 198, 198, 198, 198, 198, 198, 124, 0
   \            00C6C6C6
   \            C6C6C6C6
   \            C6C67C00
   \   00035D   00000000     DB 0, 0, 0, 0, 0, 198, 198, 198, 198, 198, 198, 198, 108, 56, 16, 0, 0
   \            00C6C6C6
   \            C6C6C6C6
   \            6C381000
   \            00      
   \   00036E   00000000     DB 0, 0, 0, 0, 198, 198, 198, 198, 198, 214, 214, 254, 108, 108, 0, 0
   \            C6C6C6C6
   \            C6D6D6FE
   \            6C6C0000
   \   00037E   00000000     DB 0, 0, 0, 0, 198, 198, 108, 108, 56, 56, 108, 108, 198, 198, 0, 0, 0
   \            C6C66C6C
   \            38386C6C
   \            C6C60000
   \            00      
   \   00038F   00000066     DB 0, 0, 0, 102, 102, 102, 102, 60, 24, 24, 24, 24, 60, 0, 0, 0, 0, 0
   \            6666663C
   \            18181818
   \            3C000000
   \            0000    
   \   0003A1   00FEC686     DB 0, 254, 198, 134, 12, 24, 48, 96, 194, 198, 254, 0, 0, 0, 0, 0, 0
   \            0C183060
   \            C2C6FE00
   \            00000000
   \            00      
   \   0003B2   3C303030     DB 60, 48, 48, 48, 48, 48, 48, 48, 48, 60, 0, 0, 0, 0, 0, 0, 0, 128
   \            30303030
   \            303C0000
   \            00000000
   \            0080    
   \   0003C4   C0E07038     DB 192, 224, 112, 56, 28, 14, 6, 2, 0, 0, 0, 0, 0, 0, 60, 12, 12, 12
   \            1C0E0602
   \            00000000
   \            00003C0C
   \            0C0C    
   \   0003D6   0C0C0C0C     DB 12, 12, 12, 12, 12, 60, 0, 0, 0, 0, 16, 56, 108, 198, 0, 0, 0, 0, 0
   \            0C3C0000
   \            00001038
   \            6CC60000
   \            000000  
   \   0003E9   00000000     DB 0, 0, 0, 0, 0, 0, 0, 0, 0, 0, 0, 0, 0, 0, 0, 0, 0, 0, 0, 0, 255, 0
   \            00000000
   \            00000000
   \            00000000
   \            00000000
   \            FF00    
   \   0003FF   00303018     DB 0, 48, 48, 24, 0, 0, 0, 0, 0, 0, 0, 0, 0, 0, 0, 0, 0, 0, 0, 0, 0, 0
   \            00000000
   \            00000000
   \            00000000
   \            00000000
   \            0000    
   \   000415   780C7CCC     DB 120, 12, 124, 204, 204, 204, 118, 0, 0, 0, 0, 0, 0, 224, 96, 96, 120
   \            CCCC7600
   \            00000000
   \            00E06060
   \            78      
   \   000426   6C666666     DB 108, 102, 102, 102, 102, 220, 0, 0, 0, 0, 0, 0, 0, 0, 0, 124, 198
   \            66DC0000
   \            00000000
   \            0000007C
   \            C6      
   \   000437   C0C0C0C6     DB 192, 192, 192, 198, 124, 0, 0, 0, 0, 0, 0, 28, 12, 12, 60, 108, 204
   \            7C000000
   \            0000001C
   \            0C0C3C6C
   \            CC      
   \   000448   CCCCCC76     DB 204, 204, 204, 118, 0, 0, 0, 0, 0, 0, 0, 0, 0, 124, 198, 254, 192
   \            00000000
   \            00000000
   \            007CC6FE
   \            C0      
   \   000459   C0C67C00     DB 192, 198, 124, 0, 0, 0, 0, 0, 0, 56, 108, 100, 96, 240, 96, 96, 96
   \            00000000
   \            00386C64
   \            60F06060
   \            60      
   \   00046A   60F00000     DB 96, 240, 0, 0, 0, 0, 0, 0, 0, 0, 0, 118, 204, 204, 204, 204, 204
   \            00000000
   \            00000076
   \            CCCCCCCC
   \            CC      
   \   00047B   7C0CCC78     DB 124, 12, 204, 120, 0, 0, 0, 224, 96, 96, 108, 118, 102, 102, 102
   \            000000E0
   \            60606C76
   \            666666  
   \   00048A   66E60000     DB 102, 230, 0, 0, 0, 0, 0, 0, 24, 24, 0, 56, 24, 24, 24, 24, 24, 60, 0
   \            00000000
   \            18180038
   \            18181818
   \            183C00  
   \   00049D   00000000     DB 0, 0, 0, 0, 0, 6, 6, 0, 14, 6, 6, 6, 6, 6, 6, 102, 102, 60, 0, 0, 0
   \            00060600
   \            0E060606
   \            06060666
   \            663C0000
   \            00      
   \   0004B2   E0606066     DB 224, 96, 96, 102, 108, 120, 120, 108, 102, 230, 0, 0, 0, 0, 0, 0, 56
   \            6C78786C
   \            66E60000
   \            00000000
   \            38      
   \   0004C3   18181818     DB 24, 24, 24, 24, 24, 24, 24, 24, 60, 0, 0, 0, 0, 0, 0, 0, 0, 0, 236
   \            18181818
   \            3C000000
   \            00000000
   \            0000EC  
   \   0004D6   FED6D6D6     DB 254, 214, 214, 214, 214, 214, 0, 0, 0, 0, 0, 0, 0, 0, 0, 220, 102
   \            D6D60000
   \            00000000
   \            000000DC
   \            66      
   \   0004E7   66666666     DB 102, 102, 102, 102, 102, 0, 0, 0, 0, 0, 0, 0, 0, 0, 124, 198, 198
   \            66000000
   \            00000000
   \            00007CC6
   \            C6      
   \   0004F8   C6C6C67C     DB 198, 198, 198, 124, 0, 0, 0, 0, 0, 0, 0, 0, 0, 220, 102, 102, 102
   \            00000000
   \            00000000
   \            00DC6666
   \            66      
   \   000509   66667C60     DB 102, 102, 124, 96, 96, 240, 0, 0, 0, 0, 0, 0, 118, 204, 204, 204
   \            60F00000
   \            00000000
   \            76CCCCCC
   \   000519   CCCC7C0C     DB 204, 204, 124, 12, 12, 30, 0, 0, 0, 0, 0, 0, 220, 118, 98, 96, 96
   \            0C1E0000
   \            00000000
   \            DC766260
   \            60      
   \   00052A   60F00000     DB 96, 240, 0, 0, 0, 0, 0, 0, 0, 0, 0, 124, 198, 96, 56, 12, 198, 124
   \            00000000
   \            0000007C
   \            C660380C
   \            C67C    
   \   00053C   00000000     DB 0, 0, 0, 0, 0, 0, 16, 48, 48, 252, 48, 48, 48, 48, 54, 28, 0, 0, 0
   \            00001030
   \            30FC3030
   \            3030361C
   \            000000  
   \   00054F   00000000     DB 0, 0, 0, 0, 0, 0, 204, 204, 204, 204, 204, 204, 118, 0, 0, 0, 0, 0
   \            0000CCCC
   \            CCCCCCCC
   \            76000000
   \            0000    
   \   000561   00000000     DB 0, 0, 0, 0, 102, 102, 102, 102, 102, 60, 24, 0, 0, 0, 0, 0, 0, 0, 0
   \            66666666
   \            663C1800
   \            00000000
   \            000000  
   \   000574   00C6C6C6     DB 0, 198, 198, 198, 214, 214, 254, 108, 0, 0, 0, 0, 0, 0, 0, 0, 0, 198
   \            D6D6FE6C
   \            00000000
   \            00000000
   \            00C6    
   \   000586   6C383838     DB 108, 56, 56, 56, 108, 198, 0, 0, 0, 0, 0, 0, 0, 0, 0, 198, 198, 198
   \            6CC60000
   \            00000000
   \            000000C6
   \            C6C6    
   \   000598   C6C6C67E     DB 198, 198, 198, 126, 6, 12, 248, 0, 0, 0, 0, 0, 0, 254, 204, 24, 48
   \            060CF800
   \            00000000
   \            00FECC18
   \            30      
   \   0005A9   60C6FE00     DB 96, 198, 254, 0, 0, 0, 0, 0, 0, 36, 36, 36, 36, 36, 36, 36, 36, 36
   \            00000000
   \            00242424
   \            24242424
   \            2424    
   \   0005BB   24240000     DB 36, 36, 0, 0, 0, 0, 0, 0, 0, 0, 32, 64, 255, 64, 32, 0, 0, 0, 0, 0
   \            00000000
   \            00002040
   \            FF402000
   \            00000000
   \   0005CF   00000000     DB 0, 0, 0, 0, 0, 0, 4, 2, 255, 2, 4, 0, 0, 0, 0, 0, 0, 0, 16, 56, 84
   \            00000402
   \            FF020400
   \            00000000
   \            00001038
   \            54      
   \   0005E4   10101010     DB 16, 16, 16, 16, 16, 16, 16, 16, 16, 16, 16, 0, 0, 16, 16, 16, 16, 16
   \            10101010
   \            10101000
   \            00101010
   \            1010    
   \   0005F6   10101010     DB 16, 16, 16, 16, 16, 16, 84, 56, 16, 0, 126, 126, 24, 24, 24, 24, 24
   \            10105438
   \            10007E7E
   \            18181818
   \            18      
   \   000607   18181818     DB 24, 24, 24, 24, 24, 24, 24, 24, 30, 30, 24, 24, 24, 24, 24, 24, 24
   \            18181818
   \            1E1E1818
   \            18181818
   \            18      
   \   000618   18181818     DB 24, 24, 24, 24, 24, 24, 126, 126
   \            18187E7E
     51          {
     52          	0x00,0x00,0x00,0x00,0x00,0x00,0x00,0x00,  // - -
     53          	0x00,0x00,0x00,0x00,0x00,0x00,0x00,0x00,
     54          
     55          	0x00,0x00,0x18,0x3C,0x3C,0x3C,0x18,0x18,  // -!-
     56          	0x18,0x00,0x18,0x18,0x00,0x00,0x00,0x00,
     57          
     58          	0x00,0x66,0x66,0x66,0x24,0x00,0x00,0x00,  // -"-
     59          	0x00,0x00,0x00,0x00,0x00,0x00,0x00,0x00,
     60          
     61          	0x00,0x00,0x00,0x6C,0x6C,0xFE,0x6C,0x6C,  // -#-
     62          	0x6C,0xFE,0x6C,0x6C,0x00,0x00,0x00,0x00,
     63          
     64          	0x18,0x18,0x7C,0xC6,0xC2,0xC0,0x7C,0x06,  // -$-
     65          	0x86,0xC6,0x7C,0x18,0x18,0x00,0x00,0x00,
     66          
     67          	0x00,0x00,0x00,0x00,0xC2,0xC6,0x0C,0x18,  // -%-
     68          	0x30,0x60,0xC6,0x86,0x00,0x00,0x00,0x00,
     69          
     70          	0x00,0x00,0x38,0x6C,0x6C,0x38,0x76,0xDC,  // -&-
     71          	0xCC,0xCC,0xCC,0x76,0x00,0x00,0x00,0x00,
     72          
     73          	0x00,0x30,0x30,0x30,0x60,0x00,0x00,0x00,  // -'-
     74          	0x00,0x00,0x00,0x00,0x00,0x00,0x00,0x00,
     75          
     76          	0x00,0x00,0x0C,0x18,0x30,0x30,0x30,0x30,  // -(-
     77          	0x30,0x30,0x18,0x0C,0x00,0x00,0x00,0x00,
     78          
     79          	0x00,0x00,0x30,0x18,0x0C,0x0C,0x0C,0x0C,  // -)-
     80          	0x0C,0x0C,0x18,0x30,0x00,0x00,0x00,0x00,
     81          
     82          	0x00,0x00,0x00,0x00,0x00,0x66,0x3C,0xFF,  // -*-
     83          	0x3C,0x66,0x00,0x00,0x00,0x00,0x00,0x00,
     84          
     85          	0x00,0x00,0x00,0x00,0x00,0x18,0x18,0x7E,  // -+-
     86          	0x18,0x18,0x00,0x00,0x00,0x00,0x00,0x00,
     87          
     88          	0x00,0x00,0x00,0x00,0x00,0x00,0x00,0x00,  // -,-
     89          	0x00,0x18,0x18,0x18,0x30,0x00,0x00,0x00,
     90          
     91          	0x00,0x00,0x00,0x00,0x00,0x00,0x00,0xFE,  // ---
     92          	0x00,0x00,0x00,0x00,0x00,0x00,0x00,0x00,
     93          
     94          	0x00,0x00,0x00,0x00,0x00,0x00,0x00,0x00,  // -.-
     95          	0x00,0x00,0x18,0x18,0x00,0x00,0x00,0x00,
     96          
     97          	0x00,0x00,0x00,0x00,0x02,0x06,0x0C,0x18,  // -/-
     98          	0x30,0x60,0xC0,0x80,0x00,0x00,0x00,0x00,
     99          
    100          	0x00,0x00,0x7C,0xC6,0xC6,0xCE,0xD6,0xD6,  // -0-
    101          	0xE6,0xC6,0xC6,0x7C,0x00,0x00,0x00,0x00,
    102          
    103          	0x00,0x00,0x18,0x38,0x78,0x18,0x18,0x18,  // -1-
    104          	0x18,0x18,0x18,0x7E,0x00,0x00,0x00,0x00,
    105          
    106          	0x00,0x00,0x7C,0xC6,0x06,0x0C,0x18,0x30,  // -2-
    107          	0x60,0xC0,0xC6,0xFE,0x00,0x00,0x00,0x00,
    108          
    109          	0x00,0x00,0x7C,0xC6,0x06,0x06,0x3C,0x06,  // -3-
    110          	0x06,0x06,0xC6,0x7C,0x00,0x00,0x00,0x00,
    111          
    112          	0x00,0x00,0x0C,0x1C,0x3C,0x6C,0xCC,0xFE,  // -4-
    113          	0x0C,0x0C,0x0C,0x1E,0x00,0x00,0x00,0x00,
    114          
    115          	0x00,0x00,0xFE,0xC0,0xC0,0xC0,0xFC,0x0E,  // -5-
    116          	0x06,0x06,0xC6,0x7C,0x00,0x00,0x00,0x00,
    117          
    118          	0x00,0x00,0x38,0x60,0xC0,0xC0,0xFC,0xC6,  // -6-
    119          	0xC6,0xC6,0xC6,0x7C,0x00,0x00,0x00,0x00,
    120          
    121          	0x00,0x00,0xFE,0xC6,0x06,0x06,0x0C,0x18,  // -7-
    122          	0x30,0x30,0x30,0x30,0x00,0x00,0x00,0x00,
    123          
    124          	0x00,0x00,0x7C,0xC6,0xC6,0xC6,0x7C,0xC6,  // -8-
    125          	0xC6,0xC6,0xC6,0x7C,0x00,0x00,0x00,0x00,
    126          
    127          	0x00,0x00,0x7C,0xC6,0xC6,0xC6,0x7E,0x06,  // -9-
    128          	0x06,0x06,0x0C,0x78,0x00,0x00,0x00,0x00,
    129          
    130          	0x00,0x00,0x00,0x00,0x18,0x18,0x00,0x00,  // -:-
    131          	0x00,0x18,0x18,0x00,0x00,0x00,0x00,0x00,
    132          
    133          	0x00,0x00,0x00,0x00,0x18,0x18,0x00,0x00,  // -;-
    134          	0x00,0x18,0x18,0x30,0x00,0x00,0x00,0x00,
    135          
    136          	0x00,0x00,0x00,0x06,0x0C,0x18,0x30,0x60,  // -<-
    137          	0x30,0x18,0x0C,0x06,0x00,0x00,0x00,0x00,
    138          
    139          	0x00,0x00,0x00,0x00,0x00,0x00,0xFE,0x00,  // -=-
    140          	0x00,0xFE,0x00,0x00,0x00,0x00,0x00,0x00,
    141          
    142          	0x00,0x00,0x00,0x60,0x30,0x18,0x0C,0x06,  // ->-
    143          	0x0C,0x18,0x30,0x60,0x00,0x00,0x00,0x00,
    144          
    145          	0x00,0x00,0x7C,0xC6,0xC6,0x0C,0x18,0x18,  // -?-
    146          	0x18,0x00,0x18,0x18,0x00,0x00,0x00,0x00,
    147          
    148          	0x00,0x00,0x00,0x7C,0xC6,0xC6,0xDE,0xDE,  // -@-
    149          	0xDE,0xDC,0xC0,0x7C,0x00,0x00,0x00,0x00,
    150          
    151          	0x00,0x00,0x10,0x38,0x6C,0xC6,0xC6,0xFE,  // -A-
    152          	0xC6,0xC6,0xC6,0xC6,0x00,0x00,0x00,0x00,
    153          
    154          	0x00,0x00,0xFC,0x66,0x66,0x66,0x7C,0x66,  // -B-
    155          	0x66,0x66,0x66,0xFC,0x00,0x00,0x00,0x00,
    156          
    157          	0x00,0x00,0x3C,0x66,0xC2,0xC0,0xC0,0xC0,  // -C-
    158          	0xC0,0xC2,0x66,0x3C,0x00,0x00,0x00,0x00,
    159          
    160          	0x00,0x00,0xF8,0x6C,0x66,0x66,0x66,0x66,  // -D-
    161          	0x66,0x66,0x6C,0xF8,0x00,0x00,0x00,0x00,
    162          
    163          	0x00,0x00,0xFE,0x66,0x62,0x68,0x78,0x68,  // -E-
    164          	0x60,0x62,0x66,0xFE,0x00,0x00,0x00,0x00,
    165          
    166          	0x00,0x00,0xFE,0x66,0x62,0x68,0x78,0x68,  // -F-
    167          	0x60,0x60,0x60,0xF0,0x00,0x00,0x00,0x00,
    168          
    169          	0x00,0x00,0x3C,0x66,0xC2,0xC0,0xC0,0xDE,  // -G-
    170          	0xC6,0xC6,0x66,0x3A,0x00,0x00,0x00,0x00,
    171          
    172          	0x00,0x00,0xC6,0xC6,0xC6,0xC6,0xFE,0xC6,  // -H-
    173          	0xC6,0xC6,0xC6,0xC6,0x00,0x00,0x00,0x00,
    174          
    175          	0x00,0x00,0x3C,0x18,0x18,0x18,0x18,0x18,  // -I-
    176          	0x18,0x18,0x18,0x3C,0x00,0x00,0x00,0x00,
    177          
    178          	0x00,0x00,0x1E,0x0C,0x0C,0x0C,0x0C,0x0C,  // -J-
    179          	0xCC,0xCC,0xCC,0x78,0x00,0x00,0x00,0x00,
    180          
    181          	0x00,0x00,0xE6,0x66,0x6C,0x6C,0x78,0x78,  // -K-
    182          	0x6C,0x66,0x66,0xE6,0x00,0x00,0x00,0x00,
    183          
    184          	0x00,0x00,0xF0,0x60,0x60,0x60,0x60,0x60,  // -L-
    185          	0x60,0x62,0x66,0xFE,0x00,0x00,0x00,0x00,
    186          
    187          	0x00,0x00,0xC6,0xEE,0xFE,0xFE,0xD6,0xC6,  // -M-
    188          	0xC6,0xC6,0xC6,0xC6,0x00,0x00,0x00,0x00,
    189          
    190          	0x00,0x00,0xC6,0xE6,0xF6,0xFE,0xDE,0xCE,  // -N-
    191          	0xC6,0xC6,0xC6,0xC6,0x00,0x00,0x00,0x00,
    192          
    193          	0x00,0x00,0x38,0x6C,0xC6,0xC6,0xC6,0xC6,  // -O-
    194          	0xC6,0xC6,0x6C,0x38,0x00,0x00,0x00,0x00,
    195          
    196          	0x00,0x00,0xFC,0x66,0x66,0x66,0x7C,0x60,  // -P-
    197          	0x60,0x60,0x60,0xF0,0x00,0x00,0x00,0x00,
    198          
    199          	0x00,0x00,0x7C,0xC6,0xC6,0xC6,0xC6,0xC6,  // -Q-
    200          	0xC6,0xD6,0xDE,0x7C,0x0C,0x0E,0x00,0x00,
    201          
    202          	0x00,0x00,0xFC,0x66,0x66,0x66,0x7C,0x6C,  // -R-
    203          	0x66,0x66,0x66,0xE6,0x00,0x00,0x00,0x00,
    204          
    205          	0x00,0x00,0x7C,0xC6,0xC6,0x60,0x38,0x0C,  // -S-
    206          	0x06,0xC6,0xC6,0x7C,0x00,0x00,0x00,0x00,
    207          
    208          	0x00,0x00,0x7E,0x7E,0x5A,0x18,0x18,0x18,  // -T-
    209          	0x18,0x18,0x18,0x3C,0x00,0x00,0x00,0x00,
    210          
    211          	0x00,0x00,0xC6,0xC6,0xC6,0xC6,0xC6,0xC6,  // -U-
    212          	0xC6,0xC6,0xC6,0x7C,0x00,0x00,0x00,0x00,
    213          
    214          	0x00,0x00,0xC6,0xC6,0xC6,0xC6,0xC6,0xC6,  // -V-
    215          	0xC6,0x6C,0x38,0x10,0x00,0x00,0x00,0x00,
    216          
    217          	0x00,0x00,0xC6,0xC6,0xC6,0xC6,0xC6,0xD6,  // -W-
    218          	0xD6,0xFE,0x6C,0x6C,0x00,0x00,0x00,0x00,
    219          
    220          	0x00,0x00,0xC6,0xC6,0x6C,0x6C,0x38,0x38,  // -X-
    221          	0x6C,0x6C,0xC6,0xC6,0x00,0x00,0x00,0x00,
    222          
    223          	0x00,0x00,0x66,0x66,0x66,0x66,0x3C,0x18,  // -Y-
    224          	0x18,0x18,0x18,0x3C,0x00,0x00,0x00,0x00,
    225          
    226          	0x00,0x00,0xFE,0xC6,0x86,0x0C,0x18,0x30,  // -Z-
    227          	0x60,0xC2,0xC6,0xFE,0x00,0x00,0x00,0x00,
    228          
    229          	0x00,0x00,0x3C,0x30,0x30,0x30,0x30,0x30,  // -[-
    230          	0x30,0x30,0x30,0x3C,0x00,0x00,0x00,0x00,
    231          
    232          	0x00,0x00,0x00,0x80,0xC0,0xE0,0x70,0x38,  // -\-
    233          	0x1C,0x0E,0x06,0x02,0x00,0x00,0x00,0x00,
    234          
    235          	0x00,0x00,0x3C,0x0C,0x0C,0x0C,0x0C,0x0C,  // -]-
    236          	0x0C,0x0C,0x0C,0x3C,0x00,0x00,0x00,0x00,
    237          
    238          	0x10,0x38,0x6C,0xC6,0x00,0x00,0x00,0x00,  // -^-
    239          	0x00,0x00,0x00,0x00,0x00,0x00,0x00,0x00,
    240          
    241          	0x00,0x00,0x00,0x00,0x00,0x00,0x00,0x00,  // -_-
    242          	0x00,0x00,0x00,0x00,0x00,0xFF,0x00,0x00,
    243          
    244          	0x30,0x30,0x18,0x00,0x00,0x00,0x00,0x00,  // -`-
    245          	0x00,0x00,0x00,0x00,0x00,0x00,0x00,0x00,
    246          
    247          	0x00,0x00,0x00,0x00,0x00,0x78,0x0C,0x7C,  // -a-
    248          	0xCC,0xCC,0xCC,0x76,0x00,0x00,0x00,0x00,
    249          
    250          	0x00,0x00,0xE0,0x60,0x60,0x78,0x6C,0x66,  // -b-
    251          	0x66,0x66,0x66,0xDC,0x00,0x00,0x00,0x00,
    252          
    253          	0x00,0x00,0x00,0x00,0x00,0x7C,0xC6,0xC0,  // -c-
    254          	0xC0,0xC0,0xC6,0x7C,0x00,0x00,0x00,0x00,
    255          
    256          	0x00,0x00,0x1C,0x0C,0x0C,0x3C,0x6C,0xCC,  // -d-
    257          	0xCC,0xCC,0xCC,0x76,0x00,0x00,0x00,0x00,
    258          
    259          	0x00,0x00,0x00,0x00,0x00,0x7C,0xC6,0xFE,  // -e-
    260          	0xC0,0xC0,0xC6,0x7C,0x00,0x00,0x00,0x00,
    261          
    262          	0x00,0x00,0x38,0x6C,0x64,0x60,0xF0,0x60,  // -f-
    263          	0x60,0x60,0x60,0xF0,0x00,0x00,0x00,0x00,
    264          
    265          	0x00,0x00,0x00,0x00,0x00,0x76,0xCC,0xCC,  // -g-
    266          	0xCC,0xCC,0xCC,0x7C,0x0C,0xCC,0x78,0x00,
    267          
    268          	0x00,0x00,0xE0,0x60,0x60,0x6C,0x76,0x66,  // -h-
    269          	0x66,0x66,0x66,0xE6,0x00,0x00,0x00,0x00,
    270          
    271          	0x00,0x00,0x18,0x18,0x00,0x38,0x18,0x18,  // -i-
    272          	0x18,0x18,0x18,0x3C,0x00,0x00,0x00,0x00,
    273          
    274          	0x00,0x00,0x06,0x06,0x00,0x0E,0x06,0x06,  // -j-
    275          	0x06,0x06,0x06,0x06,0x66,0x66,0x3C,0x00,
    276          
    277          	0x00,0x00,0xE0,0x60,0x60,0x66,0x6C,0x78,  // -k-
    278          	0x78,0x6C,0x66,0xE6,0x00,0x00,0x00,0x00,
    279          
    280          	0x00,0x00,0x38,0x18,0x18,0x18,0x18,0x18,  // -l-
    281          	0x18,0x18,0x18,0x3C,0x00,0x00,0x00,0x00,
    282          
    283          	0x00,0x00,0x00,0x00,0x00,0xEC,0xFE,0xD6,  // -m-
    284          	0xD6,0xD6,0xD6,0xD6,0x00,0x00,0x00,0x00,
    285          
    286          	0x00,0x00,0x00,0x00,0x00,0xDC,0x66,0x66,  // -n-
    287          	0x66,0x66,0x66,0x66,0x00,0x00,0x00,0x00,
    288          
    289          	0x00,0x00,0x00,0x00,0x00,0x7C,0xC6,0xC6,  // -o-
    290          	0xC6,0xC6,0xC6,0x7C,0x00,0x00,0x00,0x00,
    291          
    292          	0x00,0x00,0x00,0x00,0x00,0xDC,0x66,0x66,  // -p-
    293          	0x66,0x66,0x66,0x7C,0x60,0x60,0xF0,0x00,
    294          
    295          	0x00,0x00,0x00,0x00,0x00,0x76,0xCC,0xCC,  // -q-
    296          	0xCC,0xCC,0xCC,0x7C,0x0C,0x0C,0x1E,0x00,
    297          
    298          	0x00,0x00,0x00,0x00,0x00,0xDC,0x76,0x62,  // -r-
    299          	0x60,0x60,0x60,0xF0,0x00,0x00,0x00,0x00,
    300          
    301          	0x00,0x00,0x00,0x00,0x00,0x7C,0xC6,0x60,  // -s-
    302          	0x38,0x0C,0xC6,0x7C,0x00,0x00,0x00,0x00,
    303          
    304          	0x00,0x00,0x10,0x30,0x30,0xFC,0x30,0x30,  // -t-
    305          	0x30,0x30,0x36,0x1C,0x00,0x00,0x00,0x00,
    306          
    307          	0x00,0x00,0x00,0x00,0x00,0xCC,0xCC,0xCC,  // -u-
    308          	0xCC,0xCC,0xCC,0x76,0x00,0x00,0x00,0x00,
    309          
    310          	0x00,0x00,0x00,0x00,0x00,0x66,0x66,0x66,  // -v-
    311          	0x66,0x66,0x3C,0x18,0x00,0x00,0x00,0x00,
    312          
    313          	0x00,0x00,0x00,0x00,0x00,0xC6,0xC6,0xC6,  // -w-
    314          	0xD6,0xD6,0xFE,0x6C,0x00,0x00,0x00,0x00,
    315          
    316          	0x00,0x00,0x00,0x00,0x00,0xC6,0x6C,0x38,  // -x-
    317          	0x38,0x38,0x6C,0xC6,0x00,0x00,0x00,0x00,
    318          
    319          	0x00,0x00,0x00,0x00,0x00,0xC6,0xC6,0xC6,  // -y-
    320          	0xC6,0xC6,0xC6,0x7E,0x06,0x0C,0xF8,0x00,
    321          
    322          	0x00,0x00,0x00,0x00,0x00,0xFE,0xCC,0x18,  // -z-
    323          	0x30,0x60,0xC6,0xFE,0x00,0x00,0x00,0x00,
    324          	
    325          	0x00,0x00,0x24,0x24,0x24,0x24,0x24,0x24,  // -||-    91
    326          	0x24,0x24,0x24,0x24,0x24,0x00,0x00,0x00,
    327          
    328          	0x00,0x00,0x00,0x00,0x00,0x20,0x40,0xFF,  // -<--    92
    329          	0x40,0x20,0x00,0x00,0x00,0x00,0x00,0x00,
    330          
    331          	0x00,0x00,0x00,0x00,0x00,0x04,0x02,0xFF,  // ->-     93
    332          	0x02,0x04,0x00,0x00,0x00,0x00,0x00,0x00,
    333          
    334          	0x00,0x10,0x38,0x54,0x10,0x10,0x10,0x10,  // -up-    94
    335          	0x10,0x10,0x10,0x10,0x10,0x10,0x10,0x00,
    336          
    337          	0x00,0x10,0x10,0x10,0x10,0x10,0x10,0x10,  // -down-  95
    338          	0x10,0x10,0x10,0x10,0x54,0x38,0x10,0x00,
    339          	
    340          	0x7E,0x7E,0x18,0x18,0x18,0x18,0x18,0x18,  // -ADC Series上用的上划线-
    341          	0x18,0x18,0x18,0x18,0x18,0x18,0x18,0x1E,
    342          
    343          	0x1E,0x18,0x18,0x18,0x18,0x18,0x18,0x18,  // -ADC Series上用的下划线-
    344          	0x18,0x18,0x18,0x18,0x18,0x18,0x7E,0x7E,
    345          };
    346          
    347          #else
    348          
    349          //***************************************************************************//
    350          //液晶为84x48 3310
    351          //***************************************************************************//
    352          
    353          // LCD port/bit definitions
    354          #define LCD_DC                 P1_7
    355          #define LCD_SDA                P1_6
    356          #define LCD_SCL                P1_5
    357          #define LCD_CE                 P1_4
    358          
    359          /**************************************/
    360          //english_6x8_pixel
    361          // 6 x 8 font
    362          // 1 pixel space at left and bottom
    363          // index = ASCII - 32
    364          __code const unsigned char font6x8[][6] =
    365          {
    366            { 0x00, 0x00, 0x00, 0x00, 0x00, 0x00 },   // sp  0
    367            { 0x00, 0x00, 0x00, 0x2f, 0x00, 0x00 },   // !   1
    368            { 0x00, 0x00, 0x07, 0x00, 0x07, 0x00 },   // "   2
    369            { 0x00, 0x14, 0x7f, 0x14, 0x7f, 0x14 },   // #   3
    370            { 0x00, 0x24, 0x2a, 0x7f, 0x2a, 0x12 },   // $   4
    371            { 0x00, 0x62, 0x64, 0x08, 0x13, 0x23 },   // %   5
    372            { 0x00, 0x36, 0x49, 0x55, 0x22, 0x50 },   // &   6
    373            { 0x00, 0x00, 0x05, 0x03, 0x00, 0x00 },   // '   7
    374            { 0x00, 0x00, 0x1c, 0x22, 0x41, 0x00 },   // (   8
    375            { 0x00, 0x00, 0x41, 0x22, 0x1c, 0x00 },   // )   9
    376            { 0x00, 0x14, 0x08, 0x3E, 0x08, 0x14 },   // *   10
    377            { 0x00, 0x08, 0x08, 0x3E, 0x08, 0x08 },   // +   11
    378            { 0x00, 0x00, 0x00, 0xA0, 0x60, 0x00 },   // ,   12
    379            { 0x00, 0x08, 0x08, 0x08, 0x08, 0x08 },   // -   13
    380            { 0x00, 0x00, 0x60, 0x60, 0x00, 0x00 },   // .   14
    381            { 0x00, 0x20, 0x10, 0x08, 0x04, 0x02 },   // /   15
    382            { 0x00, 0x3E, 0x51, 0x49, 0x45, 0x3E },   // 0   16
    383            { 0x00, 0x00, 0x42, 0x7F, 0x40, 0x00 },   // 1   17
    384            { 0x00, 0x42, 0x61, 0x51, 0x49, 0x46 },   // 2   18
    385            { 0x00, 0x21, 0x41, 0x45, 0x4B, 0x31 },   // 3   19
    386            { 0x00, 0x18, 0x14, 0x12, 0x7F, 0x10 },   // 4   20
    387            { 0x00, 0x27, 0x45, 0x45, 0x45, 0x39 },   // 5   21
    388            { 0x00, 0x3C, 0x4A, 0x49, 0x49, 0x30 },   // 6   22
    389            { 0x00, 0x01, 0x71, 0x09, 0x05, 0x03 },   // 7   23
    390            { 0x00, 0x36, 0x49, 0x49, 0x49, 0x36 },   // 8   24
    391            { 0x00, 0x06, 0x49, 0x49, 0x29, 0x1E },   // 9   25
    392            { 0x00, 0x00, 0x36, 0x36, 0x00, 0x00 },   // :   26
    393            { 0x00, 0x00, 0x56, 0x36, 0x00, 0x00 },   // ;   27
    394            { 0x00, 0x08, 0x14, 0x22, 0x41, 0x00 },   // <   28
    395            { 0x00, 0x14, 0x14, 0x14, 0x14, 0x14 },   // =   29
    396            { 0x00, 0x00, 0x41, 0x22, 0x14, 0x08 },   // >   30
    397            { 0x00, 0x02, 0x01, 0x51, 0x09, 0x06 },   // ?   31
    398            { 0x00, 0x32, 0x49, 0x59, 0x51, 0x3E },   // @   32
    399            { 0x00, 0x7C, 0x12, 0x11, 0x12, 0x7C },   // A   33
    400            { 0x00, 0x7F, 0x49, 0x49, 0x49, 0x36 },   // B   34
    401            { 0x00, 0x3E, 0x41, 0x41, 0x41, 0x22 },   // C   35
    402            { 0x00, 0x7F, 0x41, 0x41, 0x22, 0x1C },   // D   36
    403            { 0x00, 0x7F, 0x49, 0x49, 0x49, 0x41 },   // E   37
    404            { 0x00, 0x7F, 0x09, 0x09, 0x09, 0x01 },   // F   38
    405            { 0x00, 0x3E, 0x41, 0x49, 0x49, 0x7A },   // G   39
    406            { 0x00, 0x7F, 0x08, 0x08, 0x08, 0x7F },   // H   40
    407            { 0x00, 0x00, 0x41, 0x7F, 0x41, 0x00 },   // I   41
    408            { 0x00, 0x20, 0x40, 0x41, 0x3F, 0x01 },   // J   42
    409            { 0x00, 0x7F, 0x08, 0x14, 0x22, 0x41 },   // K   43
    410            { 0x00, 0x7F, 0x40, 0x40, 0x40, 0x40 },   // L   44
    411            { 0x00, 0x7F, 0x02, 0x0C, 0x02, 0x7F },   // M   45
    412            { 0x00, 0x7F, 0x04, 0x08, 0x10, 0x7F },   // N   46
    413            { 0x00, 0x3E, 0x41, 0x41, 0x41, 0x3E },   // O   47
    414            { 0x00, 0x7F, 0x09, 0x09, 0x09, 0x06 },   // P   48
    415            { 0x00, 0x3E, 0x41, 0x51, 0x21, 0x5E },   // Q   49
    416            { 0x00, 0x7F, 0x09, 0x19, 0x29, 0x46 },   // R   50
    417            { 0x00, 0x46, 0x49, 0x49, 0x49, 0x31 },   // S   51
    418            { 0x00, 0x01, 0x01, 0x7F, 0x01, 0x01 },   // T   52
    419            { 0x00, 0x3F, 0x40, 0x40, 0x40, 0x3F },   // U   53
    420            { 0x00, 0x1F, 0x20, 0x40, 0x20, 0x1F },   // V   54
    421            { 0x00, 0x3F, 0x40, 0x38, 0x40, 0x3F },   // W   55
    422            { 0x00, 0x63, 0x14, 0x08, 0x14, 0x63 },   // X   56
    423            { 0x00, 0x07, 0x08, 0x70, 0x08, 0x07 },   // Y   57
    424            { 0x00, 0x61, 0x51, 0x49, 0x45, 0x43 },   // Z   58
    425            { 0x00, 0x00, 0x7F, 0x41, 0x41, 0x00 },   // [   59
    426            { 0x00, 0x55, 0x2A, 0x55, 0x2A, 0x55 },   // 55  60
    427            { 0x00, 0x00, 0x41, 0x41, 0x7F, 0x00 },   // ]   61
    428            { 0x00, 0x04, 0x02, 0x01, 0x02, 0x04 },   // ^   62
    429            { 0x00, 0x40, 0x40, 0x40, 0x40, 0x40 },   // _   63
    430            { 0x00, 0x00, 0x01, 0x02, 0x04, 0x00 },   // '   64
    431            { 0x00, 0x20, 0x54, 0x54, 0x54, 0x78 },   // a   65
    432            { 0x00, 0x7F, 0x48, 0x44, 0x44, 0x38 },   // b   66
    433            { 0x00, 0x38, 0x44, 0x44, 0x44, 0x20 },   // c   67
    434            { 0x00, 0x38, 0x44, 0x44, 0x48, 0x7F },   // d   68
    435            { 0x00, 0x38, 0x54, 0x54, 0x54, 0x18 },   // e   69
    436            { 0x00, 0x08, 0x7E, 0x09, 0x01, 0x02 },   // f   70
    437            { 0x00, 0x18, 0xA4, 0xA4, 0xA4, 0x7C },   // g   71
    438            { 0x00, 0x7F, 0x08, 0x04, 0x04, 0x78 },   // h   72
    439            { 0x00, 0x00, 0x44, 0x7D, 0x40, 0x00 },   // i   73
    440            { 0x00, 0x40, 0x80, 0x84, 0x7D, 0x00 },   // j   74
    441            { 0x00, 0x7F, 0x10, 0x28, 0x44, 0x00 },   // k   75
    442            { 0x00, 0x00, 0x41, 0x7F, 0x40, 0x00 },   // l   76
    443            { 0x00, 0x7C, 0x04, 0x18, 0x04, 0x78 },   // m   77
    444            { 0x00, 0x7C, 0x08, 0x04, 0x04, 0x78 },   // n   78
    445            { 0x00, 0x38, 0x44, 0x44, 0x44, 0x38 },   // o   79
    446            { 0x00, 0xFC, 0x24, 0x24, 0x24, 0x18 },   // p   80
    447            { 0x00, 0x18, 0x24, 0x24, 0x18, 0xFC },   // q   81
    448            { 0x00, 0x7C, 0x08, 0x04, 0x04, 0x08 },   // r   82
    449            { 0x00, 0x48, 0x54, 0x54, 0x54, 0x20 },   // s   83
    450            { 0x00, 0x04, 0x3F, 0x44, 0x40, 0x20 },   // t   84
    451            { 0x00, 0x3C, 0x40, 0x40, 0x20, 0x7C },   // u   85
    452            { 0x00, 0x1C, 0x20, 0x40, 0x20, 0x1C },   // v   86
    453            { 0x00, 0x3C, 0x40, 0x30, 0x40, 0x3C },   // w   87
    454            { 0x00, 0x44, 0x28, 0x10, 0x28, 0x44 },   // x   88
    455            { 0x00, 0x1C, 0xA0, 0xA0, 0xA0, 0x7C },   // y   89
    456            { 0x00, 0x44, 0x64, 0x54, 0x4C, 0x44 },   // z   90
    457            { 0x00, 0x00, 0xff, 0xff, 0x00, 0x00 },   // ||  91
    458            { 0x08, 0x1c, 0x2a, 0x08, 0x08, 0x08 },   // <-  92
    459            { 0x08, 0x08, 0x08, 0x2a, 0x1c, 0x08 },   // ->  94
    460            { 0x04, 0x02, 0xff, 0x02, 0x04, 0x00 },   // up  94
    461            { 0x00, 0x20, 0x40, 0xff, 0x40, 0x20 }    // down  95
    462          };
    463          
    464          #endif
    465          /**************************************************************************************************
    466           *                                       GLOBAL VARIABLES
    467           **************************************************************************************************/
    468          #ifdef LCD_HW

   \                                 In  segment XDATA_Z, align 1, keep-with-next
    469          static uint8 *Lcd_Line1;
   \                     Lcd_Line1:
   \   000000                DS 2
   \   000002                REQUIRE __INIT_XDATA_Z
    470          #endif
    471          /**************************************************************************************************
    472           *                                       FUNCTIONS - API
    473           **************************************************************************************************/
    474          #if (defined LCD_HW) && (HAL_LCD == TRUE)
    475          
    476          #ifdef LCD160100
    477          //***************************************************************************//
    478          //液晶为160X100 UC1608控制器
    479          //***************************************************************************//
    480          
    481          /************ 延时函数 ******************************/
    482          
    483          //延时n us
    484          

   \                                 In  segment BANKED_CODE, align 1, keep-with-next
    485          static void Delay_us(unsigned int n)
   \                     Delay_us:
    486          {
   \   000000                ; Saved register size: 0
   \   000000                ; Auto size: 0
    487            unsigned int i;
    488            unsigned int j;
    489            for(i = 0; i < n; i++)
   \   000000   7800         MOV     R0,#0x0
   \   000002   7900         MOV     R1,#0x0
   \   000004   800E         SJMP    ??Delay_us_0
    490            for(j = 1; j<0x05; j++)
   \                     ??Delay_us_1:
   \   000006   7C04         MOV     R4,#0x4
   \                     ??Delay_us_2:
   \   000008   1C           DEC     R4
   \   000009   EC           MOV     A,R4
   \   00000A   70FC         JNZ     ??Delay_us_2
   \   00000C   E8           MOV     A,R0
   \   00000D   2401         ADD     A,#0x1
   \   00000F   08           INC     R0
   \   000010   E9           MOV     A,R1
   \   000011   3400         ADDC    A,#0x0
   \   000013   F9           MOV     R1,A
   \                     ??Delay_us_0:
   \   000014   C3           CLR     C
   \   000015   E8           MOV     A,R0
   \   000016   9A           SUBB    A,R2
   \   000017   E9           MOV     A,R1
   \   000018   9B           SUBB    A,R3
   \   000019   40EB         JC      ??Delay_us_1
    491                ;
    492          }
   \   00001B   02....       LJMP    ?BRET
    493          
    494          //164输出数据
    495          

   \                                 In  segment BANKED_CODE, align 1, keep-with-next
    496          static void OutData_164(unsigned char Indata)
   \                     OutData_164:
    497          {
   \   000000                ; Saved register size: 0
   \   000000                ; Auto size: 0
    498            unsigned char i;
    499            for(i=0;i<8;i++)
   \   000000   7A08         MOV     R2,#0x8
    500            {
    501              if(Indata&0x80)
   \                     ??OutData_164_0:
   \   000002   E9           MOV     A,R1
   \   000003   A2E7         MOV     C,0xE0 /* A   */.7
   \   000005   5004         JNC     ??OutData_164_1
    502              {
    503                LCD_SDIN=1;
   \   000007   D296         SETB    0x90.6
   \   000009   8002         SJMP    ??OutData_164_2
    504              }
    505              else
    506              {
    507                LCD_SDIN=0;
   \                     ??OutData_164_1:
   \   00000B   C296         CLR     0x90.6
    508              }
    509              LCD_SCLK=0;
   \                     ??OutData_164_2:
   \   00000D   C297         CLR     0x90.7
    510              __no_operation();
   \   00000F   00           NOP
    511              __no_operation();
   \   000010   00           NOP
    512              LCD_SCLK=1;
   \   000011   D297         SETB    0x90.7
    513              __no_operation();
   \   000013   00           NOP
    514              __no_operation();
   \   000014   00           NOP
    515              LCD_SCLK=0;
   \   000015   C297         CLR     0x90.7
    516              Indata=Indata<<1;	
   \   000017   C3           CLR     C
   \   000018   33           RLC     A
   \   000019   F9           MOV     R1,A
    517            }
   \   00001A   1A           DEC     R2
   \   00001B   EA           MOV     A,R2
   \   00001C   70E4         JNZ     ??OutData_164_0
    518          }
   \   00001E   02....       LJMP    ?BRET
   \   000021                REQUIRE _A_P1
    519          
    520          //写数据
    521          

   \                                 In  segment BANKED_CODE, align 1, keep-with-next
    522          static void DatWrite(unsigned char dat)
   \                     DatWrite:
    523          {	
   \   000000   C082         PUSH    DPL
   \   000002   C083         PUSH    DPH
   \   000004                ; Saved register size: 2
   \   000004                ; Auto size: 0
    524            LCD_CD=1;
   \   000004   D294         SETB    0x90.4
    525            LCD_WR0=0;
   \   000006                REQUIRE ?Subroutine17
   \   000006                REQUIRE _A_P1
   \   000006                ; // Fall through to label ?Subroutine17
    526            OutData_164(dat);
    527            Delay_us(1);
    528            LCD_WR0=1;
    529            Delay_us(1);
    530          }

   \                                 In  segment BANKED_CODE, align 1, keep-with-next
   \                     ?Subroutine17:
   \   000000   12....       LCALL   ?Subroutine0 & 0xFFFF
   \                     ??Subroutine17_0:
   \   000003   D083         POP     DPH
   \   000005   D082         POP     DPL
   \   000007   02....       LJMP    ?BRET

   \                                 In  segment BANKED_CODE, align 1, keep-with-next
   \                     ?Subroutine0:
   \   000000   C295         CLR     0x90.5
   \   000002                ; Setup parameters for call to function OutData_164
   \   000002                ; Setup parameters for call to function OutData_164
   \   000002   12....       LCALL   ??OutData_164?relay
   \   000005                ; Setup parameters for call to function Delay_us
   \   000005                ; Setup parameters for call to function Delay_us
   \   000005   7A01         MOV     R2,#0x1
   \   000007   7B00         MOV     R3,#0x0
   \   000009   12....       LCALL   ??Delay_us?relay
   \   00000C   D295         SETB    0x90.5
   \   00000E                ; Setup parameters for call to function Delay_us
   \   00000E                ; Setup parameters for call to function Delay_us
   \   00000E   7A01         MOV     R2,#0x1
   \   000010   7B00         MOV     R3,#0x0
   \   000012   12....       LCALL   ??Delay_us?relay
   \   000015   22           RET
    531          
    532          //写命令
    533          

   \                                 In  segment BANKED_CODE, align 1, keep-with-next
    534          static void ComWrite(unsigned char com)
   \                     ComWrite:
    535          {
   \   000000   C082         PUSH    DPL
   \   000002   C083         PUSH    DPH
   \   000004                ; Saved register size: 2
   \   000004                ; Auto size: 0
    536            LCD_CD=0;
   \   000004   C294         CLR     0x90.4
    537            LCD_WR0=0;
   \   000006   80..         SJMP    ?Subroutine17
   \   000008                REQUIRE _A_P1
    538            OutData_164(com);
    539            Delay_us(1);
    540            LCD_WR0=1;
    541            Delay_us(1);
    542          }
    543          
    544          static void Disp(unsigned char dot1 , unsigned char dot2)
    545          {
    546            unsigned char cnt, cnt1;
    547            for(cnt = 0; cnt < 13; cnt ++)
    548            {
    549              ComWrite(0xb0 + cnt);
    550              ComWrite(0x10);
    551              ComWrite(0x00);
    552              for(cnt1=0; cnt1 < 80; cnt1 ++)
    553              {
    554                DatWrite(dot1);
    555                DatWrite(dot2);
    556              }
    557          
    558            }
    559          }
    560          
    561          /*-----------------------------------------------------------------------
    562          LCD_clear         : LCD清屏函数
    563          
    564          编写日期          ：2004-8-10
    565          最后修改日期      ：2004-8-10
    566          -----------------------------------------------------------------------*/
    567          static void LCD_clear(void)
    568          {
    569            Disp(0x00,0x00);
    570          }
    571          
    572          /*-----------------------------------------------------------------------
    573          LCD_init          : LCD初始化
    574          
    575          编写日期          ：2004-8-10
    576          最后修改日期      ：2004-8-10
    577          -----------------------------------------------------------------------*/

   \                                 In  segment BANKED_CODE, align 1, keep-with-next
    578          static void initLcd(void)
   \                     initLcd:
    579          {
   \   000000   74F7         MOV     A,#-0x9
   \   000002   12....       LCALL   ?BANKED_ENTER_XDATA
   \   000005                ; Saved register size: 9
   \   000005                ; Auto size: 0
    580            unsigned char Ratio = 0x2d;//Set Power Controlc=<26;d:26-43
    581            unsigned char Refer = 0x6d;//Set reference voltage register
    582            // CC2430 中，I/O 口做普通 I/O 使用时和每个 I/O 端口相关的寄存器有 3 个，分别是 //PxSEL
    583            //功能选择寄存器，PxDIR 方向寄存器，PxINP 输入模式寄存器，其中 x 为 0，1，2 。
    584          
    585            P1SEL &= 0x0F; //P1高4位 为普通 I/O 口
   \   000005   53F40F       ANL     0xf4,#0xf
   \   000008   E5F4         MOV     A,0xf4
    586            P1DIR |= 0xF0; //P1高4位 设置为输出
   \   00000A   43FEF0       ORL     0xfe,#0xf0
   \   00000D   E5FE         MOV     A,0xfe
    587          
    588            Delay_us(2000);
   \   00000F                ; Setup parameters for call to function Delay_us
   \   00000F   7AD0         MOV     R2,#-0x30
   \   000011   7B07         MOV     R3,#0x7
   \   000013   12....       LCALL   ??Delay_us?relay
    589            ComWrite(0xe2);      // Reset
   \   000016                ; Setup parameters for call to function ComWrite
   \   000016   79E2         MOV     R1,#-0x1e
   \   000018   12....       LCALL   ??ComWrite?relay
    590            Delay_us(500);
   \   00001B                ; Setup parameters for call to function Delay_us
   \   00001B   7AF4         MOV     R2,#-0xc
   \   00001D   7B01         MOV     R3,#0x1
   \   00001F   12....       LCALL   ??Delay_us?relay
    591            ComWrite(0xae);      // Display Off
   \   000022                ; Setup parameters for call to function ComWrite
   \   000022   79AE         MOV     R1,#-0x52
   \   000024   12....       LCALL   ??ComWrite?relay
    592            ComWrite(0x24);      // MUX ratio(duty)=1/128 & temperature compensation
   \   000027                ; Setup parameters for call to function ComWrite
   \   000027   7924         MOV     R1,#0x24
   \   000029   12....       LCALL   ??ComWrite?relay
    593            ComWrite(0xc4);      // Set LCD mapping control
   \   00002C                ; Setup parameters for call to function ComWrite
   \   00002C   79C4         MOV     R1,#-0x3c
   \   00002E   12....       LCALL   ?Subroutine6 & 0xFFFF
    594            ComWrite(0x2d);      // set internal charge pump---new
    595            ComWrite(0xea);      // lcd bias 1/12//ea  e911.3  e810.7   eb12.7
   \                     ??CrossCallReturnLabel_12:
   \   000031                ; Setup parameters for call to function ComWrite
   \   000031   79EA         MOV     R1,#-0x16
   \   000033   12....       LCALL   ?Subroutine6 & 0xFFFF
    596            ComWrite(Ratio);     // Set Power Control(capacitance of LCD and internal Vlcd)
    597            ComWrite(0x81);      // Set gain and potentiometer (Double Byte Command)
   \                     ??CrossCallReturnLabel_13:
   \   000036                ; Setup parameters for call to function ComWrite
   \   000036   7981         MOV     R1,#-0x7f
   \   000038   12....       LCALL   ??ComWrite?relay
    598            ComWrite(Refer);     // Set reference voltage register
   \   00003B                ; Setup parameters for call to function ComWrite
   \   00003B   796D         MOV     R1,#0x6d
   \   00003D   12....       LCALL   ??ComWrite?relay
    599          //  ComWrite(0x90);      // Set fixed lines
    600            ComWrite(0x8c);      // Set RAM Address Control
   \   000040                ; Setup parameters for call to function ComWrite
   \   000040   798C         MOV     R1,#-0x74
   \   000042   12....       LCALL   ??ComWrite?relay
    601            ComWrite(0xaf);      // Display On
   \   000045                ; Setup parameters for call to function ComWrite
   \   000045   79AF         MOV     R1,#-0x51
   \   000047   12....       LCALL   ??ComWrite?relay
    602            ComWrite(0x40);      // Set Display Start Line
   \   00004A                ; Setup parameters for call to function ComWrite
   \   00004A   7940         MOV     R1,#0x40
   \   00004C   12....       LCALL   ??ComWrite?relay
    603            LCD_clear();	       // Clear LCD
   \   00004F   7F00         MOV     R7,#0x0
   \                     ??initLcd_0:
   \   000051                ; Setup parameters for call to function ComWrite
   \   000051   74B0         MOV     A,#-0x50
   \   000053   2F           ADD     A,R7
   \   000054   12....       LCALL   ?Subroutine2 & 0xFFFF
   \                     ??CrossCallReturnLabel_4:
   \   000057   7E50         MOV     R6,#0x50
   \                     ??initLcd_1:
   \   000059                ; Setup parameters for call to function DatWrite
   \   000059   12....       LCALL   ?Subroutine7 & 0xFFFF
   \                     ??CrossCallReturnLabel_14:
   \   00005C   1E           DEC     R6
   \   00005D   EE           MOV     A,R6
   \   00005E   70F9         JNZ     ??initLcd_1
   \   000060   0F           INC     R7
   \   000061   EF           MOV     A,R7
   \   000062   C3           CLR     C
   \   000063   940D         SUBB    A,#0xd
   \   000065   40EA         JC      ??initLcd_0
    604          }
   \   000067                REQUIRE ?Subroutine18
   \   000067                REQUIRE P1SEL
   \   000067                REQUIRE P1DIR
   \   000067                ; // Fall through to label ?Subroutine18

   \                                 In  segment BANKED_CODE, align 1, keep-with-next
   \                     ?Subroutine18:
   \   000000   7F01         MOV     R7,#0x1
   \   000002   02....       LJMP    ?BANKED_LEAVE_XDATA

   \                                 In  segment BANKED_CODE, align 1, keep-with-next
   \                     ?Subroutine6:
   \   000000   12....       LCALL   ??ComWrite?relay
   \   000003                ; Setup parameters for call to function ComWrite
   \   000003                ; Setup parameters for call to function ComWrite
   \   000003   792D         MOV     R1,#0x2d
   \   000005   12....       LCALL   ??ComWrite?relay
   \   000008   22           RET
    605          
    606          
    607          //16X16横向字模转纵向字模
    608          
    609          static void Adj_Data_16X16(unsigned char  *Src_Dat,unsigned char *Dst_Dat)
                             ^
Warning[Pe177]: function "Adj_Data_16X16" was declared but never referenced
    610          {
    611            unsigned char i,j;
    612            for(i=0;i<32;i++)
    613            {
    614              *(Dst_Dat+i)=0;
    615            }
    616            for(j=0;j<8;j++)
    617            {
    618              for(i=0;i<8;i++)
    619              {
    620                *(Dst_Dat+j*2)      |=  (((*(Src_Dat+i*2))>>(7-j))&0x01)<<i;
    621                *(Dst_Dat+j*2+1)    |=  (((*(Src_Dat+i*2+16))>>(7-j))&0x01)<<i;
    622                *(Dst_Dat+j*2+16)   |=  (((*(Src_Dat+i*2+1))>>(7-j))&0x01)<<i;
    623                *(Dst_Dat+j*2+1+16) |=  (((*(Src_Dat+i*2+16+1))>>(7-j))&0x01)<<i;
    624              }
    625            }
    626          }
    627          
    628          //8X16横向字模转纵向字模
    629          
    630          static void Adj_Data_8X16(unsigned char  *Src_Dat,unsigned char *Dst_Dat)
                             ^
Warning[Pe177]: function "Adj_Data_8X16" was declared but never referenced
    631          {
    632            unsigned char i,j;
    633            for(i=0;i<16;i++)
    634            {
    635              *(Dst_Dat+i)=0;
    636            }
    637            for(j=0;j<8;j++)
    638            {
    639              for(i=0;i<8;i++)
    640              {
    641                *(Dst_Dat+j*2)      |=  (((*(Src_Dat+i))>>(7-j))&0x01)<<i;
    642                *(Dst_Dat+j*2+1)    |=  (((*(Src_Dat+i+8))>>(7-j))&0x01)<<i;
    643              }
    644            }
    645          }
    646          
    647          //清除行
    648          
    649          static void LCD_clear_line(unsigned char line)
    650          {
    651            unsigned char cnt, cnt1;
    652            for(cnt = line*2; cnt < line*2+2; cnt ++)
    653            {
    654              ComWrite(0xb0 + cnt);
    655              ComWrite(0x10);
    656              ComWrite(0x00);
    657              for(cnt1=0; cnt1 < 80; cnt1 ++)
    658              {
    659                DatWrite(0);
    660                DatWrite(0);
    661              }
    662            }
    663          }
    664          
    665          /*-----------------------------------------------------------------------
    666          LCD_write_english_String  : 英文字符串显示函数
    667          
    668          输入参数：*s      ：英文字符串指针；
    669          X、Y    : 显示字符串的位置,x 0-151 ,y 0-5
    670          
    671          编写日期          ：2004-8-10
    672          最后修改日期      ：2004-8-10 		
    673          -----------------------------------------------------------------------*/

   \                                 In  segment BANKED_CODE, align 1, keep-with-next
    674          static void LCD_write_english_string(unsigned char X,unsigned char Y,uint8 *s)
   \                     LCD_write_english_string:
    675          {
   \   000000   74F0         MOV     A,#-0x10
   \   000002   12....       LCALL   ?BANKED_ENTER_XDATA
   \   000005                ; Saved register size: 16
   \   000005                ; Auto size: 18
   \   000005   74EE         MOV     A,#-0x12
   \   000007   12....       LCALL   ?ALLOC_XSTACK8
   \   00000A   89..         MOV     ?V0 + 4,R1
   \   00000C   EA           MOV     A,R2
   \   00000D   FF           MOV     R7,A
   \   00000E   8C..         MOV     ?V0 + 6,R4
   \   000010   8D..         MOV     ?V0 + 7,R5
    676            unsigned char m, n;
    677            unsigned char LSB_Data,MSB_Data;
    678            unsigned char data_new[16];
    679            unsigned char i,j;
    680            LCD_clear_line(Y);
   \   000012   C3           CLR     C
   \   000013   33           RLC     A
   \   000014   FE           MOV     R6,A
   \   000015   8013         SJMP    ??LCD_write_english_string_0
   \                     ??LCD_write_english_string_1:
   \   000017                ; Setup parameters for call to function ComWrite
   \   000017   74B0         MOV     A,#-0x50
   \   000019   2E           ADD     A,R6
   \   00001A   12....       LCALL   ?Subroutine2 & 0xFFFF
   \                     ??CrossCallReturnLabel_5:
   \   00001D   75..50       MOV     ?V0 + 0,#0x50
   \                     ??LCD_write_english_string_2:
   \   000020                ; Setup parameters for call to function DatWrite
   \   000020   12....       LCALL   ?Subroutine7 & 0xFFFF
   \                     ??CrossCallReturnLabel_15:
   \   000023   15..         DEC     ?V0 + 0
   \   000025   E5..         MOV     A,?V0 + 0
   \   000027   70F7         JNZ     ??LCD_write_english_string_2
   \   000029   0E           INC     R6
   \                     ??LCD_write_english_string_0:
   \   00002A   8E..         MOV     ?V0 + 0,R6
   \   00002C   EF           MOV     A,R7
   \   00002D   C3           CLR     C
   \   00002E   33           RLC     A
   \   00002F   F8           MOV     R0,A
   \   000030   E4           CLR     A
   \   000031   33           RLC     A
   \   000032   F9           MOV     R1,A
   \   000033   7402         MOV     A,#0x2
   \   000035   28           ADD     A,R0
   \   000036   08           INC     R0
   \   000037   08           INC     R0
   \   000038   E4           CLR     A
   \   000039   39           ADDC    A,R1
   \   00003A   F9           MOV     R1,A
   \   00003B   E5..         MOV     A,?V0 + 0
   \   00003D   98           SUBB    A,R0
   \   00003E   E4           CLR     A
   \   00003F   99           SUBB    A,R1
   \   000040   A2D2         MOV     C,0xD0 /* PSW */.2
   \   000042   65D0         XRL     A,PSW
   \   000044   33           RLC     A
   \   000045   40D0         JC      ??LCD_write_english_string_1
    681            n=0;
   \   000047   7E00         MOV     R6,#0x0
    682            while(*s)
   \                     ??LCD_write_english_string_3:
   \   000049   85..82       MOV     DPL,?V0 + 6
   \   00004C   85..83       MOV     DPH,?V0 + 7
   \   00004F   E0           MOVX    A,@DPTR
   \   000050   7003         JNZ     $+5
   \   000052   02....       LJMP    ??LCD_write_english_string_4 & 0xFFFF
    683            {
    684              //横线字模转换为纵向字模
    685              for(i=0;i<16;i++)
   \   000055   7A00         MOV     R2,#0x0
    686              {
    687                data_new[i]=0;
   \                     ??LCD_write_english_string_5:
   \   000057   8A..         MOV     ?V0 + 0,R2
   \   000059   7402         MOV     A,#0x2
   \   00005B   12....       LCALL   ?XSTACK_DISP0_8
   \   00005E   12....       LCALL   ??Subroutine9_0 & 0xFFFF
   \                     ??CrossCallReturnLabel_18:
   \   000061   E4           CLR     A
   \   000062   F0           MOVX    @DPTR,A
    688              }
   \   000063   0A           INC     R2
   \   000064   EA           MOV     A,R2
   \   000065   C3           CLR     C
   \   000066   9410         SUBB    A,#0x10
   \   000068   40ED         JC      ??LCD_write_english_string_5
    689              for(j=0;j<8;j++)
   \   00006A   7B00         MOV     R3,#0x0
    690              {
    691                for(i=0;i<8;i++)
   \                     ??LCD_write_english_string_6:
   \   00006C   7A00         MOV     R2,#0x0
   \                     ??LCD_write_english_string_7:
   \   00006E   8A..         MOV     ?V0 + 0,R2
   \   000070   85..82       MOV     DPL,?V0 + 6
   \   000073   85..83       MOV     DPH,?V0 + 7
   \   000076   E0           MOVX    A,@DPTR
   \   000077   F5..         MOV     ?V0 + 2,A
   \   000079   75..00       MOV     ?V0 + 3,#0x0
   \   00007C   7404         MOV     A,#0x4
   \   00007E   78..         MOV     R0,#?V0 + 2
   \   000080   12....       LCALL   ?S_SHL
   \   000083   E5..         MOV     A,?V0 + 2
   \   000085   24..         ADD     A,#(font8x16 & 0xff)
   \   000087   F8           MOV     R0,A
   \   000088   E5..         MOV     A,?V0 + 3
   \   00008A   34..         ADDC    A,#((font8x16 >> 8) & 0xff)
   \   00008C   F9           MOV     R1,A
   \   00008D   E5..         MOV     A,?V0 + 0
   \   00008F   28           ADD     A,R0
   \   000090   FC           MOV     R4,A
   \   000091   E4           CLR     A
   \   000092   39           ADDC    A,R1
   \   000093   FD           MOV     R5,A
   \   000094   EB           MOV     A,R3
   \   000095   C3           CLR     C
   \   000096   33           RLC     A
   \   000097   F8           MOV     R0,A
   \   000098   E4           CLR     A
   \   000099   33           RLC     A
   \   00009A   F9           MOV     R1,A
   \   00009B   7402         MOV     A,#0x2
   \   00009D   12....       LCALL   ?XSTACK_DISP0_8
   \   0000A0   E582         MOV     A,DPL
   \   0000A2   28           ADD     A,R0
   \   0000A3   F8           MOV     R0,A
   \   0000A4   E583         MOV     A,DPH
   \   0000A6   39           ADDC    A,R1
   \   0000A7   F9           MOV     R1,A
   \   0000A8   85..82       MOV     DPL,?XSP + 0
   \   0000AB   85..83       MOV     DPH,?XSP + 1
   \   0000AE   E8           MOV     A,R0
   \   0000AF   F0           MOVX    @DPTR,A
   \   0000B0   A3           INC     DPTR
   \   0000B1   E9           MOV     A,R1
   \   0000B2   F0           MOVX    @DPTR,A
   \   0000B3   7407         MOV     A,#0x7
   \   0000B5   C3           CLR     C
   \   0000B6   9B           SUBB    A,R3
   \   0000B7   F5..         MOV     ?V0 + 2,A
   \   0000B9   EC           MOV     A,R4
   \   0000BA   2400         ADD     A,#0x0
   \   0000BC   12....       LCALL   ?Subroutine10 & 0xFFFF
   \                     ??CrossCallReturnLabel_21:
   \   0000BF   12....       LCALL   ?SS_SHR
   \   0000C2   12....       LCALL   ?Subroutine12 & 0xFFFF
   \                     ??CrossCallReturnLabel_25:
   \   0000C5   12....       LCALL   ?S_SHL
   \   0000C8   12....       LCALL   ?Subroutine14 & 0xFFFF
   \                     ??CrossCallReturnLabel_29:
   \   0000CB   E0           MOVX    A,@DPTR
   \   0000CC   45..         ORL     A,?V0 + 0
   \   0000CE   F0           MOVX    @DPTR,A
    692                {
    693                  data_new[j*2]   |= ((font8x16[*s-0x20][i]>>(7-j))&0x01)<<i;
    694                  data_new[j*2+1] |= ((font8x16[*s-0x20][i+8]>>(7-j))&0x01)<<i;
   \   0000CF   EC           MOV     A,R4
   \   0000D0   2408         ADD     A,#0x8
   \   0000D2   12....       LCALL   ?Subroutine10 & 0xFFFF
   \                     ??CrossCallReturnLabel_22:
   \   0000D5   12....       LCALL   ?SS_SHR
   \   0000D8   12....       LCALL   ?Subroutine12 & 0xFFFF
   \                     ??CrossCallReturnLabel_26:
   \   0000DB   12....       LCALL   ?S_SHL
   \   0000DE   12....       LCALL   ?Subroutine14 & 0xFFFF
   \                     ??CrossCallReturnLabel_30:
   \   0000E1   A3           INC     DPTR
   \   0000E2   E0           MOVX    A,@DPTR
   \   0000E3   45..         ORL     A,?V0 + 0
   \   0000E5   F0           MOVX    @DPTR,A
    695                }
   \   0000E6   0A           INC     R2
   \   0000E7   EA           MOV     A,R2
   \   0000E8   C3           CLR     C
   \   0000E9   9408         SUBB    A,#0x8
   \   0000EB   4081         JC      ??LCD_write_english_string_7
    696              }
   \   0000ED   0B           INC     R3
   \   0000EE   EB           MOV     A,R3
   \   0000EF   C3           CLR     C
   \   0000F0   9408         SUBB    A,#0x8
   \   0000F2   5003         JNC     $+5
   \   0000F4   02....       LJMP    ??LCD_write_english_string_6 & 0xFFFF
    697          
    698              //液晶显示
    699              ComWrite(0xb0+0+Y*2);
   \   0000F7                ; Setup parameters for call to function ComWrite
   \   0000F7   EF           MOV     A,R7
   \   0000F8   C3           CLR     C
   \   0000F9   33           RLC     A
   \   0000FA   24B0         ADD     A,#-0x50
   \   0000FC   F9           MOV     R1,A
   \   0000FD   12....       LCALL   ??ComWrite?relay
    700              for(m=0;m<8;m++)
   \   000100   75..00       MOV     ?V0 + 0,#0x0
    701              {
    702                LSB_Data=(m+n*8+X)&0x0f;
    703                MSB_Data=(((m+n*8+X)>>4)&0x0f)|0x10;
    704                ComWrite(LSB_Data);
   \                     ??LCD_write_english_string_8:
   \   000103                ; Setup parameters for call to function ComWrite
   \   000103   12....       LCALL   ?Subroutine3 & 0xFFFF
    705                ComWrite(MSB_Data);
   \                     ??CrossCallReturnLabel_6:
   \   000106   20E304       JB      0xE0 /* A   */.3,??LCD_write_english_string_9
   \   000109   540F         ANL     A,#0xf
   \   00010B   8002         SJMP    ??LCD_write_english_string_10
   \                     ??LCD_write_english_string_9:
   \   00010D   44F0         ORL     A,#0xf0
   \                     ??LCD_write_english_string_10:
   \   00010F   12....       LCALL   ?Subroutine4 & 0xFFFF
    706                DatWrite(data_new[m*2]);
   \                     ??CrossCallReturnLabel_8:
   \   000112   12....       LCALL   ?XSTACK_DISP0_8
   \   000115   12....       LCALL   ?Subroutine8 & 0xFFFF
   \                     ??CrossCallReturnLabel_16:
   \   000118   12....       LCALL   ?Subroutine5 & 0xFFFF
    707              }
   \                     ??CrossCallReturnLabel_10:
   \   00011B   40E6         JC      ??LCD_write_english_string_8
    708              ComWrite(0xb0+1+Y*2);
   \   00011D                ; Setup parameters for call to function ComWrite
   \   00011D   EF           MOV     A,R7
   \   00011E   C3           CLR     C
   \   00011F   33           RLC     A
   \   000120   24B1         ADD     A,#-0x4f
   \   000122   F9           MOV     R1,A
   \   000123   12....       LCALL   ??ComWrite?relay
    709              for(m=0;m<8;m++)
   \   000126   75..00       MOV     ?V0 + 0,#0x0
    710              {
    711                LSB_Data=(m+n*8+X)&0x0f;
    712                MSB_Data=(((m+n*8+X)>>4)&0x0f)|0x10;
    713                ComWrite(LSB_Data);
   \                     ??LCD_write_english_string_11:
   \   000129                ; Setup parameters for call to function ComWrite
   \   000129   12....       LCALL   ?Subroutine3 & 0xFFFF
    714                ComWrite(MSB_Data);
   \                     ??CrossCallReturnLabel_7:
   \   00012C   20E304       JB      0xE0 /* A   */.3,??LCD_write_english_string_12
   \   00012F   540F         ANL     A,#0xf
   \   000131   8002         SJMP    ??LCD_write_english_string_13
   \                     ??LCD_write_english_string_12:
   \   000133   44F0         ORL     A,#0xf0
   \                     ??LCD_write_english_string_13:
   \   000135   12....       LCALL   ?Subroutine4 & 0xFFFF
    715                DatWrite(data_new[m*2+1]);
   \                     ??CrossCallReturnLabel_9:
   \   000138   12....       LCALL   ?XSTACK_DISP0_8
   \   00013B   12....       LCALL   ?Subroutine8 & 0xFFFF
   \                     ??CrossCallReturnLabel_17:
   \   00013E   A3           INC     DPTR
   \   00013F   12....       LCALL   ?Subroutine5 & 0xFFFF
    716              }
   \                     ??CrossCallReturnLabel_11:
   \   000142   40E5         JC      ??LCD_write_english_string_11
    717              s++;
   \   000144   85..82       MOV     DPL,?V0 + 6
   \   000147   85..83       MOV     DPH,?V0 + 7
   \   00014A   A3           INC     DPTR
   \   00014B   8582..       MOV     ?V0 + 6,DPL
   \   00014E   8583..       MOV     ?V0 + 7,DPH
    718              n++;
   \   000151   0E           INC     R6
    719              if(n>=HAL_LCD_MAX_CHARS)return;
   \   000152   EE           MOV     A,R6
   \   000153   C3           CLR     C
   \   000154   9414         SUBB    A,#0x14
   \   000156   5003         JNC     $+5
   \   000158   02....       LJMP    ??LCD_write_english_string_3 & 0xFFFF
   \                     ??LCD_write_english_string_4:
   \   00015B   7412         MOV     A,#0x12
   \   00015D                REQUIRE ?Subroutine19
   \   00015D                ; // Fall through to label ?Subroutine19
    720            }
    721          
    722          }

   \                                 In  segment BANKED_CODE, align 1, keep-with-next
   \                     ?Subroutine19:
   \   000000   12....       LCALL   ?DEALLOC_XSTACK8
   \   000003   7F08         MOV     R7,#0x8
   \   000005   02....       LJMP    ?BANKED_LEAVE_XDATA

   \                                 In  segment BANKED_CODE, align 1, keep-with-next
   \                     ?Subroutine14:
   \   000000   85..82       MOV     DPL,?XSP + 0
   \   000003   85..83       MOV     DPH,?XSP + 1
   \   000006   E0           MOVX    A,@DPTR
   \   000007   F8           MOV     R0,A
   \   000008   A3           INC     DPTR
   \   000009   E0           MOVX    A,@DPTR
   \   00000A   F583         MOV     DPH,A
   \   00000C   8882         MOV     DPL,R0
   \   00000E   22           RET

   \                                 In  segment BANKED_CODE, align 1, keep-with-next
   \                     ?Subroutine12:
   \   000000   7401         MOV     A,#0x1
   \   000002   55..         ANL     A,?V0 + 0
   \   000004   F5..         MOV     ?V0 + 0,A
   \   000006   75..00       MOV     ?V0 + 1,#0x0
   \   000009   EA           MOV     A,R2
   \   00000A   78..         MOV     R0,#?V0 + 0
   \   00000C   22           RET

   \                                 In  segment BANKED_CODE, align 1, keep-with-next
   \                     ?Subroutine10:
   \   000000   F582         MOV     DPL,A
   \   000002   ED           MOV     A,R5
   \   000003   34FE         ADDC    A,#-0x2
   \   000005   F583         MOV     DPH,A
   \   000007   E4           CLR     A
   \   000008   93           MOVC    A,@A+DPTR
   \   000009   F5..         MOV     ?V0 + 0,A
   \   00000B   75..00       MOV     ?V0 + 1,#0x0
   \   00000E   E5..         MOV     A,?V0 + 2
   \   000010   78..         MOV     R0,#?V0 + 0
   \   000012   22           RET

   \                                 In  segment BANKED_CODE, align 1, keep-with-next
   \                     ?Subroutine8:
   \   000000   E582         MOV     A,DPL
   \   000002   28           ADD     A,R0
   \   000003   F582         MOV     DPL,A
   \   000005   E583         MOV     A,DPH
   \   000007   39           ADDC    A,R1
   \   000008   F583         MOV     DPH,A
   \   00000A   22           RET

   \                                 In  segment BANKED_CODE, align 1, keep-with-next
   \                     ?Subroutine5:
   \   000000   E0           MOVX    A,@DPTR
   \   000001   F9           MOV     R1,A
   \   000002   12....       LCALL   ??DatWrite?relay
   \   000005   05..         INC     ?V0 + 0
   \   000007   E5..         MOV     A,?V0 + 0
   \   000009   C3           CLR     C
   \   00000A   9408         SUBB    A,#0x8
   \   00000C   22           RET

   \                                 In  segment BANKED_CODE, align 1, keep-with-next
   \                     ?Subroutine4:
   \   000000   540F         ANL     A,#0xf
   \   000002   4410         ORL     A,#0x10
   \   000004   F9           MOV     R1,A
   \   000005   12....       LCALL   ??ComWrite?relay
   \   000008                ; Setup parameters for call to function DatWrite
   \   000008                ; Setup parameters for call to function DatWrite
   \   000008   E5..         MOV     A,?V0 + 0
   \   00000A   C3           CLR     C
   \   00000B   33           RLC     A
   \   00000C   F8           MOV     R0,A
   \   00000D   E4           CLR     A
   \   00000E   33           RLC     A
   \   00000F   F9           MOV     R1,A
   \   000010   7402         MOV     A,#0x2
   \   000012   22           RET

   \                                 In  segment BANKED_CODE, align 1, keep-with-next
   \                     ?Subroutine3:
   \   000000   EE           MOV     A,R6
   \   000001   A2E0         MOV     C,0xE0 /* A   */.0
   \   000003   E4           CLR     A
   \   000004   92E0         MOV     0xE0 /* A   */.0,C
   \   000006   33           RLC     A
   \   000007   33           RLC     A
   \   000008   33           RLC     A
   \   000009   54F8         ANL     A,#0xf8
   \   00000B   25..         ADD     A,?V0 + 0
   \   00000D   25..         ADD     A,?V0 + 4
   \   00000F   540F         ANL     A,#0xf
   \   000011   F9           MOV     R1,A
   \   000012   12....       LCALL   ??ComWrite?relay
   \   000015                ; Setup parameters for call to function ComWrite
   \   000015                ; Setup parameters for call to function ComWrite
   \   000015   EE           MOV     A,R6
   \   000016   33           RLC     A
   \   000017   33           RLC     A
   \   000018   33           RLC     A
   \   000019   54F8         ANL     A,#0xf8
   \   00001B   25..         ADD     A,?V0 + 0
   \   00001D   25..         ADD     A,?V0 + 4
   \   00001F   C4           SWAP    A
   \   000020   22           RET

   \                                 In  segment BANKED_CODE, align 1, keep-with-next
   \                     ?Subroutine9:
   \   000000   85..82       MOV     DPL,?XSP + 0
   \   000003   85..83       MOV     DPH,?XSP + 1
   \                     ??Subroutine9_0:
   \   000006   E582         MOV     A,DPL
   \   000008   25..         ADD     A,?V0 + 0
   \   00000A   F582         MOV     DPL,A
   \   00000C   E583         MOV     A,DPH
   \   00000E   3400         ADDC    A,#0x0
   \   000010   F583         MOV     DPH,A
   \   000012   22           RET
    723          
    724          
    725          /******************************************************************************
    726          * See lcd.h for a description of this function.
    727          ******************************************************************************/
    728          static void lcdUpdateChar(unsigned char line, unsigned char position, char c)
                             ^
Warning[Pe177]: function "lcdUpdateChar" was declared but never referenced
    729          {
    730            unsigned char i,j;
    731            unsigned char LSB_Data,MSB_Data;
    732            unsigned char data_new[16];
    733          
    734            //横线字模转换为纵向字模
    735            for(i=0;i<16;i++)
    736            {
    737              data_new[i]=0;
    738            }
    739            for(j=0;j<8;j++)
    740            {
    741              for(i=0;i<8;i++)
    742              {
    743                data_new[j*2]    |= ((font8x16[c-0x20][i]>>(7-j))&0x01)<<i;
    744                data_new[j*2+1]  |= ((font8x16[c-0x20][i+8]>>(7-j))&0x01)<<i;
    745              }
    746            }
    747          
    748            //液晶显示
    749            ComWrite(0xb0+0+line*2);
    750            for(i=0;i<8;i++)
    751            {
    752              LSB_Data=(i+position*8)&0x0f;
    753              MSB_Data=(((i+position*8)>>4)&0x0f)|0x10;
    754              ComWrite(LSB_Data);
    755              ComWrite(MSB_Data);
    756              DatWrite(data_new[i*2]);
    757            }
    758            ComWrite(0xb0+1+line*2);
    759            for(i=0;i<8;i++)
    760            {
    761              LSB_Data=(i+position*8)&0x0f;
    762              MSB_Data=(((i+position*8)>>4)&0x0f)|0x10;
    763              ComWrite(LSB_Data);
    764              ComWrite(MSB_Data);
    765              DatWrite(data_new[i*2+1]);
    766            }
    767          }
    768          
    769          /******************************************************************************
    770          * See lcd.h for a description of this function.
    771          ******************************************************************************/
    772          static void lcdUpdateLine(uint8 line, uint8 *pLine)
    773          {
    774            LCD_write_english_string(0,line,pLine);
    775          }
    776          
    777          /*
    778          void disp_hanzi(unsigned char Xdata,unsigned char Ydata,unsigned char const *Disp_Data,unsigned char len)
    779          {
    780             uchar i, j,k;
    781             uchar LSB_Data,MSB_Data;
    782             uchar hanzi_new[10][32];
    783             for(i=0;i<len;i++)
    784             {
    785               Adj_Data_16X16(Disp_Data+i*32,&hanzi_new[i][0]);
    786             }
    787          
    788             for(j=0;j<len;j++)
    789             {
    790             	
    791              ComWrite(0xb0+0+Ydata*2);
    792              for(i=0;i<16;i++)
    793              {
    794              	LSB_Data=(i+j*16+Xdata)&0x0f;
    795              	MSB_Data=(((i+j*16+Xdata)>>4)&0x0f)|0x10;
    796                ComWrite(LSB_Data);
    797                ComWrite(MSB_Data);
    798                DatWrite(hanzi_new[j][i*2]);
    799              }
    800          
    801              ComWrite(0xb0+1+Ydata*2);
    802          
    803              for(i=0;i<16;i++)
    804              {
    805              	LSB_Data=(i+j*16+Xdata)&0x0f;
    806              	MSB_Data=(((i+j*16+Xdata)>>4)&0x0f)|0x10;
    807                ComWrite(LSB_Data);
    808                ComWrite(MSB_Data);
    809                DatWrite(hanzi_new[j][i*2+1]);
    810              }
    811            }
    812          }
    813          
    814          */
    815          
    816          #else
    817          
    818          //***************************************************************************//
    819          //液晶为84X48 3310 
    820          //***************************************************************************//
    821          
    822          /************ 延时函数 ******************************/
    823          static void Delay_nms(unsigned int Time) // 延时单位:ms
    824          {
    825            unsigned int i;
    826            unsigned char j;
    827          
    828            for(i=0;i<Time;i++)
    829            {
    830              for(j=0;j<123;j++){}
    831            }
    832          }
    833          
    834          /******** 发送一个字节的数据到液晶控制器*************************/
    835          static void SendByte(unsigned char Data)
    836          {
    837            unsigned char i;
    838            LCD_CE=0;
    839            for(i=0;i<8;i++)
    840            {
    841              LCD_SCL = 0;
    842              if(Data & 0x80)
    843              {
    844                LCD_SDA = 1;
    845              }
    846              else LCD_SDA = 0;
    847              LCD_SCL = 1;
    848              Data<<=1;
    849            }
    850            LCD_CE=1;
    851          }
    852          
    853          /*-----------------------------------------------------------------------
    854          LCD_write_byte    : 使用SPI接口写数据到LCD
    855          
    856          输入参数：data    ：写入的数据；
    857          command ：写数据/命令选择；
    858          
    859          编写日期          ：2004-8-10
    860          最后修改日期      ：2004-8-13
    861          -----------------------------------------------------------------------*/
    862          static void LCD_write_byte(unsigned char data, unsigned char command)
    863          {
    864            LCD_CE = 1 ;		 // 使能LCD
    865          
    866            if (command == 0)
    867              LCD_DC = 0;	        // 传送命令
    868            else
    869              LCD_DC = 1;		// 传送数据
    870            SendByte(data);
    871            LCD_CE = 0;	        // 关闭LCD
    872            LCD_DC = 1;	
    873          }
    874          
    875          /*-----------------------------------------------------------------------
    876          LCD_clear         : LCD清屏函数
    877          
    878          编写日期          ：2004-8-10
    879          最后修改日期      ：2004-8-10
    880          -----------------------------------------------------------------------*/
    881          static void LCD_clear(void)
    882          {
    883            unsigned int i;
    884          
    885            LCD_write_byte(0x0c, 0);
    886            LCD_write_byte(0x80, 0);
    887          
    888            for (i=0; i<504; i++)
    889              LCD_write_byte(0, 1);
    890          }
    891          
    892          /*-----------------------------------------------------------------------
    893          LCD_set_XY        : 设置LCD坐标函数
    894          
    895          输入参数：X       ：0－83
    896          Y       ：0－5
    897          
    898          编写日期          ：2004-8-10
    899          最后修改日期      ：2004-8-10
    900          -----------------------------------------------------------------------*/
    901          static void LCD_set_XY(unsigned char X, unsigned char Y)
    902          {
    903            LCD_write_byte(0x40 | Y, 0);	// column
    904            LCD_write_byte(0x80 | X, 0);  // row
    905          }
    906          
    907          /*-----------------------------------------------------------------------
    908          LCD_write_char    : 显示英文字符
    909          
    910          输入参数：c       ：显示的字符；
    911          
    912          编写日期          ：2004-8-10
    913          最后修改日期      ：2004-8-10
    914          -----------------------------------------------------------------------*/
    915          static void LCD_write_char(unsigned char c)
    916          {
    917            unsigned char line;
    918          
    919            c -= 32;
    920            for (line=0; line<6; line++)
    921              LCD_write_byte(font6x8[c][line], 1);
    922          }
    923          
    924          /*-----------------------------------------------------------------------
    925          LCD_init          : 3310LCD初始化
    926          
    927          编写日期          ：2004-8-10
    928          最后修改日期      ：2004-8-10
    929          -----------------------------------------------------------------------*/
    930          static void initLcd(void)
    931          {
    932            // CC2430 中，I/O 口做普通 I/O 使用时和每个 I/O 端口相关的寄存器有 3 个，分别是 //PxSEL
    933            //功能选择寄存器，PxDIR 方向寄存器，PxINP 输入模式寄存器，其中 x 为 0，1，2 。
    934          
    935            P1SEL &= 0x0F; //P1高4位 为普通 I/O 口
    936            P1DIR |= 0xF0; //P1高4位 设置为输出
    937          
    938            LCD_CE = 0;    // 关闭LCD
    939            Delay_nms(1);
    940            LCD_CE = 1;    // 使能LCD
    941            Delay_nms(1);
    942          
    943            LCD_write_byte(0x21, 0);	// 使用扩展命令设置LCD模式
    944            LCD_write_byte(0xc8, 0);	// 设置偏置电压
    945            LCD_write_byte(0x06, 0);	// 温度校正
    946            LCD_write_byte(0x13, 0);	// 1:48
    947            LCD_write_byte(0x20, 0);	// 使用基本命令
    948            LCD_clear();	                // 清屏
    949            LCD_write_byte(0x0c, 0);	// 设定显示模式，正常显示
    950            LCD_CE=0 ;                    // 关闭LCD
    951          }
    952          
    953          
    954          /*-----------------------------------------------------------------------
    955          LCD_write_english_String  : 英文字符串显示函数
    956          
    957          输入参数：*s      ：英文字符串指针；
    958          X、Y    : 显示字符串的位置,x 0-83 ,y 0-5
    959          
    960          编写日期          ：2004-8-10
    961          最后修改日期      ：2004-8-10 		
    962          -----------------------------------------------------------------------*/
    963          static void LCD_write_english_string(unsigned char X,unsigned char Y,uint8 *s)
    964          {
    965            unsigned char i=0;
    966            LCD_set_XY(0,Y);//把第Y行清零
    967            for(i=0;i<HAL_LCD_MAX_CHARS*6;i++)
    968            {
    969              LCD_write_byte(0,1);
    970            }
    971            LCD_set_XY(X,Y);
    972            i=0;
    973            while (*s)
    974            {
    975              LCD_write_char(*s);
    976              s++;
    977              i++;
    978              if(i>=HAL_LCD_MAX_CHARS)return;
    979            }
    980          }
    981          
    982          /******************************************************************************
    983          * See lcd.h for a description of this function.
    984          ******************************************************************************/
    985          static void lcdUpdateLine(uint8 line, uint8 *pLine) {
    986            LCD_write_english_string(0,line,pLine);
    987          }
    988          
    989          #endif
    990          
    991          #endif
    992          
    993          
    994          /**************************************************************************************************
    995           * @fn      HalLcdInit
    996           *
    997           * @brief   Initilize LCD Service
    998           *
    999           * @param   init - pointer to void that contains the initialized value
   1000           *
   1001           * @return  None
   1002           **************************************************************************************************/

   \                                 In  segment BANKED_CODE, align 1, keep-with-next
   1003          void HalLcdInit(void)
   \                     HalLcdInit:
   1004          {
   \   000000   C082         PUSH    DPL
   \   000002   C083         PUSH    DPH
   \   000004                ; Saved register size: 2
   \   000004                ; Auto size: 0
   1005          #if (HAL_LCD == TRUE)
   1006          
   1007          #ifdef LCD_HW
   1008            Lcd_Line1 = NULL;
   \   000004   90....       MOV     DPTR,#Lcd_Line1
   \   000007   E4           CLR     A
   \   000008   F0           MOVX    @DPTR,A
   \   000009   A3           INC     DPTR
   \   00000A   F0           MOVX    @DPTR,A
   1009            initLcd();
   \   00000B                ; Setup parameters for call to function initLcd
   \   00000B   12....       LCALL   ??initLcd?relay
   1010          #endif
   1011          
   1012          #endif /* HAL_LCD */
   1013          
   1014          }
   \   00000E   02....       LJMP    ??Subroutine17_0 & 0xFFFF
   1015          
   1016          /*************************************************************************************************
   1017           *                    LCD EMULATION FUNCTIONS
   1018           *
   1019           * Some evaluation boards are equipped with Liquid Crystal Displays
   1020           * (LCD) which may be used to display diagnostic information. These
   1021           * functions provide LCD emulation, sending the diagnostic strings
   1022           * to Z-Tool via the RS232 serial port. These functions are enabled
   1023           * when the "LCD_SUPPORTED" compiler flag is placed in the makefile.
   1024           *
   1025           * Most applications update both lines (1 and 2) of the LCD whenever
   1026           * text is posted to the device. This emulator assumes that line 1 is
   1027           * updated first (saved locally) and the formatting and send operation
   1028           * is triggered by receipt of line 2. Nothing will be transmitted if
   1029           * only line 1 is updated.
   1030           *
   1031           *************************************************************************************************/
   1032          
   1033          
   1034          /**************************************************************************************************
   1035           * @fn      HalLcdWriteString
   1036           *
   1037           * @brief   Write a string to the LCD
   1038           *
   1039           * @param   str    - pointer to the string that will be displayed
   1040           *          option - display options
   1041           *
   1042           * @return  None
   1043           **************************************************************************************************/

   \                                 In  segment BANKED_CODE, align 1, keep-with-next
   1044          void HalLcdWriteString ( char *str, uint8 option)
   \                     HalLcdWriteString:
   1045          {
   \   000000   74F1         MOV     A,#-0xf
   \   000002   12....       LCALL   ?BANKED_ENTER_XDATA
   \   000005                ; Saved register size: 15
   \   000005                ; Auto size: 2
   \   000005   74FE         MOV     A,#-0x2
   \   000007   12....       LCALL   ?ALLOC_XSTACK8
   \   00000A   85..82       MOV     DPL,?XSP + 0
   \   00000D   85..83       MOV     DPH,?XSP + 1
   \   000010   EA           MOV     A,R2
   \   000011   F0           MOVX    @DPTR,A
   \   000012   A3           INC     DPTR
   \   000013   EB           MOV     A,R3
   \   000014   F0           MOVX    @DPTR,A
   \   000015   89..         MOV     ?V0 + 1,R1
   1046          #if (HAL_LCD == TRUE)
   1047          
   1048          #ifdef LCD_SD
   1049            byte x;
   1050            byte bln;
   1051            byte sln;
   1052            char *buf;
   1053          
   1054            if ( Lcd_Line1 == NULL )
   \   000017   90....       MOV     DPTR,#Lcd_Line1
   \   00001A   E0           MOVX    A,@DPTR
   \   00001B   7002         JNZ     ??HalLcdWriteString_0
   \   00001D   A3           INC     DPTR
   \   00001E   E0           MOVX    A,@DPTR
   \                     ??HalLcdWriteString_0:
   \   00001F   7018         JNZ     ??HalLcdWriteString_1
   1055            {
   1056              // Set up system start-up message
   1057              Lcd_Line1 = osal_mem_alloc( MAX_LCD_CHARS+1 );
   \   000021                ; Setup parameters for call to function osal_mem_alloc
   \   000021   7A11         MOV     R2,#0x11
   \   000023   7B00         MOV     R3,#0x0
   \   000025   12....       LCALL   ??osal_mem_alloc?relay
   \   000028   90....       MOV     DPTR,#Lcd_Line1
   \   00002B   EA           MOV     A,R2
   \   00002C   F0           MOVX    @DPTR,A
   \   00002D   A3           INC     DPTR
   \   00002E   EB           MOV     A,R3
   \   00002F   F0           MOVX    @DPTR,A
   1058              HalLcdWriteString( "Figure8 Wireless", HAL_LCD_LINE_1 );
   \   000030                ; Setup parameters for call to function HalLcdWriteString
   \   000030   7900         MOV     R1,#0x0
   \   000032   7A..         MOV     R2,#(`?<Constant "Figure8 Wireless">` & 0xff)
   \   000034   7B..         MOV     R3,#((`?<Constant "Figure8 Wireless">` >> 8) & 0xff)
   \   000036   12....       LCALL   ??HalLcdWriteString?relay
   1059            }
   1060          
   1061            sln = (byte)osal_strlen( str );
   \                     ??HalLcdWriteString_1:
   \   000039                ; Setup parameters for call to function osal_strlen
   \   000039   85..82       MOV     DPL,?XSP + 0
   \   00003C   85..83       MOV     DPH,?XSP + 1
   \   00003F   12....       LCALL   ?Subroutine13 & 0xFFFF
   \                     ??CrossCallReturnLabel_27:
   \   000042   F5..         MOV     ?V0 + 2,A
   1062          
   1063            // Check boundries
   1064            if ( sln > MAX_LCD_CHARS )
   \   000044   C3           CLR     C
   \   000045   9411         SUBB    A,#0x11
   \   000047   4003         JC      ??HalLcdWriteString_2
   1065              sln = MAX_LCD_CHARS;
   \   000049   75..10       MOV     ?V0 + 2,#0x10
   1066          
   1067            if ( option == HAL_LCD_LINE_1 ) {
   \                     ??HalLcdWriteString_2:
   \   00004C   E5..         MOV     A,?V0 + 1
   \   00004E   7033         JNZ     ??HalLcdWriteString_3
   1068              // Line 1 gets saved for later
   1069              osal_memcpy( Lcd_Line1, str, sln );
   \   000050                ; Setup parameters for call to function osal_memcpy
   \   000050   85..82       MOV     DPL,?XSP + 0
   \   000053   85..83       MOV     DPH,?XSP + 1
   \   000056   12....       LCALL   ?Subroutine11 & 0xFFFF
   \                     ??CrossCallReturnLabel_23:
   \   000059   12....       LCALL   ?PUSH_XSTACK_I_THREE
   \   00005C   AC..         MOV     R4,?V0 + 2
   \   00005E   7D00         MOV     R5,#0x0
   \   000060   90....       MOV     DPTR,#Lcd_Line1
   \   000063   E0           MOVX    A,@DPTR
   \   000064   FA           MOV     R2,A
   \   000065   A3           INC     DPTR
   \   000066   E0           MOVX    A,@DPTR
   \   000067   FB           MOV     R3,A
   \   000068   12....       LCALL   ??Subroutine15_0 & 0xFFFF
   \                     ??CrossCallReturnLabel_34:
   \   00006B   12....       LCALL   ?DEALLOC_XSTACK8
   1070              Lcd_Line1[sln] = '\0';
   \   00006E   A8..         MOV     R0,?V0 + 2
   \   000070   90....       MOV     DPTR,#Lcd_Line1
   \   000073   E0           MOVX    A,@DPTR
   \   000074   28           ADD     A,R0
   \   000075   FA           MOV     R2,A
   \   000076   A3           INC     DPTR
   \   000077   E0           MOVX    A,@DPTR
   \   000078   3400         ADDC    A,#0x0
   \   00007A   8A82         MOV     DPL,R2
   \   00007C   F583         MOV     DPH,A
   \   00007E   E4           CLR     A
   \   00007F   F0           MOVX    @DPTR,A
   \   000080   02....       LJMP    ??HalLcdWriteString_4 & 0xFFFF
   1071            }
   1072            else {
   1073              // Line 2 triggers action
   1074              x = (byte)osal_strlen( (char*)Lcd_Line1 );
   \                     ??HalLcdWriteString_3:
   \   000083                ; Setup parameters for call to function osal_strlen
   \   000083   90....       MOV     DPTR,#Lcd_Line1
   \   000086   12....       LCALL   ?Subroutine13 & 0xFFFF
   \                     ??CrossCallReturnLabel_28:
   \   000089   F5..         MOV     ?V0 + 0,A
   1075              bln = x + 1 + sln + 1;
   1076              buf = osal_mem_alloc( bln );
   \   00008B                ; Setup parameters for call to function osal_mem_alloc
   \   00008B   E5..         MOV     A,?V0 + 2
   \   00008D   25..         ADD     A,?V0 + 0
   \   00008F   2402         ADD     A,#0x2
   \   000091   FA           MOV     R2,A
   \   000092   7B00         MOV     R3,#0x0
   \   000094   12....       LCALL   ??osal_mem_alloc?relay
   \   000097   8A..         MOV     ?V0 + 4,R2
   \   000099   8B..         MOV     ?V0 + 5,R3
   \   00009B   AE..         MOV     R6,?V0 + 4
   \   00009D   AF..         MOV     R7,?V0 + 5
   1077              if ( buf != NULL ) {
   \   00009F   EE           MOV     A,R6
   \   0000A0   7001         JNZ     ??HalLcdWriteString_5
   \   0000A2   EF           MOV     A,R7
   \                     ??HalLcdWriteString_5:
   \   0000A3   6069         JZ      ??HalLcdWriteString_4
   1078                // Concatenate strings
   1079                osal_memcpy( buf, Lcd_Line1, x );
   \   0000A5                ; Setup parameters for call to function osal_memcpy
   \   0000A5   90....       MOV     DPTR,#Lcd_Line1
   \   0000A8   12....       LCALL   ?Subroutine11 & 0xFFFF
   \                     ??CrossCallReturnLabel_24:
   \   0000AB   12....       LCALL   ?PUSH_XSTACK_I_THREE
   \   0000AE   AC..         MOV     R4,?V0 + 0
   \   0000B0   7D00         MOV     R5,#0x0
   \   0000B2   12....       LCALL   ??Subroutine15_0 & 0xFFFF
   \                     ??CrossCallReturnLabel_35:
   \   0000B5   12....       LCALL   ?DEALLOC_XSTACK8
   1080                buf[x++] = ' ';
   \   0000B8   85....       MOV     ?V0 + 4,?V0 + 0
   \   0000BB   EE           MOV     A,R6
   \   0000BC   25..         ADD     A,?V0 + 4
   \   0000BE   F582         MOV     DPL,A
   \   0000C0   EF           MOV     A,R7
   \   0000C1   12....       LCALL   ??Subroutine1_0 & 0xFFFF
   \                     ??CrossCallReturnLabel_0:
   \   0000C4   05..         INC     ?V0 + 0
   \   0000C6                ; Setup parameters for call to function osal_memcpy
   \   0000C6   85..82       MOV     DPL,?XSP + 0
   \   0000C9   85..83       MOV     DPH,?XSP + 1
   \   0000CC   E0           MOVX    A,@DPTR
   \   0000CD   F5..         MOV     ?V0 + 4,A
   \   0000CF   A3           INC     DPTR
   \   0000D0   E0           MOVX    A,@DPTR
   \   0000D1   F5..         MOV     ?V0 + 5,A
   \   0000D3   78..         MOV     R0,#?V0 + 4
   \   0000D5   12....       LCALL   ?PUSH_XSTACK_I_THREE
   \   0000D8   AC..         MOV     R4,?V0 + 2
   \   0000DA   7D00         MOV     R5,#0x0
   \   0000DC   85....       MOV     ?V0 + 4,?V0 + 0
   \   0000DF   EE           MOV     A,R6
   \   0000E0   25..         ADD     A,?V0 + 4
   \   0000E2   FA           MOV     R2,A
   \   0000E3   EF           MOV     A,R7
   \   0000E4   3400         ADDC    A,#0x0
   \   0000E6   FB           MOV     R3,A
   \   0000E7   12....       LCALL   ??Subroutine15_0 & 0xFFFF
   \                     ??CrossCallReturnLabel_36:
   \   0000EA   12....       LCALL   ?DEALLOC_XSTACK8
   1081                osal_memcpy( &buf[x], str, sln );
   1082                buf[x+sln] = '\0';
   \   0000ED   E5..         MOV     A,?V0 + 2
   \   0000EF   25..         ADD     A,?V0 + 4
   \   0000F1   F8           MOV     R0,A
   \   0000F2   E4           CLR     A
   \   0000F3   3400         ADDC    A,#0x0
   \   0000F5   F9           MOV     R1,A
   \   0000F6   EE           MOV     A,R6
   \   0000F7   28           ADD     A,R0
   \   0000F8   F582         MOV     DPL,A
   \   0000FA   EF           MOV     A,R7
   \   0000FB   39           ADDC    A,R1
   \   0000FC   F583         MOV     DPH,A
   \   0000FE   E4           CLR     A
   \   0000FF   F0           MOVX    @DPTR,A
   1083                // Send it out
   1084          #ifdef ZTOOL_PORT
   1085                debug_str( (byte*)buf );
   \   000100                ; Setup parameters for call to function debug_str
   \   000100   EE           MOV     A,R6
   \   000101   FA           MOV     R2,A
   \   000102   EF           MOV     A,R7
   \   000103   FB           MOV     R3,A
   \   000104   12....       LCALL   ??debug_str?relay
   1086          #endif
   1087                osal_mem_free( buf );
   \   000107                ; Setup parameters for call to function osal_mem_free
   \   000107   EE           MOV     A,R6
   \   000108   FA           MOV     R2,A
   \   000109   EF           MOV     A,R7
   \   00010A   FB           MOV     R3,A
   \   00010B   12....       LCALL   ??osal_mem_free?relay
   1088              }
   1089            }
   1090          #endif // LCD_SD
   1091          
   1092          #ifdef LCD_HW
   1093            lcdUpdateLine( option, (byte*)str );
   \                     ??HalLcdWriteString_4:
   \   00010E                ; Setup parameters for call to function LCD_write_english_string
   \   00010E   85..82       MOV     DPL,?XSP + 0
   \   000111   85..83       MOV     DPH,?XSP + 1
   \   000114   E0           MOVX    A,@DPTR
   \   000115   FC           MOV     R4,A
   \   000116   A3           INC     DPTR
   \   000117   E0           MOVX    A,@DPTR
   \   000118   FD           MOV     R5,A
   \   000119   AA..         MOV     R2,?V0 + 1
   \   00011B   7900         MOV     R1,#0x0
   \   00011D   12....       LCALL   ??LCD_write_english_string?relay
   1094          #endif
   1095          
   1096          #endif /* HAL_LCD */
   1097          
   1098          }
   \   000120   7402         MOV     A,#0x2
   \   000122   12....       LCALL   ?DEALLOC_XSTACK8
   \   000125   7F07         MOV     R7,#0x7
   \   000127   02....       LJMP    ?BANKED_LEAVE_XDATA

   \                                 In  segment BANKED_CODE, align 1, keep-with-next
   \                     ?Subroutine13:
   \   000000   E0           MOVX    A,@DPTR
   \   000001   FA           MOV     R2,A
   \   000002   A3           INC     DPTR
   \   000003   E0           MOVX    A,@DPTR
   \   000004   FB           MOV     R3,A
   \   000005   12....       LCALL   ??osal_strlen?relay
   \   000008   EA           MOV     A,R2
   \   000009   22           RET

   \                                 In  segment BANKED_CODE, align 1, keep-with-next
   \                     ?Subroutine11:
   \   000000   E0           MOVX    A,@DPTR
   \   000001   F5..         MOV     ?V0 + 4,A
   \   000003   A3           INC     DPTR
   \   000004   E0           MOVX    A,@DPTR
   \   000005   F5..         MOV     ?V0 + 5,A
   \   000007   75..00       MOV     ?V0 + 6,#0x0
   \   00000A   78..         MOV     R0,#?V0 + 4
   \   00000C   22           RET

   \                                 In  segment BANKED_CODE, align 1, keep-with-next
   \                     ?Subroutine1:
   \   000000   85..82       MOV     DPL,?XSP + 0
   \   000003   85..83       MOV     DPH,?XSP + 1
   \   000006   E582         MOV     A,DPL
   \   000008   25..         ADD     A,?V0 + 0
   \   00000A   F582         MOV     DPL,A
   \   00000C   E583         MOV     A,DPH
   \                     ??Subroutine1_0:
   \   00000E   3400         ADDC    A,#0x0
   \   000010   F583         MOV     DPH,A
   \   000012   7420         MOV     A,#0x20
   \   000014   F0           MOVX    @DPTR,A
   \   000015   22           RET

   \                                 In  segment BANKED_CODE, align 1, keep-with-next
   \                     ?Subroutine15:
   \   000000   AA82         MOV     R2,DPL
   \   000002   AB83         MOV     R3,DPH
   \                     ??Subroutine15_0:
   \   000004   12....       LCALL   ??osal_memcpy?relay
   \   000007   7403         MOV     A,#0x3
   \   000009   22           RET
   1099          
   1100          /**************************************************************************************************
   1101           * @fn      HalLcdWriteValue
   1102           *
   1103           * @brief   Write a value to the LCD
   1104           *
   1105           * @param   value  - value that will be displayed
   1106           *          radix  - 8, 10, 16
   1107           *          option - display options
   1108           *
   1109           * @return  None
   1110           **************************************************************************************************/

   \                                 In  segment BANKED_CODE, align 1, keep-with-next
   1111          void HalLcdWriteValue ( uint32 value, const uint8 radix, uint8 option)
   \                     HalLcdWriteValue:
   1112          {
   \   000000   74F2         MOV     A,#-0xe
   \   000002   12....       LCALL   ?BANKED_ENTER_XDATA
   \   000005                ; Saved register size: 14
   \   000005                ; Auto size: 25
   \   000005   74E7         MOV     A,#-0x19
   \   000007   12....       LCALL   ?ALLOC_XSTACK8
   \   00000A   7427         MOV     A,#0x27
   \   00000C   12....       LCALL   ?XSTACK_DISP0_8
   \   00000F   E0           MOVX    A,@DPTR
   \   000010   FE           MOV     R6,A
   1113          #if (HAL_LCD == TRUE)
   1114            uint8 buf[LCD_MAX_BUF];
   1115          
   1116            _ltoa( value, &buf[0], radix );
   \   000011                ; Setup parameters for call to function _ltoa
   \   000011   85..82       MOV     DPL,?XSP + 0
   \   000014   85..83       MOV     DPH,?XSP + 1
   \   000017   8582..       MOV     ?V0 + 4,DPL
   \   00001A   8583..       MOV     ?V0 + 5,DPH
   \   00001D   78..         MOV     R0,#?V0 + 4
   \   00001F   12....       LCALL   ?PUSH_XSTACK_I_TWO
   \   000022   12....       LCALL   ??Subroutine16_1 & 0xFFFF
   \                     ??CrossCallReturnLabel_41:
   \   000025   12....       LCALL   ?DEALLOC_XSTACK8
   1117            HalLcdWriteString( (char*)buf, option );
   \   000028                ; Setup parameters for call to function HalLcdWriteString
   \   000028   EE           MOV     A,R6
   \   000029   F9           MOV     R1,A
   \   00002A                REQUIRE ?Subroutine20
   \   00002A                ; // Fall through to label ?Subroutine20
   1118          #endif /* HAL_LCD */
   1119          }

   \                                 In  segment BANKED_CODE, align 1, keep-with-next
   \                     ?Subroutine20:
   \   000000   85..82       MOV     DPL,?XSP + 0
   \   000003   85..83       MOV     DPH,?XSP + 1
   \   000006   AA82         MOV     R2,DPL
   \   000008   AB83         MOV     R3,DPH
   \   00000A   12....       LCALL   ??HalLcdWriteString?relay
   \   00000D   7419         MOV     A,#0x19
   \   00000F   12....       LCALL   ?DEALLOC_XSTACK8
   \   000012   7F06         MOV     R7,#0x6
   \   000014   02....       LJMP    ?BANKED_LEAVE_XDATA

   \                                 In  segment BANKED_CODE, align 1, keep-with-next
   \                     ?Subroutine16:
   \   000000   A9..         MOV     R1,?V0 + 3
   \   000002   8E..         MOV     ?V0 + 0,R6
   \   000004   8F..         MOV     ?V0 + 1,R7
   \   000006   AA..         MOV     R2,?V0 + 0
   \   000008   AB..         MOV     R3,?V0 + 1
   \                     ??Subroutine16_0:
   \   00000A   7C00         MOV     R4,#0x0
   \   00000C   7D00         MOV     R5,#0x0
   \                     ??Subroutine16_1:
   \   00000E   12....       LCALL   ??_ltoa?relay
   \   000011   7402         MOV     A,#0x2
   \   000013   22           RET
   1120          
   1121          /**************************************************************************************************
   1122           * @fn      HalLcdWriteScreen
   1123           *
   1124           * @brief   Write a value to the LCD
   1125           *
   1126           * @param   line1  - string that will be displayed on line 1
   1127           *          line2  - string that will be displayed on line 2
   1128           *
   1129           * @return  None
   1130           **************************************************************************************************/

   \                                 In  segment BANKED_CODE, align 1, keep-with-next
   1131          void HalLcdWriteScreen( char *line1, char *line2 )
   \                     HalLcdWriteScreen:
   1132          {
   \   000000   74F7         MOV     A,#-0x9
   \   000002   12....       LCALL   ?BANKED_ENTER_XDATA
   \   000005                ; Saved register size: 9
   \   000005                ; Auto size: 0
   \   000005   EC           MOV     A,R4
   \   000006   FE           MOV     R6,A
   \   000007   ED           MOV     A,R5
   \   000008   FF           MOV     R7,A
   1133          #if (HAL_LCD == TRUE)
   1134            HalLcdWriteString( line1, HAL_LCD_LINE_1 );
   \   000009                ; Setup parameters for call to function HalLcdWriteString
   \   000009   7900         MOV     R1,#0x0
   \   00000B   12....       LCALL   ??HalLcdWriteString?relay
   1135            HalLcdWriteString( line2, HAL_LCD_LINE_2 );
   \   00000E                ; Setup parameters for call to function HalLcdWriteString
   \   00000E   7902         MOV     R1,#0x2
   \   000010   EE           MOV     A,R6
   \   000011   FA           MOV     R2,A
   \   000012   EF           MOV     A,R7
   \   000013   FB           MOV     R3,A
   \   000014   12....       LCALL   ??HalLcdWriteString?relay
   1136          #endif /* HAL_LCD */
   1137          }
   \   000017   02....       LJMP    ?Subroutine18 & 0xFFFF
   1138          
   1139          /**************************************************************************************************
   1140           * @fn      HalLcdWriteStringValue
   1141           *
   1142           * @brief   Write a string followed by a value to the LCD
   1143           *
   1144           * @param   title  -
   1145           *          value  -
   1146           *          format -
   1147           *          line   -
   1148           *
   1149           * @return  None
   1150           **************************************************************************************************/

   \                                 In  segment BANKED_CODE, align 1, keep-with-next
   1151          void HalLcdWriteStringValue( char *title, uint16 value, uint8 format, uint8 line )
   \                     HalLcdWriteStringValue:
   1152          {
   \   000000   74F2         MOV     A,#-0xe
   \   000002   12....       LCALL   ?BANKED_ENTER_XDATA
   \   000005                ; Saved register size: 14
   \   000005                ; Auto size: 25
   \   000005   74E7         MOV     A,#-0x19
   \   000007   12....       LCALL   ?ALLOC_XSTACK8
   \   00000A   8A..         MOV     ?V0 + 0,R2
   \   00000C   8B..         MOV     ?V0 + 1,R3
   \   00000E   EC           MOV     A,R4
   \   00000F   FE           MOV     R6,A
   \   000010   ED           MOV     A,R5
   \   000011   FF           MOV     R7,A
   \   000012   89..         MOV     ?V0 + 3,R1
   \   000014   7427         MOV     A,#0x27
   \   000016   12....       LCALL   ?XSTACK_DISP0_8
   \   000019   E0           MOVX    A,@DPTR
   \   00001A   F5..         MOV     ?V0 + 5,A
   1153          #if (HAL_LCD == TRUE)
   1154            uint8 tmpLen;
   1155            uint8 buf[LCD_MAX_BUF];
   1156            uint32 err;
   1157          
   1158            tmpLen = (uint8)osal_strlen( (char*)title );
   \   00001C                ; Setup parameters for call to function osal_strlen
   \   00001C   12....       LCALL   ??osal_strlen?relay
   1159            osal_memcpy( buf, title, tmpLen );
   \   00001F                ; Setup parameters for call to function osal_memcpy
   \   00001F   75..00       MOV     ?V0 + 2,#0x0
   \   000022   78..         MOV     R0,#?V0 + 0
   \   000024   12....       LCALL   ?PUSH_XSTACK_I_THREE
   \   000027   EA           MOV     A,R2
   \   000028   F5..         MOV     ?V0 + 0,A
   \   00002A   FC           MOV     R4,A
   \   00002B   7D00         MOV     R5,#0x0
   \   00002D   7403         MOV     A,#0x3
   \   00002F   12....       LCALL   ?XSTACK_DISP0_8
   \   000032   12....       LCALL   ?Subroutine15 & 0xFFFF
   \                     ??CrossCallReturnLabel_31:
   \   000035   12....       LCALL   ?DEALLOC_XSTACK8
   1160            buf[tmpLen] = ' ';
   \   000038   12....       LCALL   ?Subroutine1 & 0xFFFF
   1161            err = (uint32)(value);
   1162            _ltoa( err, &buf[tmpLen+1], format );
   \                     ??CrossCallReturnLabel_1:
   \   00003B                ; Setup parameters for call to function _ltoa
   \   00003B   A3           INC     DPTR
   \   00003C   8582..       MOV     ?V0 + 0,DPL
   \   00003F   8583..       MOV     ?V0 + 1,DPH
   \   000042   78..         MOV     R0,#?V0 + 0
   \   000044   12....       LCALL   ?PUSH_XSTACK_I_TWO
   \   000047   12....       LCALL   ?Subroutine16 & 0xFFFF
   \                     ??CrossCallReturnLabel_37:
   \   00004A   12....       LCALL   ?DEALLOC_XSTACK8
   1163            HalLcdWriteString( (char*)buf, line );		
   \   00004D                ; Setup parameters for call to function HalLcdWriteString
   \   00004D   A9..         MOV     R1,?V0 + 5
   \   00004F   02....       LJMP    ?Subroutine20 & 0xFFFF
   1164          #endif /* HAL_LCD */
   1165          }
   1166          
   1167          /**************************************************************************************************
   1168           * @fn      HalLcdWriteStringValue
   1169           *
   1170           * @brief   Write a string followed by a value to the LCD
   1171           *
   1172           * @param   title   -
   1173           *          value1  -
   1174           *          format1 -
   1175           *          value2  -
   1176           *          format2 -
   1177           *          line    -
   1178           *
   1179           * @return  None
   1180           **************************************************************************************************/

   \                                 In  segment BANKED_CODE, align 1, keep-with-next
   1181          void HalLcdWriteStringValueValue( char *title, uint16 value1, uint8 format1,
   \                     HalLcdWriteStringValueValue:
   1182                                            uint16 value2, byte format2, uint8 line )
   1183          {
   \   000000   74F0         MOV     A,#-0x10
   \   000002   12....       LCALL   ?BANKED_ENTER_XDATA
   \   000005                ; Saved register size: 16
   \   000005                ; Auto size: 25
   \   000005   74E7         MOV     A,#-0x19
   \   000007   12....       LCALL   ?ALLOC_XSTACK8
   \   00000A   8A..         MOV     ?V0 + 0,R2
   \   00000C   8B..         MOV     ?V0 + 1,R3
   \   00000E   EC           MOV     A,R4
   \   00000F   FE           MOV     R6,A
   \   000010   ED           MOV     A,R5
   \   000011   FF           MOV     R7,A
   \   000012   89..         MOV     ?V0 + 3,R1
   \   000014   7429         MOV     A,#0x29
   \   000016   12....       LCALL   ?XSTACK_DISP0_8
   \   000019   E0           MOVX    A,@DPTR
   \   00001A   F5..         MOV     ?V0 + 6,A
   \   00001C   A3           INC     DPTR
   \   00001D   E0           MOVX    A,@DPTR
   \   00001E   F5..         MOV     ?V0 + 7,A
   1184          #if (HAL_LCD == TRUE)
   1185            uint8 tmpLen;
   1186            uint8 buf[LCD_MAX_BUF];
   1187            uint32 err;
   1188          
   1189            tmpLen = (uint8)osal_strlen( (char*)title );
   \   000020                ; Setup parameters for call to function osal_strlen
   \   000020   12....       LCALL   ??osal_strlen?relay
   \   000023   EA           MOV     A,R2
   \   000024   F5..         MOV     ?V0 + 4,A
   1190            if ( tmpLen )
   \   000026   601E         JZ      ??HalLcdWriteStringValueValue_0
   1191            {
   1192              osal_memcpy( buf, title, tmpLen );
   \   000028                ; Setup parameters for call to function osal_memcpy
   \   000028   75..00       MOV     ?V0 + 2,#0x0
   \   00002B   78..         MOV     R0,#?V0 + 0
   \   00002D   12....       LCALL   ?PUSH_XSTACK_I_THREE
   \   000030   EA           MOV     A,R2
   \   000031   F5..         MOV     ?V0 + 0,A
   \   000033   FC           MOV     R4,A
   \   000034   7D00         MOV     R5,#0x0
   \   000036   7403         MOV     A,#0x3
   \   000038   12....       LCALL   ?XSTACK_DISP0_8
   \   00003B   12....       LCALL   ?Subroutine15 & 0xFFFF
   \                     ??CrossCallReturnLabel_32:
   \   00003E   12....       LCALL   ?DEALLOC_XSTACK8
   1193              buf[tmpLen++] = ' ';
   \   000041   12....       LCALL   ?Subroutine1 & 0xFFFF
   \                     ??CrossCallReturnLabel_2:
   \   000044   05..         INC     ?V0 + 4
   1194            }
   1195          
   1196            err = (uint32)(value1);
   1197            _ltoa( err, &buf[tmpLen], format1 );
   \                     ??HalLcdWriteStringValueValue_0:
   \   000046                ; Setup parameters for call to function _ltoa
   \   000046   85..82       MOV     DPL,?XSP + 0
   \   000049   85..83       MOV     DPH,?XSP + 1
   \   00004C   E582         MOV     A,DPL
   \   00004E   25..         ADD     A,?V0 + 4
   \   000050   F5..         MOV     ?V0 + 0,A
   \   000052   E583         MOV     A,DPH
   \   000054   3400         ADDC    A,#0x0
   \   000056   F5..         MOV     ?V0 + 1,A
   \   000058   78..         MOV     R0,#?V0 + 0
   \   00005A   12....       LCALL   ?PUSH_XSTACK_I_TWO
   \   00005D   12....       LCALL   ?Subroutine16 & 0xFFFF
   \                     ??CrossCallReturnLabel_38:
   \   000060   12....       LCALL   ?DEALLOC_XSTACK8
   1198            tmpLen = (uint8)osal_strlen( (char*)buf );
   \   000063                ; Setup parameters for call to function osal_strlen
   \   000063   85..82       MOV     DPL,?XSP + 0
   \   000066   85..83       MOV     DPH,?XSP + 1
   \   000069   AA82         MOV     R2,DPL
   \   00006B   AB83         MOV     R3,DPH
   \   00006D   12....       LCALL   ??osal_strlen?relay
   \   000070   EA           MOV     A,R2
   \   000071   F5..         MOV     ?V0 + 4,A
   1199          
   1200            buf[tmpLen++] = ',';
   \   000073   F5..         MOV     ?V0 + 0,A
   \   000075   12....       LCALL   ?Subroutine9 & 0xFFFF
   \                     ??CrossCallReturnLabel_19:
   \   000078   742C         MOV     A,#0x2c
   \   00007A   F0           MOVX    @DPTR,A
   \   00007B   05..         INC     ?V0 + 4
   1201            buf[tmpLen++] = ' ';
   \   00007D   85....       MOV     ?V0 + 0,?V0 + 4
   \   000080   12....       LCALL   ?Subroutine1 & 0xFFFF
   1202            err = (uint32)(value2);
   1203            _ltoa( err, &buf[tmpLen], format2 );
   \                     ??CrossCallReturnLabel_3:
   \   000083                ; Setup parameters for call to function _ltoa
   \   000083   7401         MOV     A,#0x1
   \   000085   25..         ADD     A,?V0 + 4
   \   000087   F8           MOV     R0,A
   \   000088   85..82       MOV     DPL,?XSP + 0
   \   00008B   85..83       MOV     DPH,?XSP + 1
   \   00008E   E582         MOV     A,DPL
   \   000090   28           ADD     A,R0
   \   000091   F5..         MOV     ?V0 + 0,A
   \   000093   E583         MOV     A,DPH
   \   000095   3400         ADDC    A,#0x0
   \   000097   F5..         MOV     ?V0 + 1,A
   \   000099   78..         MOV     R0,#?V0 + 0
   \   00009B   12....       LCALL   ?PUSH_XSTACK_I_TWO
   \   00009E   742D         MOV     A,#0x2d
   \   0000A0   12....       LCALL   ?XSTACK_DISP0_8
   \   0000A3   E0           MOVX    A,@DPTR
   \   0000A4   F9           MOV     R1,A
   \   0000A5   AA..         MOV     R2,?V0 + 6
   \   0000A7   AB..         MOV     R3,?V0 + 7
   \   0000A9   12....       LCALL   ??Subroutine16_0 & 0xFFFF
   \                     ??CrossCallReturnLabel_39:
   \   0000AC   12....       LCALL   ?DEALLOC_XSTACK8
   1204          
   1205            HalLcdWriteString( (char *)buf, line );		
   \   0000AF                ; Setup parameters for call to function HalLcdWriteString
   \   0000AF   742C         MOV     A,#0x2c
   \   0000B1   12....       LCALL   ?XSTACK_DISP0_8
   \   0000B4   E0           MOVX    A,@DPTR
   \   0000B5   F9           MOV     R1,A
   \   0000B6   85..82       MOV     DPL,?XSP + 0
   \   0000B9   85..83       MOV     DPH,?XSP + 1
   \   0000BC   AA82         MOV     R2,DPL
   \   0000BE   AB83         MOV     R3,DPH
   \   0000C0   12....       LCALL   ??HalLcdWriteString?relay
   1206          #endif /* HAL_LCD */
   1207          }
   \   0000C3   7419         MOV     A,#0x19
   \   0000C5   02....       LJMP    ?Subroutine19 & 0xFFFF
   1208          
   1209          /**************************************************************************************************
   1210           * @fn      HalLcdDisplayPercentBar
   1211           *
   1212           * @brief   Display percentage bar on the LCD
   1213           *
   1214           * @param   title   -
   1215           *          value   -
   1216           *
   1217           * @return  None
   1218           **************************************************************************************************/

   \                                 In  segment BANKED_CODE, align 1, keep-with-next
   1219          void HalLcdDisplayPercentBar( char *title, uint8 value )
   \                     HalLcdDisplayPercentBar:
   1220          {
   \   000000   74F4         MOV     A,#-0xc
   \   000002   12....       LCALL   ?BANKED_ENTER_XDATA
   \   000005                ; Saved register size: 12
   \   000005                ; Auto size: 21
   \   000005   74EB         MOV     A,#-0x15
   \   000007   12....       LCALL   ?ALLOC_XSTACK8
   \   00000A   E9           MOV     A,R1
   \   00000B   FE           MOV     R6,A
   1221          #if (HAL_LCD == TRUE)
   1222            uint8 percent;
   1223            uint8 leftOver;
   1224            uint8 buf[HAL_LCD_MAX_CHARS+1];
   1225            uint32 err;
   1226            uint8 x;
   1227          
   1228            /* Write the title: */
   1229            HalLcdWriteString( title, HAL_LCD_LINE_1 );
   \   00000C                ; Setup parameters for call to function HalLcdWriteString
   \   00000C   7900         MOV     R1,#0x0
   \   00000E   12....       LCALL   ??HalLcdWriteString?relay
   1230          
   1231            if ( value > 100 )
   \   000011   EE           MOV     A,R6
   \   000012   C3           CLR     C
   \   000013   9465         SUBB    A,#0x65
   \   000015   4002         JC      ??HalLcdDisplayPercentBar_0
   1232              value = 100;
   \   000017   7E64         MOV     R6,#0x64
   1233          
   1234            /* convert to blocks */
   1235            percent = (byte)(value / 10);
   \                     ??HalLcdDisplayPercentBar_0:
   \   000019   75F00A       MOV     B,#0xa
   \   00001C   EE           MOV     A,R6
   \   00001D   84           DIV     AB
   \   00001E   F5..         MOV     ?V0 + 3,A
   1236            leftOver = (byte)(value % 10);
   \   000020   EE           MOV     A,R6
   \   000021   75F00A       MOV     B,#0xa
   \   000024   84           DIV     AB
   \   000025   AFF0         MOV     R7,B
   1237          
   1238            /* Make window */
   1239            osal_memcpy( buf, "[          ]  ", 15 );
   \   000027                ; Setup parameters for call to function osal_memcpy
   \   000027   75....       MOV     ?V0 + 0,#(`?<Constant "[          ]  ">` & 0xff)
   \   00002A   75....       MOV     ?V0 + 1,#((`?<Constant "[          ]  ">` >> 8) & 0xff)
   \   00002D   75..00       MOV     ?V0 + 2,#0x0
   \   000030   78..         MOV     R0,#?V0 + 0
   \   000032   12....       LCALL   ?PUSH_XSTACK_I_THREE
   \   000035   7C0F         MOV     R4,#0xf
   \   000037   7D00         MOV     R5,#0x0
   \   000039   7403         MOV     A,#0x3
   \   00003B   12....       LCALL   ?XSTACK_DISP0_8
   \   00003E   12....       LCALL   ?Subroutine15 & 0xFFFF
   \                     ??CrossCallReturnLabel_33:
   \   000041   12....       LCALL   ?DEALLOC_XSTACK8
   1240          
   1241            for ( x = 0; x < percent; x ++ )
   \   000044   800C         SJMP    ??HalLcdDisplayPercentBar_1
   1242            {
   1243              buf[1+x] = '>';
   \                     ??HalLcdDisplayPercentBar_2:
   \   000046   85....       MOV     ?V0 + 0,?V0 + 2
   \   000049   12....       LCALL   ?Subroutine9 & 0xFFFF
   \                     ??CrossCallReturnLabel_20:
   \   00004C   A3           INC     DPTR
   \   00004D   743E         MOV     A,#0x3e
   \   00004F   F0           MOVX    @DPTR,A
   1244            }
   \   000050   05..         INC     ?V0 + 2
   \                     ??HalLcdDisplayPercentBar_1:
   \   000052   E5..         MOV     A,?V0 + 2
   \   000054   C3           CLR     C
   \   000055   95..         SUBB    A,?V0 + 3
   \   000057   40ED         JC      ??HalLcdDisplayPercentBar_2
   1245          
   1246            if ( leftOver >= 5 )
   \   000059   EF           MOV     A,R7
   \   00005A   C3           CLR     C
   \   00005B   9405         SUBB    A,#0x5
   \   00005D   4016         JC      ??HalLcdDisplayPercentBar_3
   1247              buf[1+x] = '+';
   \   00005F   85..82       MOV     DPL,?XSP + 0
   \   000062   85..83       MOV     DPH,?XSP + 1
   \   000065   E582         MOV     A,DPL
   \   000067   25..         ADD     A,?V0 + 2
   \   000069   F582         MOV     DPL,A
   \   00006B   E583         MOV     A,DPH
   \   00006D   3400         ADDC    A,#0x0
   \   00006F   F583         MOV     DPH,A
   \   000071   A3           INC     DPTR
   \   000072   742B         MOV     A,#0x2b
   \   000074   F0           MOVX    @DPTR,A
   1248          
   1249            err = (uint32)value;
   1250            _ltoa( err, (uint8*)&buf[13], 10 );
   \                     ??HalLcdDisplayPercentBar_3:
   \   000075                ; Setup parameters for call to function _ltoa
   \   000075   740D         MOV     A,#0xd
   \   000077   12....       LCALL   ?XSTACK_DISP0_8
   \   00007A   8582..       MOV     ?V0 + 0,DPL
   \   00007D   8583..       MOV     ?V0 + 1,DPH
   \   000080   78..         MOV     R0,#?V0 + 0
   \   000082   12....       LCALL   ?PUSH_XSTACK_I_TWO
   \   000085   790A         MOV     R1,#0xa
   \   000087   EE           MOV     A,R6
   \   000088   FA           MOV     R2,A
   \   000089   7B00         MOV     R3,#0x0
   \   00008B   12....       LCALL   ??Subroutine16_0 & 0xFFFF
   \                     ??CrossCallReturnLabel_40:
   \   00008E   12....       LCALL   ?DEALLOC_XSTACK8
   1251          
   1252            HalLcdWriteString( (char*)buf, HAL_LCD_LINE_2 );
   \   000091                ; Setup parameters for call to function HalLcdWriteString
   \   000091   7902         MOV     R1,#0x2
   \   000093   85..82       MOV     DPL,?XSP + 0
   \   000096   85..83       MOV     DPH,?XSP + 1
   \   000099   AA82         MOV     R2,DPL
   \   00009B   AB83         MOV     R3,DPH
   \   00009D   12....       LCALL   ??HalLcdWriteString?relay
   1253          #endif /* HAL_LCD */
   1254          }
   \   0000A0   7415         MOV     A,#0x15
   \   0000A2   12....       LCALL   ?DEALLOC_XSTACK8
   \   0000A5   7F04         MOV     R7,#0x4
   \   0000A7   02....       LJMP    ?BANKED_LEAVE_XDATA

   \                                 In  segment BANKED_CODE, align 1, keep-with-next
   \                     ?Subroutine7:
   \   000000   7900         MOV     R1,#0x0
   \   000002   12....       LCALL   ??DatWrite?relay
   \   000005                ; Setup parameters for call to function DatWrite
   \   000005                ; Setup parameters for call to function DatWrite
   \   000005   7900         MOV     R1,#0x0
   \   000007   12....       LCALL   ??DatWrite?relay
   \   00000A   22           RET

   \                                 In  segment BANKED_CODE, align 1, keep-with-next
   \                     ?Subroutine2:
   \   000000   F9           MOV     R1,A
   \   000001   12....       LCALL   ??ComWrite?relay
   \   000004                ; Setup parameters for call to function ComWrite
   \   000004                ; Setup parameters for call to function ComWrite
   \   000004   7910         MOV     R1,#0x10
   \   000006   12....       LCALL   ??ComWrite?relay
   \   000009                ; Setup parameters for call to function ComWrite
   \   000009                ; Setup parameters for call to function ComWrite
   \   000009   7900         MOV     R1,#0x0
   \   00000B   12....       LCALL   ??ComWrite?relay
   \   00000E   22           RET

   \                                 In  segment XDATA_ID, align 1, keep-with-next
   \                     `?<Initializer for <Constant "Figure8 Wireless"`:
   \   000000   46696775     DB "Figure8 Wireless"
   \            72653820
   \            57697265
   \            6C657373
   \            00      

   \                                 In  segment XDATA_ID, align 1, keep-with-next
   \                     `?<Initializer for <Constant "[          ]  ">>`:
   \   000000   5B202020     DB "[          ]  "
   \            20202020
   \            2020205D
   \            202000  

   \                                 In  segment BANK_RELAYS, align 1
   \                     ??Delay_us?relay:
   \   000000   12....       LCALL   ?BDISPATCH
   \   000003   ......       DC24    Delay_us

   \                                 In  segment BANK_RELAYS, align 1
   \                     ??OutData_164?relay:
   \   000000   12....       LCALL   ?BDISPATCH
   \   000003   ......       DC24    OutData_164

   \                                 In  segment BANK_RELAYS, align 1
   \                     ??DatWrite?relay:
   \   000000   12....       LCALL   ?BDISPATCH
   \   000003   ......       DC24    DatWrite

   \                                 In  segment BANK_RELAYS, align 1
   \                     ??ComWrite?relay:
   \   000000   12....       LCALL   ?BDISPATCH
   \   000003   ......       DC24    ComWrite

   \                                 In  segment BANK_RELAYS, align 1
   \                     ??initLcd?relay:
   \   000000   12....       LCALL   ?BDISPATCH
   \   000003   ......       DC24    initLcd

   \                                 In  segment BANK_RELAYS, align 1
   \                     ??LCD_write_english_string?relay:
   \   000000   12....       LCALL   ?BDISPATCH
   \   000003   ......       DC24    LCD_write_english_string

   \                                 In  segment BANK_RELAYS, align 1
   \                     ??HalLcdInit?relay:
   \   000000   12....       LCALL   ?BDISPATCH
   \   000003   ......       DC24    HalLcdInit

   \                                 In  segment BANK_RELAYS, align 1
   \                     ??HalLcdWriteString?relay:
   \   000000   12....       LCALL   ?BDISPATCH
   \   000003   ......       DC24    HalLcdWriteString

   \                                 In  segment BANK_RELAYS, align 1
   \                     ??HalLcdWriteValue?relay:
   \   000000   12....       LCALL   ?BDISPATCH
   \   000003   ......       DC24    HalLcdWriteValue

   \                                 In  segment BANK_RELAYS, align 1
   \                     ??HalLcdWriteScreen?relay:
   \   000000   12....       LCALL   ?BDISPATCH
   \   000003   ......       DC24    HalLcdWriteScreen

   \                                 In  segment BANK_RELAYS, align 1
   \                     ??HalLcdWriteStringValue?relay:
   \   000000   12....       LCALL   ?BDISPATCH
   \   000003   ......       DC24    HalLcdWriteStringValue

   \                                 In  segment BANK_RELAYS, align 1
   \                     ??HalLcdWriteStringValueValue?relay:
   \   000000   12....       LCALL   ?BDISPATCH
   \   000003   ......       DC24    HalLcdWriteStringValueValue

   \                                 In  segment BANK_RELAYS, align 1
   \                     ??HalLcdDisplayPercentBar?relay:
   \   000000   12....       LCALL   ?BDISPATCH
   \   000003   ......       DC24    HalLcdDisplayPercentBar

   \                                 In  segment XDATA_I, align 1, keep-with-next
   \                     `?<Constant "Figure8 Wireless">`:
   \   000000                DS 17
   \   000011                REQUIRE `?<Initializer for <Constant "Figure8 Wireless"`
   \   000011                REQUIRE __INIT_XDATA_I

   \                                 In  segment XDATA_I, align 1, keep-with-next
   \                     `?<Constant "[          ]  ">`:
   \   000000                DS 15
   \   00000F                REQUIRE `?<Initializer for <Constant "[          ]  ">>`
   \   00000F                REQUIRE __INIT_XDATA_I
   1255          
   1256          
   1257          /**************************************************************************************************
   1258          **************************************************************************************************/
   1259          

   Maximum stack usage in bytes:

     Function                      ISTACK PSTACK XSTACK
     --------                      ------ ------ ------
     ComWrite                          2      0     34
       -> OutData_164                  4      0      0
       -> Delay_us                     4      0      0
       -> Delay_us                     4      0      0
     DatWrite                          2      0     34
       -> OutData_164                  4      0      0
       -> Delay_us                     4      0      0
       -> Delay_us                     4      0      0
     Delay_us                          0      0      9
     HalLcdDisplayPercentBar           1      0     36
       -> HalLcdWriteString            0      0     66
       -> osal_memcpy                  0      0     72
       -> _ltoa                        0      0     70
       -> HalLcdWriteString            0      0     66
     HalLcdInit                        2      0      0
       -> initLcd                      4      0      0
     HalLcdWriteScreen                 0      0      9
       -> HalLcdWriteString            0      0     18
       -> HalLcdWriteString            0      0     18
     HalLcdWriteString                 1      0     61
       -> osal_mem_alloc               0      0     34
       -> HalLcdWriteString            0      0     34
       -> osal_strlen                  0      0     34
       -> osal_memcpy                  0      0     40
       -> osal_strlen                  0      0     34
       -> osal_mem_alloc               0      0     34
       -> osal_memcpy                  0      0     40
       -> osal_memcpy                  0      0     40
       -> debug_str                    0      0     34
       -> osal_mem_free                0      0     34
       -> LCD_write_english_string     0      0     34
     HalLcdWriteStringValue            1      0     43
       -> osal_strlen                  0      0     78
       -> osal_memcpy                  0      0     84
       -> _ltoa                        0      0     82
       -> HalLcdWriteString            0      0     78
     HalLcdWriteStringValueValue       1      0     48
       -> osal_strlen                  0      0     82
       -> osal_memcpy                  0      0     88
       -> _ltoa                        0      0     86
       -> osal_strlen                  0      0     82
       -> _ltoa                        0      0     86
       -> HalLcdWriteString            0      0     82
     HalLcdWriteValue                  0      0     42
       -> _ltoa                        0      0     82
       -> HalLcdWriteString            0      0     78
     LCD_write_english_string          1      0     51
       -> ComWrite                     0      0     68
       -> ComWrite                     0      0     68
       -> ComWrite                     0      0     68
       -> DatWrite                     0      0     68
       -> DatWrite                     0      0     68
       -> ComWrite                     0      0     68
       -> ComWrite                     0      0     68
       -> ComWrite                     0      0     68
       -> DatWrite                     0      0     68
       -> ComWrite                     0      0     68
       -> ComWrite                     0      0     68
       -> ComWrite                     0      0     68
       -> DatWrite                     0      0     68
     OutData_164                       0      0      0
     initLcd                           0      0      9
       -> Delay_us                     0      0     18
       -> ComWrite                     0      0     18
       -> Delay_us                     0      0     18
       -> ComWrite                     0      0     18
       -> ComWrite                     0      0     18
       -> ComWrite                     0      0     18
       -> ComWrite                     0      0     18
       -> ComWrite                     0      0     18
       -> ComWrite                     0      0     18
       -> ComWrite                     0      0     18
       -> ComWrite                     0      0     18
       -> ComWrite                     0      0     18
       -> ComWrite                     0      0     18
       -> ComWrite                     0      0     18
       -> ComWrite                     0      0     18
       -> ComWrite                     0      0     18
       -> ComWrite                     0      0     18
       -> DatWrite                     0      0     18
       -> DatWrite                     0      0     18


   Segment part sizes:

     Function/Label                 Bytes
     --------------                 -----
     _A_P1                             1
     P1SEL                             1
     P1DIR                             1
     font8x16                       1568
     Lcd_Line1                         2
     Delay_us                         30
     OutData_164                      33
     DatWrite                          6
     ?Subroutine17                    10
     ?Subroutine0                     22
     ComWrite                          8
     initLcd                         103
     ?Subroutine18                     5
     ?Subroutine6                      9
     LCD_write_english_string        349
     ?Subroutine19                     8
     ?Subroutine14                    15
     ?Subroutine12                    13
     ?Subroutine10                    19
     ?Subroutine8                     11
     ?Subroutine5                     13
     ?Subroutine4                     19
     ?Subroutine3                     33
     ?Subroutine9                     19
     HalLcdInit                       17
     HalLcdWriteString               298
     ?Subroutine13                    10
     ?Subroutine11                    13
     ?Subroutine1                     22
     ?Subroutine15                    10
     HalLcdWriteValue                 42
     ?Subroutine20                    23
     ?Subroutine16                    20
     HalLcdWriteScreen                26
     HalLcdWriteStringValue           82
     HalLcdWriteStringValueValue     200
     HalLcdDisplayPercentBar         170
     ?Subroutine7                     11
     ?Subroutine2                     15
     ?<Initializer for <Constant "Figure8 Wireless"
                                      17
     ?<Initializer for <Constant "[          ]  ">>
                                      15
     ??Delay_us?relay                  6
     ??OutData_164?relay               6
     ??DatWrite?relay                  6
     ??ComWrite?relay                  6
     ??initLcd?relay                   6
     ??LCD_write_english_string?relay
                                       6
     ??HalLcdInit?relay                6
     ??HalLcdWriteString?relay         6
     ??HalLcdWriteValue?relay          6
     ??HalLcdWriteScreen?relay         6
     ??HalLcdWriteStringValue?relay    6
     ??HalLcdWriteStringValueValue?relay
                                       6
     ??HalLcdDisplayPercentBar?relay
                                       6
     ?<Constant "Figure8 Wireless">   17
     ?<Constant "[          ]  ">     15

 
 1 684 bytes in segment BANKED_CODE
    78 bytes in segment BANK_RELAYS
 1 568 bytes in segment CODE_C
     3 bytes in segment SFR_AN
    32 bytes in segment XDATA_I
    32 bytes in segment XDATA_ID
     2 bytes in segment XDATA_Z
 
 3 362 bytes of CODE  memory
     0 bytes of DATA  memory (+ 3 bytes shared)
    34 bytes of XDATA memory

Errors: none
Warnings: 3
