///////////////////////////////////////////////////////////////////////////////
//                                                                            /
// IAR 8051 C/C++ Compiler V7.30B/W32                   07/Jun/2011  21:38:44 /
// Copyright 2004-2007 IAR Systems. All rights reserved.                      /
//                                                                            /
//    Core               =  plain                                             /
//    Code model         =  banked                                            /
//    Data model         =  large                                             /
//    Calling convention =  xdata reentrant                                   /
//    Constant location  =  data                                              /
//    Dptr setup         =  1,16                                              /
//    Source file        =  E:\嵌入式开发\hit-wsn\src\hit_wsn_2.1\hit_wsn_2.1 /
//                          \CC2430\Projects\zstack\Samples\GenericApp\Source /
//                          \GenericApp.c                                     /
//    Command line       =  -f E:\嵌入式开发\hit-wsn\src\hit_wsn_2.1\hit_wsn_ /
//                          2.1\CC2430\Projects\zstack\Samples\GenericApp\CC2 /
//                          430DB\..\..\..\Tools\CC2430DB\f8wCoord.cfg        /
//                          (-DCPU32MHZ -DFORCE_MAC_NEAR -DROOT=__near_func   /
//                          -DMAC_CFG_APP_PENDING_QUEUE=TRUE                  /
//                          -DZDO_COORDINATOR -DRTR_NWK -DBLINK_LEDS          /
//                          "-DCONST=const __code" -DGENERIC=__generic) -f    /
//                          E:\嵌入式开发\hit-wsn\src\hit_wsn_2.1\hit_wsn_2.1 /
//                          \CC2430\Projects\zstack\Samples\GenericApp\CC2430 /
//                          DB\..\..\..\Tools\CC2430DB\f8wConfig.cfg          /
//                          (-DSECURE=0 -DDEFAULT_CHANLIST=0x00000800         /
//                          -DZDAPP_CONFIG_PAN_ID=0xFFFF                      /
//                          -DNWK_START_DELAY=100 -DEXTENDED_JOINING_RANDOM_M /
//                          ASK=0x007F -DBEACON_REQUEST_DELAY=100             /
//                          -DBEACON_REQ_DELAY_MASK=0x00FF                    /
//                          -DROUTE_EXPIRY_TIME=30 -DAPSC_ACK_WAIT_DURATION_P /
//                          OLLED=3000 -DNWK_INDIRECT_MSG_TIMEOUT=7           /
//                          -DMAX_RREQ_ENTRIES=10 -DAPSC_MAX_FRAME_RETRIES=3  /
//                          -DNWK_MAX_DATA_RETRIES=2                          /
//                          -DMAX_POLL_FAILURE_RETRIES=2 -DMAX_BCAST=9        /
//                          -DAPS_MAX_GROUPS=16 -DMAX_RTG_ENTRIES=20          /
//                          -DNWK_MAX_BINDING_ENTRIES=10                      /
//                          -DMAX_BINDING_CLUSTER_IDS=5                       /
//                          "-DDEFAULT_KEY={0x01, 0x03, 0x05, 0x07, 0x09,     /
//                          0x0B, 0x0D, 0x0F, 0x00, 0x02, 0x04, 0x06, 0x08,   /
//                          0x0A, 0x0C, 0x0D}" -DRFD_RCVC_ALWAYS_ON=FALSE     /
//                          -DPOLL_RATE=1000 -DQUEUED_POLL_RATE=100           /
//                          -DRESPONSE_POLL_RATE=100) -DREJOIN_POLL_RATE=440  /
//                          E:\嵌入式开发\hit-wsn\src\hit_wsn_2.1\hit_wsn_2.1 /
//                          \CC2430\Projects\zstack\Samples\GenericApp\Source /
//                          \GenericApp.c -D CC2430EB -D REFLECTOR -D         /
//                          ZTOOL_P1 -D MT_TASK -D xMT_ZDO_FUNC -D            /
//                          LCD_SUPPORTED=DEBUG -lC                           /
//                          E:\嵌入式开发\hit-wsn\src\hit_wsn_2.1\hit_wsn_2.1 /
//                          \CC2430\Projects\zstack\Samples\GenericApp\CC2430 /
//                          DB\CoordinatorEB\List\ -lA                        /
//                          E:\嵌入式开发\hit-wsn\src\hit_wsn_2.1\hit_wsn_2.1 /
//                          \CC2430\Projects\zstack\Samples\GenericApp\CC2430 /
//                          DB\CoordinatorEB\List\ --diag_suppress            /
//                          Pe001,Pa010 --diag_remark pe550 -o                /
//                          E:\嵌入式开发\hit-wsn\src\hit_wsn_2.1\hit_wsn_2.1 /
//                          \CC2430\Projects\zstack\Samples\GenericApp\CC2430 /
//                          DB\CoordinatorEB\Obj\ -e -z9 --no_code_motion     /
//                          --debug --core=plain --dptr=16,1                  /
//                          --data_model=large --code_model=banked            /
//                          --calling_convention=xdata_reentrant              /
//                          --place_constants=data --nr_virtual_regs 8 -I     /
//                          E:\嵌入式开发\hit-wsn\src\hit_wsn_2.1\hit_wsn_2.1 /
//                          \CC2430\Projects\zstack\Samples\GenericApp\CC2430 /
//                          DB\ -I E:\嵌入式开发\hit-wsn\src\hit_wsn_2.1\hit_ /
//                          wsn_2.1\CC2430\Projects\zstack\Samples\GenericApp /
//                          \CC2430DB\..\SOURCE\ -I                           /
//                          E:\嵌入式开发\hit-wsn\src\hit_wsn_2.1\hit_wsn_2.1 /
//                          \CC2430\Projects\zstack\Samples\GenericApp\CC2430 /
//                          DB\..\..\..\ZMAIN\TI2430DB\ -I                    /
//                          E:\嵌入式开发\hit-wsn\src\hit_wsn_2.1\hit_wsn_2.1 /
//                          \CC2430\Projects\zstack\Samples\GenericApp\CC2430 /
//                          DB\..\..\..\..\..\COMPONENTS\MT\ -I               /
//                          E:\嵌入式开发\hit-wsn\src\hit_wsn_2.1\hit_wsn_2.1 /
//                          \CC2430\Projects\zstack\Samples\GenericApp\CC2430 /
//                          DB\..\..\..\..\..\COMPONENTS\HAL\INCLUDE\ -I      /
//                          E:\嵌入式开发\hit-wsn\src\hit_wsn_2.1\hit_wsn_2.1 /
//                          \CC2430\Projects\zstack\Samples\GenericApp\CC2430 /
//                          DB\..\..\..\..\..\COMPONENTS\HAL\TARGET\CC2430EB\ /
//                           -I E:\嵌入式开发\hit-wsn\src\hit_wsn_2.1\hit_wsn /
//                          _2.1\CC2430\Projects\zstack\Samples\GenericApp\CC /
//                          2430DB\..\..\..\..\..\COMPONENTS\OSAL\MCU\CCSOC\  /
//                          -I E:\嵌入式开发\hit-wsn\src\hit_wsn_2.1\hit_wsn_ /
//                          2.1\CC2430\Projects\zstack\Samples\GenericApp\CC2 /
//                          430DB\..\..\..\..\..\COMPONENTS\OSAL\INCLUDE\ -I  /
//                          E:\嵌入式开发\hit-wsn\src\hit_wsn_2.1\hit_wsn_2.1 /
//                          \CC2430\Projects\zstack\Samples\GenericApp\CC2430 /
//                          DB\..\..\..\..\..\COMPONENTS\STACK\AF\ -I         /
//                          E:\嵌入式开发\hit-wsn\src\hit_wsn_2.1\hit_wsn_2.1 /
//                          \CC2430\Projects\zstack\Samples\GenericApp\CC2430 /
//                          DB\..\..\..\..\..\COMPONENTS\STACK\NWK\ -I        /
//                          E:\嵌入式开发\hit-wsn\src\hit_wsn_2.1\hit_wsn_2.1 /
//                          \CC2430\Projects\zstack\Samples\GenericApp\CC2430 /
//                          DB\..\..\..\..\..\COMPONENTS\STACK\SEC\ -I        /
//                          E:\嵌入式开发\hit-wsn\src\hit_wsn_2.1\hit_wsn_2.1 /
//                          \CC2430\Projects\zstack\Samples\GenericApp\CC2430 /
//                          DB\..\..\..\..\..\COMPONENTS\STACK\SYS\ -I        /
//                          E:\嵌入式开发\hit-wsn\src\hit_wsn_2.1\hit_wsn_2.1 /
//                          \CC2430\Projects\zstack\Samples\GenericApp\CC2430 /
//                          DB\..\..\..\..\..\COMPONENTS\STACK\ZDO\ -I        /
//                          E:\嵌入式开发\hit-wsn\src\hit_wsn_2.1\hit_wsn_2.1 /
//                          \CC2430\Projects\zstack\Samples\GenericApp\CC2430 /
//                          DB\..\..\..\..\..\COMPONENTS\ZMAC\F8W\ -I         /
//                          E:\嵌入式开发\hit-wsn\src\hit_wsn_2.1\hit_wsn_2.1 /
//                          \CC2430\Projects\zstack\Samples\GenericApp\CC2430 /
//                          DB\..\..\..\..\..\COMPONENTS\ZMAC\ -I             /
//                          E:\嵌入式开发\hit-wsn\src\hit_wsn_2.1\hit_wsn_2.1 /
//                          \CC2430\Projects\zstack\Samples\GenericApp\CC2430 /
//                          DB\..\..\..\..\..\COMPONENTS\SERVICES\SADDR\ -I   /
//                          E:\嵌入式开发\hit-wsn\src\hit_wsn_2.1\hit_wsn_2.1 /
//                          \CC2430\Projects\zstack\Samples\GenericApp\CC2430 /
//                          DB\..\..\..\..\..\COMPONENTS\SERVICES\SDATA\ -I   /
//                          E:\嵌入式开发\hit-wsn\src\hit_wsn_2.1\hit_wsn_2.1 /
//                          \CC2430\Projects\zstack\Samples\GenericApp\CC2430 /
//                          DB\..\..\..\..\..\COMPONENTS\MAC\INCLUDE\ -I      /
//                          E:\嵌入式开发\hit-wsn\src\hit_wsn_2.1\hit_wsn_2.1 /
//                          \CC2430\Projects\zstack\Samples\GenericApp\CC2430 /
//                          DB\..\..\..\..\..\COMPONENTS\MAC\HIGH_LEVEL\ -I   /
//                          E:\嵌入式开发\hit-wsn\src\hit_wsn_2.1\hit_wsn_2.1 /
//                          \CC2430\Projects\zstack\Samples\GenericApp\CC2430 /
//                          DB\..\..\..\..\..\COMPONENTS\MAC\LOW_LEVEL\SRF03\ /
//                           -I E:\嵌入式开发\hit-wsn\src\hit_wsn_2.1\hit_wsn /
//                          _2.1\CC2430\Projects\zstack\Samples\GenericApp\CC /
//                          2430DB\..\..\..\..\..\COMPONENTS\MAC\LOW_LEVEL\SR /
//                          F03\SINGLE_CHIP\ -I "D:\Program Files\IAR         /
//                          Systems\Embedded Workbench 4.0 Evaluation         /
//                          version\8051\INC\" -I "D:\Program Files\IAR       /
//                          Systems\Embedded Workbench 4.0 Evaluation         /
//                          version\8051\INC\CLIB\"                           /
//    List file          =  E:\嵌入式开发\hit-wsn\src\hit_wsn_2.1\hit_wsn_2.1 /
//                          \CC2430\Projects\zstack\Samples\GenericApp\CC2430 /
//                          DB\CoordinatorEB\List\GenericApp.s51              /
//                                                                            /
//                                                                            /
///////////////////////////////////////////////////////////////////////////////

        NAME GenericApp

        RTMODEL "__calling_convention", "xdata_reentrant"
        RTMODEL "__code_model", "banked"
        RTMODEL "__core", "plain"
        RTMODEL "__data_model", "large"
        RTMODEL "__dptr_size", "16"
        RTMODEL "__extended_stack", "disabled"
        RTMODEL "__location_for_constants", "data"
        RTMODEL "__number_of_dptrs", "1"
        RTMODEL "__rt_version", "1"

        RSEG DOVERLAY:DATA:NOROOT(0)
        RSEG IOVERLAY:IDATA:NOROOT(0)
        RSEG ISTACK:IDATA:NOROOT(0)
        RSEG PSTACK:XDATA:NOROOT(0)
        RSEG XSTACK:XDATA:NOROOT(0)

        EXTERN ??GenericApp_HandleKeys?relay
        EXTERN ??GenericApp_MessageMSGCB?relay
        EXTERN ??GenericApp_ProcessZDOMsgs?relay
        EXTERN ??UART0ISRopen?relay
        EXTERN ??UART_SETUP?relay
        EXTERN ??uart0_putc?relay
        EXTERN ?ALLOC_XSTACK8
        EXTERN ?BANKED_ENTER_XDATA
        EXTERN ?BANKED_LEAVE_XDATA
        EXTERN ?BDISPATCH
        EXTERN ?BRET
        EXTERN ?DEALLOC_XSTACK8
        EXTERN ?L_EQ_X
        EXTERN ?MOVE_LONG8_XDATA_XDATA
        EXTERN ?PUSH_XSTACK_I_ONE
        EXTERN ?PUSH_XSTACK_I_TWO
        EXTERN ?UC_SWITCH_SPARSE
        EXTERN ?US_SWITCH_DENSE
        EXTERN ?US_SWITCH_SPARSE
        EXTERN ?V0
        EXTERN ?XSP
        EXTERN ?XSTACK_DISP0_8
        EXTERN __INIT_XDATA_I
        EXTERN __INIT_XDATA_Z

        PUBLIC ??GenericApp_HandleKeys?relay
        FUNCTION ??GenericApp_HandleKeys?relay,0203H
        PUBLIC ??GenericApp_Init?relay
        FUNCTION ??GenericApp_Init?relay,0203H
        PUBLIC ??GenericApp_MessageMSGCB?relay
        FUNCTION ??GenericApp_MessageMSGCB?relay,0203H
        PUBLIC ??GenericApp_ProcessEvent?relay
        FUNCTION ??GenericApp_ProcessEvent?relay,0203H
        PUBLIC ??GenericApp_ProcessZDOMsgs?relay
        FUNCTION ??GenericApp_ProcessZDOMsgs?relay,0203H
        PUBLIC ??GenericApp_SendTheMessage?relay
        FUNCTION ??GenericApp_SendTheMessage?relay,0203H
        PUBLIC ??UART0ISRopen?relay
        FUNCTION ??UART0ISRopen?relay,0203H
        PUBLIC ??UART_SETUP?relay
        FUNCTION ??UART_SETUP?relay,0203H
        PUBWEAK `??URX0_IRQ??INTVEC 19`
        PUBLIC ??data_trans_Init?relay
        FUNCTION ??data_trans_Init?relay,0203H
        PUBLIC ??data_trans_process?relay
        FUNCTION ??data_trans_process?relay,0203H
        PUBLIC ??initUART?relay
        FUNCTION ??initUART?relay,0203H
        PUBLIC ??uart0_getString?relay
        FUNCTION ??uart0_getString?relay,0203H
        PUBLIC ??uart0_putc?relay
        FUNCTION ??uart0_putc?relay,0203H
        PUBLIC ??uart0_puts?relay
        FUNCTION ??uart0_puts?relay,0203H
        PUBWEAK CLKCON
        PUBLIC GenericApp_ClusterList
        PUBLIC GenericApp_DstAddr
        PUBLIC GenericApp_HandleKeys
        FUNCTION GenericApp_HandleKeys,021203H
        ARGFRAME XSTACK, 12, STACK
        ARGFRAME IOVERLAY, 0, STATIC
        ARGFRAME DOVERLAY, 0, STATIC
        LOCFRAME ISTACK, 1, STACK
        LOCFRAME XSTACK, 28, STACK
        PUBLIC GenericApp_Init
        FUNCTION GenericApp_Init,021203H
        ARGFRAME XSTACK, 0, STACK
        LOCFRAME ISTACK, 2, STACK
        PUBLIC GenericApp_MessageMSGCB
        FUNCTION GenericApp_MessageMSGCB,0a1203H
        ARGFRAME XSTACK, 12, STACK
        ARGFRAME IOVERLAY, 0, STATIC
        ARGFRAME DOVERLAY, 0, STATIC
        LOCFRAME ISTACK, 1, STACK
        LOCFRAME XSTACK, 16, STACK
        PUBLIC GenericApp_NwkState
        PUBLIC GenericApp_ProcessEvent
        FUNCTION GenericApp_ProcessEvent,0a1203H
        ARGFRAME XSTACK, 0, STACK
        LOCFRAME XSTACK, 12, STACK
        PUBLIC GenericApp_ProcessZDOMsgs
        FUNCTION GenericApp_ProcessZDOMsgs,0a1203H
        ARGFRAME XSTACK, 12, STACK
        ARGFRAME IOVERLAY, 0, STATIC
        ARGFRAME DOVERLAY, 0, STATIC
        LOCFRAME XSTACK, 10, STACK
        PUBLIC GenericApp_SendTheMessage
        FUNCTION GenericApp_SendTheMessage,021203H
        ARGFRAME XSTACK, 0, STACK
        LOCFRAME ISTACK, 2, STACK
        LOCFRAME XSTACK, 31, STACK
        PUBLIC GenericApp_SimpleDesc
        PUBLIC GenericApp_TaskID
        PUBLIC GenericApp_TransID
        PUBLIC GenericApp_epDesc
        PUBWEAK P0SEL
        PUBWEAK P1SEL
        PUBWEAK PERCFG
        PUBWEAK U0BAUD
        PUBWEAK U0CSR
        PUBWEAK U0DBUF
        PUBWEAK U0GCR
        PUBWEAK U0UCR
        PUBLIC UART0ISRopen
        FUNCTION UART0ISRopen,0203H
        ARGFRAME XSTACK, 0, STACK
        ARGFRAME IOVERLAY, 0, STATIC
        ARGFRAME DOVERLAY, 0, STATIC
        PUBLIC UART_SETUP
        FUNCTION UART_SETUP,0203H
        ARGFRAME XSTACK, 0, STACK
        ARGFRAME IOVERLAY, 0, STATIC
        ARGFRAME DOVERLAY, 0, STATIC
        LOCFRAME XSTACK, 12, STACK
        PUBLIC URX0_IRQ
        FUNCTION URX0_IRQ,0233H
        ARGFRAME XSTACK, 0, STACK
        LOCFRAME ISTACK, 1, STACK
        PUBWEAK _A_IEN0
        PUBWEAK _A_IRCON2
        PUBWEAK _A_TCON
        PUBWEAK __Constant_12c00
        PUBWEAK __Constant_1c200
        PUBWEAK __Constant_25800
        PUBWEAK __Constant_38400
        PUBWEAK __Constant_4b000
        PUBWEAK __Constant_9600
        PUBWEAK __Constant_e100
        PUBLIC data_trans_Init
        FUNCTION data_trans_Init,021203H
        ARGFRAME XSTACK, 0, STACK
        LOCFRAME ISTACK, 2, STACK
        PUBLIC data_trans_TaskID
        PUBLIC data_trans_process
        FUNCTION data_trans_process,021203H
        ARGFRAME XSTACK, 0, STACK
        LOCFRAME ISTACK, 2, STACK
        LOCFRAME XSTACK, 100, STACK
        PUBLIC initUART
        FUNCTION initUART,021203H
        ARGFRAME XSTACK, 0, STACK
        LOCFRAME ISTACK, 2, STACK
        PUBLIC point_info
        PUBLIC point_num
        PUBLIC uart0_getString
        FUNCTION uart0_getString,0203H
        ARGFRAME XSTACK, 0, STACK
        LOCFRAME ISTACK, 1, STACK
        LOCFRAME XSTACK, 13, STACK
        PUBLIC uart0_putc
        FUNCTION uart0_putc,0203H
        ARGFRAME XSTACK, 13, STACK
        ARGFRAME IOVERLAY, 0, STATIC
        ARGFRAME DOVERLAY, 0, STATIC
        LOCFRAME ISTACK, 1, STACK
        PUBLIC uart0_puts
        FUNCTION uart0_puts,021203H
        ARGFRAME XSTACK, 0, STACK
        LOCFRAME XSTACK, 13, STACK
        
        CFI Names cfiNames0
        CFI StackFrame CFA_SP SP DATA
        CFI StackFrame CFA_PSP16 PSP16 XDATA
        CFI StackFrame CFA_XSP16 XSP16 XDATA
        CFI StaticOverlayFrame CFA_IOVERLAY IOVERLAY
        CFI StaticOverlayFrame CFA_DOVERLAY DOVERLAY
        CFI Resource `PSW.CY`:1, `B.BR0`:1, `B.BR1`:1, `B.BR2`:1, `B.BR3`:1
        CFI Resource `B.BR4`:1, `B.BR5`:1, `B.BR6`:1, `B.BR7`:1, `VB.BR8`:1
        CFI Resource `VB.BR9`:1, `VB.BR10`:1, `VB.BR11`:1, `VB.BR12`:1
        CFI Resource `VB.BR13`:1, `VB.BR14`:1, `VB.BR15`:1, VB:8, B:8, A:8
        CFI Resource PSW:8, DPL0:8, DPH0:8, R0:8, R1:8, R2:8, R3:8, R4:8, R5:8
        CFI Resource R6:8, R7:8, V0:8, V1:8, V2:8, V3:8, V4:8, V5:8, V6:8, V7:8
        CFI Resource SP:8, PSPH:8, PSPL:8, PSP16:16, XSPH:8, XSPL:8, XSP16:16
        CFI VirtualResource ?RET:24
        CFI Resource ?BRET_EXT:8
        CFI VirtualResource ?RET_HIGH:8, ?RET_LOW:8
        CFI ResourceParts PSP16 PSPH, PSPL
        CFI ResourceParts XSP16 XSPH, XSPL
        CFI ResourceParts ?RET ?BRET_EXT, ?RET_HIGH, ?RET_LOW
        CFI EndNames cfiNames0
        
        CFI Common cfiCommon0 Using cfiNames0
        CFI CodeAlign 1
        CFI DataAlign -1
        CFI ReturnAddress ?RET CODE
        CFI CFA_DOVERLAY Used
        CFI CFA_IOVERLAY Used
        CFI CFA_SP SP+-3
        CFI CFA_PSP16 PSP16+0
        CFI CFA_XSP16 XSP16+0
        CFI `PSW.CY` SameValue
        CFI `B.BR0` SameValue
        CFI `B.BR1` SameValue
        CFI `B.BR2` SameValue
        CFI `B.BR3` SameValue
        CFI `B.BR4` SameValue
        CFI `B.BR5` SameValue
        CFI `B.BR6` SameValue
        CFI `B.BR7` SameValue
        CFI `VB.BR8` SameValue
        CFI `VB.BR9` SameValue
        CFI `VB.BR10` SameValue
        CFI `VB.BR11` SameValue
        CFI `VB.BR12` SameValue
        CFI `VB.BR13` SameValue
        CFI `VB.BR14` SameValue
        CFI `VB.BR15` SameValue
        CFI VB SameValue
        CFI B Undefined
        CFI A Undefined
        CFI PSW SameValue
        CFI DPL0 SameValue
        CFI DPH0 SameValue
        CFI R0 Undefined
        CFI R1 Undefined
        CFI R2 Undefined
        CFI R3 Undefined
        CFI R4 Undefined
        CFI R5 Undefined
        CFI R6 SameValue
        CFI R7 SameValue
        CFI V0 SameValue
        CFI V1 SameValue
        CFI V2 SameValue
        CFI V3 SameValue
        CFI V4 SameValue
        CFI V5 SameValue
        CFI V6 SameValue
        CFI V7 SameValue
        CFI PSPH Undefined
        CFI PSPL Undefined
        CFI XSPH Undefined
        CFI XSPL Undefined
        CFI ?RET Concat
        CFI ?BRET_EXT Frame(CFA_SP, 3)
        CFI ?RET_HIGH Frame(CFA_SP, 2)
        CFI ?RET_LOW Frame(CFA_SP, 1)
        CFI EndCommon cfiCommon0
        
        
        CFI Common cfiCommon1 Using cfiNames0
        CFI CodeAlign 1
        CFI DataAlign -1
        CFI ReturnAddress ?RET CODE
        CFI CFA_DOVERLAY Used
        CFI CFA_IOVERLAY Used
        CFI CFA_SP SP+-2
        CFI CFA_PSP16 PSP16+0
        CFI CFA_XSP16 XSP16+0
        CFI `PSW.CY` SameValue
        CFI `B.BR0` SameValue
        CFI `B.BR1` SameValue
        CFI `B.BR2` SameValue
        CFI `B.BR3` SameValue
        CFI `B.BR4` SameValue
        CFI `B.BR5` SameValue
        CFI `B.BR6` SameValue
        CFI `B.BR7` SameValue
        CFI `VB.BR8` SameValue
        CFI `VB.BR9` SameValue
        CFI `VB.BR10` SameValue
        CFI `VB.BR11` SameValue
        CFI `VB.BR12` SameValue
        CFI `VB.BR13` SameValue
        CFI `VB.BR14` SameValue
        CFI `VB.BR15` SameValue
        CFI VB SameValue
        CFI B SameValue
        CFI A SameValue
        CFI PSW SameValue
        CFI DPL0 SameValue
        CFI DPH0 SameValue
        CFI R0 SameValue
        CFI R1 SameValue
        CFI R2 SameValue
        CFI R3 SameValue
        CFI R4 SameValue
        CFI R5 SameValue
        CFI R6 SameValue
        CFI R7 SameValue
        CFI V0 SameValue
        CFI V1 SameValue
        CFI V2 SameValue
        CFI V3 SameValue
        CFI V4 SameValue
        CFI V5 SameValue
        CFI V6 SameValue
        CFI V7 SameValue
        CFI PSPH Undefined
        CFI PSPL Undefined
        CFI XSPH Undefined
        CFI XSPL Undefined
        CFI ?RET Concat
        CFI ?BRET_EXT SameValue
        CFI ?RET_HIGH Frame(CFA_SP, 2)
        CFI ?RET_LOW Frame(CFA_SP, 1)
        CFI EndCommon cfiCommon1
        
afRegister          SYMBOL "afRegister"
RegisterForKeys     SYMBOL "RegisterForKeys"
HalLcdWriteString   SYMBOL "HalLcdWriteString"
ZDO_RegisterForZDOMsg SYMBOL "ZDO_RegisterForZDOMsg"
HalUARTWrite        SYMBOL "HalUARTWrite"
osal_msg_receive    SYMBOL "osal_msg_receive"
osal_msg_deallocate SYMBOL "osal_msg_deallocate"
HalLedSet           SYMBOL "HalLedSet"
ZDO_ParseEPListRsp  SYMBOL "ZDO_ParseEPListRsp"
osal_mem_free       SYMBOL "osal_mem_free"
NLME_GetShortAddr   SYMBOL "NLME_GetShortAddr"
ZDP_EndDeviceBindReq SYMBOL "ZDP_EndDeviceBindReq"
ZDP_MatchDescReq    SYMBOL "ZDP_MatchDescReq"
strcmp              SYMBOL "strcmp"
osal_strlen         SYMBOL "osal_strlen"
AF_DataRequest      SYMBOL "AF_DataRequest"
SPIMgr_RegisterTaskID SYMBOL "SPIMgr_RegisterTaskID"
HalUARTRead         SYMBOL "HalUARTRead"
sprintf             SYMBOL "sprintf"
strlen              SYMBOL "strlen"
??AF_DataRequest?relay SYMBOL "?relay", AF_DataRequest
??HalLcdWriteString?relay SYMBOL "?relay", HalLcdWriteString
??HalLedSet?relay   SYMBOL "?relay", HalLedSet
??HalUARTRead?relay SYMBOL "?relay", HalUARTRead
??HalUARTWrite?relay SYMBOL "?relay", HalUARTWrite
??NLME_GetShortAddr?relay SYMBOL "?relay", NLME_GetShortAddr
??RegisterForKeys?relay SYMBOL "?relay", RegisterForKeys
??SPIMgr_RegisterTaskID?relay SYMBOL "?relay", SPIMgr_RegisterTaskID
??ZDO_ParseEPListRsp?relay SYMBOL "?relay", ZDO_ParseEPListRsp
??ZDO_RegisterForZDOMsg?relay SYMBOL "?relay", ZDO_RegisterForZDOMsg
??ZDP_EndDeviceBindReq?relay SYMBOL "?relay", ZDP_EndDeviceBindReq
??ZDP_MatchDescReq?relay SYMBOL "?relay", ZDP_MatchDescReq
??afRegister?relay  SYMBOL "?relay", afRegister
??osal_mem_free?relay SYMBOL "?relay", osal_mem_free
??osal_msg_deallocate?relay SYMBOL "?relay", osal_msg_deallocate
??osal_msg_receive?relay SYMBOL "?relay", osal_msg_receive
??osal_strlen?relay SYMBOL "?relay", osal_strlen
??sprintf?relay     SYMBOL "?relay", sprintf
??strcmp?relay      SYMBOL "?relay", strcmp
??strlen?relay      SYMBOL "?relay", strlen
GenericApp_HandleKeys SYMBOL "GenericApp_HandleKeys"
??GenericApp_HandleKeys?relay SYMBOL "?relay", GenericApp_HandleKeys
GenericApp_Init     SYMBOL "GenericApp_Init"
??GenericApp_Init?relay SYMBOL "?relay", GenericApp_Init
GenericApp_MessageMSGCB SYMBOL "GenericApp_MessageMSGCB"
??GenericApp_MessageMSGCB?relay SYMBOL "?relay", GenericApp_MessageMSGCB
GenericApp_ProcessEvent SYMBOL "GenericApp_ProcessEvent"
??GenericApp_ProcessEvent?relay SYMBOL "?relay", GenericApp_ProcessEvent
GenericApp_ProcessZDOMsgs SYMBOL "GenericApp_ProcessZDOMsgs"
??GenericApp_ProcessZDOMsgs?relay SYMBOL "?relay", GenericApp_ProcessZDOMsgs
GenericApp_SendTheMessage SYMBOL "GenericApp_SendTheMessage"
??GenericApp_SendTheMessage?relay SYMBOL "?relay", GenericApp_SendTheMessage
UART0ISRopen        SYMBOL "UART0ISRopen"
??UART0ISRopen?relay SYMBOL "?relay", UART0ISRopen
UART_SETUP          SYMBOL "UART_SETUP"
??UART_SETUP?relay  SYMBOL "?relay", UART_SETUP
URX0_IRQ            SYMBOL "URX0_IRQ"
`??URX0_IRQ??INTVEC 19` SYMBOL "??INTVEC 19", URX0_IRQ
data_trans_Init     SYMBOL "data_trans_Init"
??data_trans_Init?relay SYMBOL "?relay", data_trans_Init
data_trans_process  SYMBOL "data_trans_process"
??data_trans_process?relay SYMBOL "?relay", data_trans_process
initUART            SYMBOL "initUART"
??initUART?relay    SYMBOL "?relay", initUART
uart0_getString     SYMBOL "uart0_getString"
??uart0_getString?relay SYMBOL "?relay", uart0_getString
uart0_putc          SYMBOL "uart0_putc"
??uart0_putc?relay  SYMBOL "?relay", uart0_putc
uart0_puts          SYMBOL "uart0_puts"
??uart0_puts?relay  SYMBOL "?relay", uart0_puts

        EXTERN afRegister
        FUNCTION afRegister,0202H
        ARGFRAME ISTACK, 2, STACK
        ARGFRAME PSTACK, 0, STACK
        ARGFRAME XSTACK, 0, STACK
        ARGFRAME IOVERLAY, 0, STATIC
        ARGFRAME DOVERLAY, 0, STATIC
        EXTERN RegisterForKeys
        FUNCTION RegisterForKeys,0202H
        ARGFRAME ISTACK, 2, STACK
        ARGFRAME PSTACK, 0, STACK
        ARGFRAME XSTACK, 0, STACK
        ARGFRAME IOVERLAY, 0, STATIC
        ARGFRAME DOVERLAY, 0, STATIC
        EXTERN HalLcdWriteString
        FUNCTION HalLcdWriteString,0202H
        ARGFRAME ISTACK, 2, STACK
        ARGFRAME PSTACK, 0, STACK
        ARGFRAME XSTACK, 0, STACK
        ARGFRAME IOVERLAY, 0, STATIC
        ARGFRAME DOVERLAY, 0, STATIC
        EXTERN ZDO_RegisterForZDOMsg
        FUNCTION ZDO_RegisterForZDOMsg,0202H
        ARGFRAME ISTACK, 2, STACK
        ARGFRAME PSTACK, 0, STACK
        ARGFRAME XSTACK, 0, STACK
        ARGFRAME IOVERLAY, 0, STATIC
        ARGFRAME DOVERLAY, 0, STATIC
        EXTERN HalUARTWrite
        FUNCTION HalUARTWrite,0202H
        ARGFRAME ISTACK, 2, STACK
        ARGFRAME PSTACK, 0, STACK
        ARGFRAME XSTACK, 90, STACK
        ARGFRAME IOVERLAY, 0, STATIC
        ARGFRAME DOVERLAY, 0, STATIC
        EXTERN osal_msg_receive
        FUNCTION osal_msg_receive,0202H
        ARGFRAME ISTACK, 0, STACK
        ARGFRAME PSTACK, 0, STACK
        ARGFRAME XSTACK, 12, STACK
        ARGFRAME IOVERLAY, 0, STATIC
        ARGFRAME DOVERLAY, 0, STATIC
        EXTERN osal_msg_deallocate
        FUNCTION osal_msg_deallocate,0202H
        ARGFRAME ISTACK, 0, STACK
        ARGFRAME PSTACK, 0, STACK
        ARGFRAME XSTACK, 12, STACK
        ARGFRAME IOVERLAY, 0, STATIC
        ARGFRAME DOVERLAY, 0, STATIC
        EXTERN HalLedSet
        FUNCTION HalLedSet,0202H
        ARGFRAME ISTACK, 0, STACK
        ARGFRAME PSTACK, 0, STACK
        ARGFRAME XSTACK, 19, STACK
        ARGFRAME IOVERLAY, 0, STATIC
        ARGFRAME DOVERLAY, 0, STATIC
        EXTERN ZDO_ParseEPListRsp
        FUNCTION ZDO_ParseEPListRsp,0202H
        ARGFRAME ISTACK, 0, STACK
        ARGFRAME PSTACK, 0, STACK
        ARGFRAME XSTACK, 10, STACK
        ARGFRAME IOVERLAY, 0, STATIC
        ARGFRAME DOVERLAY, 0, STATIC
        EXTERN osal_mem_free
        FUNCTION osal_mem_free,0202H
        ARGFRAME ISTACK, 0, STACK
        ARGFRAME PSTACK, 0, STACK
        ARGFRAME XSTACK, 10, STACK
        ARGFRAME IOVERLAY, 0, STATIC
        ARGFRAME DOVERLAY, 0, STATIC
        EXTERN NLME_GetShortAddr
        FUNCTION NLME_GetShortAddr,0202H
        ARGFRAME ISTACK, 0, STACK
        ARGFRAME PSTACK, 0, STACK
        ARGFRAME XSTACK, 19, STACK
        ARGFRAME IOVERLAY, 0, STATIC
        ARGFRAME DOVERLAY, 0, STATIC
        EXTERN ZDP_EndDeviceBindReq
        FUNCTION ZDP_EndDeviceBindReq,0202H
        ARGFRAME ISTACK, 0, STACK
        ARGFRAME PSTACK, 0, STACK
        ARGFRAME XSTACK, 28, STACK
        ARGFRAME IOVERLAY, 0, STATIC
        ARGFRAME DOVERLAY, 0, STATIC
        EXTERN ZDP_MatchDescReq
        FUNCTION ZDP_MatchDescReq,0202H
        ARGFRAME ISTACK, 0, STACK
        ARGFRAME PSTACK, 0, STACK
        ARGFRAME XSTACK, 27, STACK
        ARGFRAME IOVERLAY, 0, STATIC
        ARGFRAME DOVERLAY, 0, STATIC
        EXTERN strcmp
        FUNCTION strcmp,010202H
        ARGFRAME ISTACK, 0, STACK
        ARGFRAME PSTACK, 0, STACK
        ARGFRAME XSTACK, 90, STACK
        ARGFRAME IOVERLAY, 0, STATIC
        ARGFRAME DOVERLAY, 0, STATIC
        EXTERN osal_strlen
        FUNCTION osal_strlen,0202H
        ARGFRAME ISTACK, 0, STACK
        ARGFRAME PSTACK, 0, STACK
        ARGFRAME XSTACK, 27, STACK
        ARGFRAME IOVERLAY, 0, STATIC
        ARGFRAME DOVERLAY, 0, STATIC
        EXTERN AF_DataRequest
        FUNCTION AF_DataRequest,0202H
        ARGFRAME ISTACK, 0, STACK
        ARGFRAME PSTACK, 0, STACK
        ARGFRAME XSTACK, 31, STACK
        ARGFRAME IOVERLAY, 0, STATIC
        ARGFRAME DOVERLAY, 0, STATIC
        EXTERN SPIMgr_RegisterTaskID
        FUNCTION SPIMgr_RegisterTaskID,0202H
        ARGFRAME ISTACK, 2, STACK
        ARGFRAME PSTACK, 0, STACK
        ARGFRAME XSTACK, 0, STACK
        ARGFRAME IOVERLAY, 0, STATIC
        ARGFRAME DOVERLAY, 0, STATIC
        EXTERN HalUARTRead
        FUNCTION HalUARTRead,0202H
        ARGFRAME ISTACK, 0, STACK
        ARGFRAME PSTACK, 0, STACK
        ARGFRAME XSTACK, 90, STACK
        ARGFRAME IOVERLAY, 0, STATIC
        ARGFRAME DOVERLAY, 0, STATIC
        EXTERN sprintf
        FUNCTION sprintf,0202H
        ARGFRAME ISTACK, 0, STACK
        ARGFRAME PSTACK, 0, STACK
        ARGFRAME XSTACK, 100, STACK
        ARGFRAME IOVERLAY, 0, STATIC
        ARGFRAME DOVERLAY, 0, STATIC
        EXTERN strlen
        FUNCTION strlen,010202H
        ARGFRAME ISTACK, 0, STACK
        ARGFRAME PSTACK, 0, STACK
        ARGFRAME XSTACK, 90, STACK
        ARGFRAME IOVERLAY, 0, STATIC
        ARGFRAME DOVERLAY, 0, STATIC
        EXTERN ??AF_DataRequest?relay
        FUNCTION ??AF_DataRequest?relay,00H
        EXTERN ??HalLcdWriteString?relay
        FUNCTION ??HalLcdWriteString?relay,00H
        EXTERN ??HalLedSet?relay
        FUNCTION ??HalLedSet?relay,00H
        EXTERN ??HalUARTRead?relay
        FUNCTION ??HalUARTRead?relay,00H
        EXTERN ??HalUARTWrite?relay
        FUNCTION ??HalUARTWrite?relay,00H
        EXTERN ??NLME_GetShortAddr?relay
        FUNCTION ??NLME_GetShortAddr?relay,00H
        EXTERN ??RegisterForKeys?relay
        FUNCTION ??RegisterForKeys?relay,00H
        EXTERN ??SPIMgr_RegisterTaskID?relay
        FUNCTION ??SPIMgr_RegisterTaskID?relay,00H
        EXTERN ??ZDO_ParseEPListRsp?relay
        FUNCTION ??ZDO_ParseEPListRsp?relay,00H
        EXTERN ??ZDO_RegisterForZDOMsg?relay
        FUNCTION ??ZDO_RegisterForZDOMsg?relay,00H
        EXTERN ??ZDP_EndDeviceBindReq?relay
        FUNCTION ??ZDP_EndDeviceBindReq?relay,00H
        EXTERN ??ZDP_MatchDescReq?relay
        FUNCTION ??ZDP_MatchDescReq?relay,00H
        EXTERN ??afRegister?relay
        FUNCTION ??afRegister?relay,00H
        EXTERN ??osal_mem_free?relay
        FUNCTION ??osal_mem_free?relay,00H
        EXTERN ??osal_msg_deallocate?relay
        FUNCTION ??osal_msg_deallocate?relay,00H
        EXTERN ??osal_msg_receive?relay
        FUNCTION ??osal_msg_receive?relay,00H
        EXTERN ??osal_strlen?relay
        FUNCTION ??osal_strlen?relay,00H
        EXTERN ??sprintf?relay
        FUNCTION ??sprintf?relay,00H
        EXTERN ??strcmp?relay
        FUNCTION ??strcmp?relay,00H
        EXTERN ??strlen?relay
        FUNCTION ??strlen?relay,00H
        EXTERN cfg0

// E:\嵌入式开发\hit-wsn\src\hit_wsn_2.1\hit_wsn_2.1\CC2430\Projects\zstack\Samples\GenericApp\Source\GenericApp.c
//    1 /**************************************************************************************************
//    2   Filename:       GenericApp.c
//    3   Revised:        $Date: 2007-10-27 17:16:54 -0700 (Sat, 27 Oct 2007) $
//    4   Revision:       $Revision: 15793 $
//    5 
//    6   Description:    Generic Application (no Profile).
//    7 
//    8 
//    9   Copyright 2004-2007 Texas Instruments Incorporated. All rights reserved.
//   10 
//   11   IMPORTANT: Your use of this Software is limited to those specific rights
//   12   granted under the terms of a software license agreement between the user
//   13   who downloaded the software, his/her employer (which must be your employer)
//   14   and Texas Instruments Incorporated (the "License").  You may not use this
//   15   Software unless you agree to abide by the terms of the License. The License
//   16   limits your use, and you acknowledge, that the Software may not be modified,
//   17   copied or distributed unless embedded on a Texas Instruments microcontroller
//   18   or used solely and exclusively in conjunction with a Texas Instruments radio
//   19   frequency transceiver, which is integrated into your product.  Other than for
//   20   the foregoing purpose, you may not use, reproduce, copy, prepare derivative
//   21   works of, modify, distribute, perform, display or sell this Software and/or
//   22   its documentation for any purpose.
//   23 
//   24   YOU FURTHER ACKNOWLEDGE AND AGREE THAT THE SOFTWARE AND DOCUMENTATION ARE
//   25   PROVIDED AS IS?WITHOUT WARRANTY OF ANY KIND, EITHER EXPRESS OR IMPLIED, 
//   26   INCLUDING WITHOUT LIMITATION, ANY WARRANTY OF MERCHANTABILITY, TITLE, 
//   27   NON-INFRINGEMENT AND FITNESS FOR A PARTICULAR PURPOSE. IN NO EVENT SHALL
//   28   TEXAS INSTRUMENTS OR ITS LICENSORS BE LIABLE OR OBLIGATED UNDER CONTRACT,
//   29   NEGLIGENCE, STRICT LIABILITY, CONTRIBUTION, BREACH OF WARRANTY, OR OTHER
//   30   LEGAL EQUITABLE THEORY ANY DIRECT OR INDIRECT DAMAGES OR EXPENSES
//   31   INCLUDING BUT NOT LIMITED TO ANY INCIDENTAL, SPECIAL, INDIRECT, PUNITIVE
//   32   OR CONSEQUENTIAL DAMAGES, LOST PROFITS OR LOST DATA, COST OF PROCUREMENT
//   33   OF SUBSTITUTE GOODS, TECHNOLOGY, SERVICES, OR ANY CLAIMS BY THIRD PARTIES
//   34   (INCLUDING BUT NOT LIMITED TO ANY DEFENSE THEREOF), OR OTHER SIMILAR COSTS.
//   35 
//   36   Should you have any questions regarding your right to use this Software,
//   37   contact Texas Instruments Incorporated at www.TI.com. 
//   38 **************************************************************************************************/
//   39 
//   40 /*********************************************************************
//   41   This application isn't intended to do anything useful, it is
//   42   intended to be a simple example of an application's structure.
//   43 
//   44   This application sends "Hello World" to another "Generic"
//   45   application every 15 seconds.  The application will also
//   46   receive "Hello World" packets.
//   47 
//   48   The "Hello World" messages are sent/received as MSG type message.
//   49 
//   50   This applications doesn't have a profile, so it handles everything
//   51   directly - itself.
//   52 
//   53   Key control:
//   54     SW1:
//   55     SW2:  initiates end device binding
//   56     SW3:
//   57     SW4:  initiates a match description request
//   58 *********************************************************************/
//   59 
//   60 /*********************************************************************
//   61  * INCLUDES
//   62  */
//   63 #include "OSAL.h"
//   64 #include "AF.h"
//   65 #include "ZDApp.h"
//   66 #include "ZDObject.h"
//   67 #include "ZDProfile.h"
//   68 
//   69 #include "GenericApp.h"
//   70 #include "DebugTrace.h"
//   71 
//   72 #if !defined( WIN32 )
//   73   #include "OnBoard.h"

        ASEGN SFR_AN:DATA:NOROOT,086H
// unsigned char volatile __sfr U0CSR
U0CSR:
        DS 1

        ASEGN SFR_AN:DATA:NOROOT,088H
// union <unnamed> volatile __sfr _A_TCON
_A_TCON:
        DS 1

        ASEGN SFR_AN:DATA:NOROOT,0a8H
// union <unnamed> volatile __sfr _A_IEN0
_A_IEN0:
        DS 1

        ASEGN SFR_AN:DATA:NOROOT,0c1H
// unsigned char volatile __sfr U0DBUF
U0DBUF:
        DS 1

        ASEGN SFR_AN:DATA:NOROOT,0c2H
// unsigned char volatile __sfr U0BAUD
U0BAUD:
        DS 1

        ASEGN SFR_AN:DATA:NOROOT,0c4H
// unsigned char volatile __sfr U0UCR
U0UCR:
        DS 1

        ASEGN SFR_AN:DATA:NOROOT,0c5H
// unsigned char volatile __sfr U0GCR
U0GCR:
        DS 1

        ASEGN SFR_AN:DATA:NOROOT,0c6H
// unsigned char volatile __sfr CLKCON
CLKCON:
        DS 1

        ASEGN SFR_AN:DATA:NOROOT,0e8H
// union <unnamed> volatile __sfr _A_IRCON2
_A_IRCON2:
        DS 1

        ASEGN SFR_AN:DATA:NOROOT,0f1H
// unsigned char volatile __sfr PERCFG
PERCFG:
        DS 1

        ASEGN SFR_AN:DATA:NOROOT,0f3H
// unsigned char volatile __sfr P0SEL
P0SEL:
        DS 1

        ASEGN SFR_AN:DATA:NOROOT,0f4H
// unsigned char volatile __sfr P1SEL
P1SEL:
        DS 1

        RSEG XDATA_I:XDATA:NOROOT(0)
        DATA
`?<Constant "GenericApp">`:
        DS 11
        REQUIRE `?<Initializer for <Constant "GenericApp">>`
        REQUIRE __INIT_XDATA_I

        RSEG XDATA_I:XDATA:NOROOT(0)
        DATA
`?<Constant "]]\\r\\n">`:
        DS 5
        REQUIRE `?<Initializer for <Constant "]]\\r\\n">>`
        REQUIRE __INIT_XDATA_I

        RSEG XDATA_I:XDATA:NOROOT(0)
        DATA
`?<Constant "hal sw1 pressed!\\r\\n">`:
        DS 19
        REQUIRE `?<Initializer for <Constant "hal sw1 pressed!\\`
        REQUIRE __INIT_XDATA_I

        RSEG XDATA_I:XDATA:NOROOT(0)
        DATA
`?<Constant "hal sw2 pressed!\\r\\n">`:
        DS 19
        REQUIRE `?<Initializer for <Constant "hal sw2 pressed!\\`
        REQUIRE __INIT_XDATA_I

        RSEG XDATA_I:XDATA:NOROOT(0)
        DATA
`?<Constant "1111222233334444\\n">`:
        DS 18
        REQUIRE `?<Initializer for <Constant "1111222233334444\\`
        REQUIRE __INIT_XDATA_I

        RSEG XDATA_I:XDATA:NOROOT(0)
        DATA
`?<Constant "9999222233\\r\\n">`:
        DS 13
        REQUIRE `?<Initializer for <Constant "9999222233\\r\\n">>`
        REQUIRE __INIT_XDATA_I

        RSEG XDATA_I:XDATA:NOROOT(0)
        DATA
`?<Constant "hal sw4 pressed!\\r\\n">`:
        DS 19
        REQUIRE `?<Initializer for <Constant "hal sw4 pressed!\\`
        REQUIRE __INIT_XDATA_I

        RSEG XDATA_I:XDATA:NOROOT(0)
        DATA
`?<Constant "Hello World">`:
        DS 12
        REQUIRE `?<Initializer for <Constant "Hello World">>`
        REQUIRE __INIT_XDATA_I

        RSEG XDATA_I:XDATA:NOROOT(0)
        DATA
`?<Constant "#%s:%s:%s:%s:%s#\\n">`:
        DS 18
        REQUIRE `?<Initializer for <Constant "#%s:%s:%s:%s:%s#\\`
        REQUIRE __INIT_XDATA_I

        RSEG XDATA_I:XDATA:NOROOT(0)
        DATA
`?<Constant "]]\\n">`:
        DS 4
        REQUIRE `?<Initializer for <Constant "]]\\n">>`
        REQUIRE __INIT_XDATA_I

        RSEG XDATA_I:XDATA:NOROOT(0)
        DATA
`?<Constant "#%s#\\n\\000">`:
        DS 7
        REQUIRE `?<Initializer for <Constant "#%s#\\n\\000">>`
        REQUIRE __INIT_XDATA_I
//   74 #endif
//   75 
//   76 /* HAL */
//   77 #include "hal_lcd.h"
//   78 #include "hal_led.h"
//   79 #include "hal_key.h"
//   80 #include "hal_uart.h"
//   81 #include "uart0.h"
//   82 
//   83 //xiaoyang add 
//   84 #include <string.h>
//   85 #include <stdio.h>
//   86 #include "SPIMgr.h"
//   87 //#include <stdlib.h>
//   88 /*********************************************************************
//   89  * MACROS
//   90  */
//   91 /*********************************************************************
//   92  * MACROS
//   93  */
//   94 //xiaoyang add
//   95 /* See the important comment by the otaBuf declaration below concerning the
//   96  * mandatory use of this macro vice directly invoking osal_mem_free().
//   97  */
//   98 #define FREE_OTABUF() { \ 
//   99   if ( otaBuf ) \ 
//  100   { \ 
//  101     osal_mem_free( otaBuf ); \ 
//  102   } \ 
//  103   if ( otaBuf2 ) \ 
//  104   { \ 
//  105     SerialApp_SendData( otaBuf2, otaLen2 ); \ 
//  106     otaBuf2 = NULL; \ 
//  107   } \ 
//  108   else \ 
//  109   { \ 
//  110     otaBuf = NULL; \ 
//  111   } \ 
//  112 }
//  113 
//  114 /*********************************************************************
//  115  * CONSTANTS
//  116  */
//  117 
//  118 #if !defined( SERIAL_APP_PORT )
//  119   #define SERIAL_APP_PORT  1
//  120 #endif
//  121 
//  122 #if !defined( SERIAL_APP_BAUD )
//  123   // CC2430 only allows 38.4k or 115.2k.
//  124   #define SERIAL_APP_BAUD  HAL_UART_BR_38400
//  125   //#define SERIAL_APP_BAUD  HAL_UART_BR_115200
//  126 #endif
//  127 
//  128 // When the Rx buf space is less than this threshold, invoke the Rx callback.
//  129 #if !defined( SERIAL_APP_THRESH )
//  130   #define SERIAL_APP_THRESH  48
//  131 #endif
//  132 
//  133 #if !defined( SERIAL_APP_RX_MAX )
//  134   #if (defined( HAL_UART_DMA )) && HAL_UART_DMA
//  135     #define SERIAL_APP_RX_MAX  128
//  136   #else
//  137     /* The generic safe Rx minimum is 48, but if you know your PC App will not
//  138      * continue to send more than a byte after receiving the ~CTS, lower max
//  139      * here and safe min in _hal_uart.c to just 8.
//  140      */
//  141     #define SERIAL_APP_RX_MAX  64
//  142   #endif
//  143 #endif
//  144 
//  145 #if !defined( SERIAL_APP_TX_MAX )
//  146   #if (defined( HAL_UART_DMA )) && HAL_UART_DMA
//  147   #define SERIAL_APP_TX_MAX  128
//  148   #else
//  149     #define SERIAL_APP_TX_MAX  64
//  150   #endif
//  151 #endif
//  152 
//  153 // Millisecs of idle time after a byte is received before invoking Rx callback.
//  154 #if !defined( SERIAL_APP_IDLE )
//  155   #define SERIAL_APP_IDLE  6
//  156 #endif
//  157 
//  158 // This is the desired byte count per OTA message.
//  159 #if !defined( SERIAL_APP_RX_CNT )
//  160   #if (defined( HAL_UART_DMA )) && HAL_UART_DMA
//  161     #define SERIAL_APP_RX_CNT  80
//  162   #else
//  163     #define SERIAL_APP_RX_CNT  6
//  164   #endif
//  165 #endif
//  166 
//  167 // Loopback Rx bytes to Tx for thruput testing.
//  168 #if !defined( SERIAL_APP_LOOPBACK )
//  169   #define SERIAL_APP_LOOPBACK  FALSE
//  170 #endif
//  171 
//  172 #if SERIAL_APP_LOOPBACK
//  173   #define SERIALAPP_TX_RTRY_EVT      0x0010
//  174   #define SERIALAPP_TX_RTRY_TIMEOUT  250
//  175 #endif
//  176 
//  177 /*********************************************************************
//  178  * CONSTANTS
//  179  */
//  180 
//  181 /*********************************************************************
//  182  * TYPEDEFS
//  183  */
//  184 
//  185 /*********************************************************************
//  186  * DEBUG
//  187  */
//  188 #define _m_debug    1
//  189 
//  190 /*********************************************************************
//  191  * GLOBAL VARIABLES
//  192  */
//  193 
//  194 // This list should be filled with Application specific Cluster IDs.

        RSEG XDATA_I:XDATA:NOROOT(0)
        DATA
//  195 const cId_t GenericApp_ClusterList[GENERICAPP_MAX_CLUSTERS] =
GenericApp_ClusterList:
        DS 2
        REQUIRE `?<Initializer for GenericApp_ClusterList>`
        REQUIRE __INIT_XDATA_I
//  196 {
//  197   GENERICAPP_CLUSTERID
//  198 };
//  199 

        RSEG XDATA_I:XDATA:NOROOT(0)
        DATA
//  200 const SimpleDescriptionFormat_t GenericApp_SimpleDesc =
GenericApp_SimpleDesc:
        DS 12
        REQUIRE `?<Initializer for GenericApp_SimpleDesc>`
        REQUIRE __INIT_XDATA_I

        RSEG XDATA_I:XDATA:NOROOT(0)
        DATA
__Constant_9600:
        DS 4
        REQUIRE `?<Initializer for __Constant_9600>`
        REQUIRE __INIT_XDATA_I

        RSEG XDATA_I:XDATA:NOROOT(0)
        DATA
__Constant_e100:
        DS 4
        REQUIRE `?<Initializer for __Constant_e100>`
        REQUIRE __INIT_XDATA_I

        RSEG XDATA_I:XDATA:NOROOT(0)
        DATA
__Constant_12c00:
        DS 4
        REQUIRE `?<Initializer for __Constant_12c00>`
        REQUIRE __INIT_XDATA_I

        RSEG XDATA_I:XDATA:NOROOT(0)
        DATA
__Constant_1c200:
        DS 4
        REQUIRE `?<Initializer for __Constant_1c200>`
        REQUIRE __INIT_XDATA_I

        RSEG XDATA_I:XDATA:NOROOT(0)
        DATA
__Constant_25800:
        DS 4
        REQUIRE `?<Initializer for __Constant_25800>`
        REQUIRE __INIT_XDATA_I

        RSEG XDATA_I:XDATA:NOROOT(0)
        DATA
__Constant_38400:
        DS 4
        REQUIRE `?<Initializer for __Constant_38400>`
        REQUIRE __INIT_XDATA_I

        RSEG XDATA_I:XDATA:NOROOT(0)
        DATA
__Constant_4b000:
        DS 4
        REQUIRE `?<Initializer for __Constant_4b000>`
        REQUIRE __INIT_XDATA_I

        RSEG XDATA_Z:XDATA:NOROOT(0)
        DATA
`?<Constant "">`:
        DS 33
        REQUIRE __INIT_XDATA_Z
//  201 {
//  202   GENERICAPP_ENDPOINT,              //  int Endpoint;
//  203   GENERICAPP_PROFID,                //  uint16 AppProfId[2];
//  204   GENERICAPP_DEVICEID,              //  uint16 AppDeviceId[2];
//  205   GENERICAPP_DEVICE_VERSION,        //  int   AppDevVer:4;
//  206   GENERICAPP_FLAGS,                 //  int   AppFlags:4;
//  207   GENERICAPP_MAX_CLUSTERS,          //  byte  AppNumInClusters;
//  208   (cId_t *)GenericApp_ClusterList,  //  byte *pAppInClusterList;
//  209   GENERICAPP_MAX_CLUSTERS,          //  byte  AppNumInClusters;
//  210   (cId_t *)GenericApp_ClusterList   //  byte *pAppInClusterList;
//  211 };
//  212 
//  213 // This is the Endpoint/Interface description.  It is defined here, but
//  214 // filled-in in GenericApp_Init().  Another way to go would be to fill
//  215 // in the structure here and make it a "const" (in code space).  The
//  216 // way it's defined in this sample app it is define in RAM.

        RSEG XDATA_Z:XDATA:NOROOT(0)
//  217 endPointDesc_t GenericApp_epDesc;
GenericApp_epDesc:
        DS 6
        REQUIRE __INIT_XDATA_Z
//  218 
//  219 /*********************************************************************
//  220  * EXTERNAL VARIABLES
//  221  */
//  222 
//  223 /*********************************************************************
//  224  * EXTERNAL FUNCTIONS
//  225  */
//  226 
//  227 /*********************************************************************
//  228  * LOCAL VARIABLES
//  229  */

        RSEG XDATA_Z:XDATA:NOROOT(0)
//  230 byte GenericApp_TaskID;   // Task ID for internal task/event processing
GenericApp_TaskID:
        DS 1
        REQUIRE __INIT_XDATA_Z
//  231                           // This variable will be received when
//  232                           // GenericApp_Init() is called.

        RSEG XDATA_Z:XDATA:NOROOT(0)
//  233 devStates_t GenericApp_NwkState;
GenericApp_NwkState:
        DS 1
        REQUIRE __INIT_XDATA_Z
//  234 
//  235 

        RSEG XDATA_Z:XDATA:NOROOT(0)
//  236 byte GenericApp_TransID;  // This is the unique message ID (counter)
GenericApp_TransID:
        DS 1
        REQUIRE __INIT_XDATA_Z
//  237 

        RSEG XDATA_Z:XDATA:NOROOT(0)
//  238 afAddrType_t GenericApp_DstAddr;
GenericApp_DstAddr:
        DS 4
        REQUIRE __INIT_XDATA_Z
//  239 
//  240 
//  241 
//  242 //------------------------------------------------------------------------------
//  243 //xiaoyang add, data_trans task
//  244 //------------------------------------------------------------------------------

        RSEG XDATA_Z:XDATA:NOROOT(0)
//  245 byte data_trans_TaskID;
data_trans_TaskID:
        DS 1
        REQUIRE __INIT_XDATA_Z
//  246 
//  247 
//  248 /*********************************************************************
//  249  * LOCAL FUNCTIONS
//  250  */
//  251 void GenericApp_ProcessZDOMsgs( zdoIncomingMsg_t *inMsg );
//  252 void GenericApp_HandleKeys( byte shift, byte keys );
//  253 void GenericApp_MessageMSGCB( afIncomingMSGPacket_t *pckt );
//  254 void GenericApp_SendTheMessage( void );
//  255 
//  256 /*********************************************************************
//  257  * NETWORK LAYER CALLBACKS
//  258  */
//  259 
//  260 /*********************************************************************
//  261  * PUBLIC FUNCTIONS
//  262  */
//  263 
//  264 /*********************************************************************
//  265  * @fn      GenericApp_Init
//  266  *
//  267  * @brief   Initialization function for the Generic App Task.
//  268  *          This is called during initialization and should contain
//  269  *          any application specific initialization (ie. hardware
//  270  *          initialization/setup, table initialization, power up
//  271  *          notificaiton ... ).
//  272  *
//  273  * @param   task_id - the ID assigned by OSAL.  This ID should be
//  274  *                    used to send messages and set timers.
//  275  *
//  276  * @return  none
//  277  */

        RSEG BANKED_CODE:CODE:NOROOT(0)
//  278 void GenericApp_Init( byte task_id )
GenericApp_Init:
        CFI Block cfiBlock0 Using cfiCommon0
        CFI Function GenericApp_Init
//  279 {
        FUNCALL GenericApp_Init, afRegister
        LOCFRAME ISTACK, 2, STACK
        LOCFRAME PSTACK, 0, STACK
        LOCFRAME XSTACK, 0, STACK
        LOCFRAME IOVERLAY, 0, STATIC
        LOCFRAME DOVERLAY, 0, STATIC
        ARGFRAME ISTACK, 2, STACK
        ARGFRAME PSTACK, 0, STACK
        ARGFRAME XSTACK, 0, STACK
        ARGFRAME IOVERLAY, 0, STATIC
        ARGFRAME DOVERLAY, 0, STATIC
        FUNCALL GenericApp_Init, RegisterForKeys
        LOCFRAME ISTACK, 2, STACK
        LOCFRAME PSTACK, 0, STACK
        LOCFRAME XSTACK, 0, STACK
        LOCFRAME IOVERLAY, 0, STATIC
        LOCFRAME DOVERLAY, 0, STATIC
        ARGFRAME ISTACK, 2, STACK
        ARGFRAME PSTACK, 0, STACK
        ARGFRAME XSTACK, 0, STACK
        ARGFRAME IOVERLAY, 0, STATIC
        ARGFRAME DOVERLAY, 0, STATIC
        FUNCALL GenericApp_Init, HalLcdWriteString
        LOCFRAME ISTACK, 2, STACK
        LOCFRAME PSTACK, 0, STACK
        LOCFRAME XSTACK, 0, STACK
        LOCFRAME IOVERLAY, 0, STATIC
        LOCFRAME DOVERLAY, 0, STATIC
        ARGFRAME ISTACK, 2, STACK
        ARGFRAME PSTACK, 0, STACK
        ARGFRAME XSTACK, 0, STACK
        ARGFRAME IOVERLAY, 0, STATIC
        ARGFRAME DOVERLAY, 0, STATIC
        FUNCALL GenericApp_Init, ZDO_RegisterForZDOMsg
        LOCFRAME ISTACK, 2, STACK
        LOCFRAME PSTACK, 0, STACK
        LOCFRAME XSTACK, 0, STACK
        LOCFRAME IOVERLAY, 0, STATIC
        LOCFRAME DOVERLAY, 0, STATIC
        ARGFRAME ISTACK, 2, STACK
        ARGFRAME PSTACK, 0, STACK
        ARGFRAME XSTACK, 0, STACK
        ARGFRAME IOVERLAY, 0, STATIC
        ARGFRAME DOVERLAY, 0, STATIC
        FUNCALL GenericApp_Init, ZDO_RegisterForZDOMsg
        LOCFRAME ISTACK, 2, STACK
        LOCFRAME PSTACK, 0, STACK
        LOCFRAME XSTACK, 0, STACK
        LOCFRAME IOVERLAY, 0, STATIC
        LOCFRAME DOVERLAY, 0, STATIC
        ARGFRAME ISTACK, 2, STACK
        ARGFRAME PSTACK, 0, STACK
        ARGFRAME XSTACK, 0, STACK
        ARGFRAME IOVERLAY, 0, STATIC
        ARGFRAME DOVERLAY, 0, STATIC
        FUNCALL GenericApp_Init, HalUARTWrite
        LOCFRAME ISTACK, 2, STACK
        LOCFRAME PSTACK, 0, STACK
        LOCFRAME XSTACK, 0, STACK
        LOCFRAME IOVERLAY, 0, STATIC
        LOCFRAME DOVERLAY, 0, STATIC
        ARGFRAME ISTACK, 2, STACK
        ARGFRAME PSTACK, 0, STACK
        ARGFRAME XSTACK, 0, STACK
        ARGFRAME IOVERLAY, 0, STATIC
        ARGFRAME DOVERLAY, 0, STATIC
        PUSH    DPL
        CFI DPL0 Frame(CFA_SP, 4)
        CFI CFA_SP SP+-4
        PUSH    DPH
        CFI DPH0 Frame(CFA_SP, 5)
        CFI CFA_SP SP+-5
        ; Saved register size: 2
        ; Auto size: 0
//  280   GenericApp_TaskID = task_id;
        MOV     A,R1
        MOV     DPTR,#GenericApp_TaskID
        MOVX    @DPTR,A
//  281   GenericApp_NwkState = DEV_INIT;
        MOV     A,#0x1
        MOV     DPTR,#GenericApp_NwkState
        MOVX    @DPTR,A
//  282   GenericApp_TransID = 0;
        CLR     A
        MOV     DPTR,#GenericApp_TransID
        MOVX    @DPTR,A
//  283   //xiaoyang add
//  284   //halUARTCfg_t uartConfig;
//  285   // Device hardware initialization can be added here or in main() (Zmain.c).
//  286   // If the hardware is application specific - add it here.
//  287   // If the hardware is other parts of the device add it in main().
//  288 
//  289   GenericApp_DstAddr.addrMode = (afAddrMode_t)AddrNotPresent;
        MOV     DPTR,#(GenericApp_DstAddr + 2)
        MOVX    @DPTR,A
//  290   GenericApp_DstAddr.endPoint = 0;
        MOV     DPTR,#(GenericApp_DstAddr + 3)
        MOVX    @DPTR,A
//  291   GenericApp_DstAddr.addr.shortAddr = 0;
        MOV     DPTR,#GenericApp_DstAddr
        MOVX    @DPTR,A
        INC     DPTR
        MOVX    @DPTR,A
//  292 
//  293   // Fill out the endpoint description.
//  294   GenericApp_epDesc.endPoint = GENERICAPP_ENDPOINT;
        MOV     A,#0xa
        MOV     DPTR,#GenericApp_epDesc
        MOVX    @DPTR,A
//  295   GenericApp_epDesc.task_id = &GenericApp_TaskID;
        MOV     DPTR,#(GenericApp_epDesc + 1)
        MOV     A,#(GenericApp_TaskID & 0xff)
        MOVX    @DPTR,A
        INC     DPTR
        MOV     A,#((GenericApp_TaskID >> 8) & 0xff)
        MOVX    @DPTR,A
//  296   GenericApp_epDesc.simpleDesc
//  297             = (SimpleDescriptionFormat_t *)&GenericApp_SimpleDesc;
        MOV     DPTR,#(GenericApp_epDesc + 3)
        MOV     A,#(GenericApp_SimpleDesc & 0xff)
        MOVX    @DPTR,A
        INC     DPTR
        MOV     A,#((GenericApp_SimpleDesc >> 8) & 0xff)
        MOVX    @DPTR,A
//  298   GenericApp_epDesc.latencyReq = noLatencyReqs;
        CLR     A
        MOV     DPTR,#(GenericApp_epDesc + 5)
        MOVX    @DPTR,A
//  299 
//  300   // Register the endpoint description with the AF
//  301   afRegister( &GenericApp_epDesc );
        ; Setup parameters for call to function afRegister
        MOV     R2,#(GenericApp_epDesc & 0xff)
        MOV     R3,#((GenericApp_epDesc >> 8) & 0xff)
        LCALL   ??afRegister?relay
//  302 
//  303   // Register for all key events - This app will handle all key events
//  304   RegisterForKeys( GenericApp_TaskID );
        ; Setup parameters for call to function RegisterForKeys
        MOV     DPTR,#GenericApp_TaskID
        MOVX    A,@DPTR
        MOV     R1,A
        LCALL   ??RegisterForKeys?relay
//  305 
//  306   // Update the display
//  307 #if defined ( LCD_SUPPORTED )
//  308     HalLcdWriteString( "GenericApp", HAL_LCD_LINE_1 );
        ; Setup parameters for call to function HalLcdWriteString
        MOV     R1,#0x0
        MOV     R2,#(`?<Constant "GenericApp">` & 0xff)
        MOV     R3,#((`?<Constant "GenericApp">` >> 8) & 0xff)
        LCALL   ??HalLcdWriteString?relay
//  309 #endif
//  310     /*
//  311   //xiaoyang add
//  312   uartConfig.configured           = TRUE;              // 2430 don't care.
//  313   uartConfig.baudRate             = SERIAL_APP_BAUD;
//  314   uartConfig.flowControl          = TRUE;
//  315   uartConfig.flowControlThreshold = SERIAL_APP_THRESH;
//  316   uartConfig.rx.maxBufSize        = SERIAL_APP_RX_MAX;
//  317   uartConfig.tx.maxBufSize        = SERIAL_APP_TX_MAX;
//  318   uartConfig.idleTimeout          = SERIAL_APP_IDLE;   // 2430 don't care.
//  319   uartConfig.intEnable            = TRUE;              // 2430 don't care.
//  320 #if SERIAL_APP_LOOPBACK
//  321   uartConfig.callBackFunc         = NULL;
//  322 #else
//  323   uartConfig.callBackFunc         = NULL;
//  324 #endif
//  325   HalUARTOpen (SERIAL_APP_PORT, &uartConfig);
//  326   */
//  327   //
//  328   ZDO_RegisterForZDOMsg( GenericApp_TaskID, End_Device_Bind_rsp );
        ; Setup parameters for call to function ZDO_RegisterForZDOMsg
        MOV     R2,#0x20
        MOV     R3,#-0x80
        MOV     DPTR,#GenericApp_TaskID
        MOVX    A,@DPTR
        MOV     R1,A
        LCALL   ??ZDO_RegisterForZDOMsg?relay
//  329   ZDO_RegisterForZDOMsg( GenericApp_TaskID, Match_Desc_rsp );
        ; Setup parameters for call to function ZDO_RegisterForZDOMsg
        MOV     R2,#0x6
        MOV     R3,#-0x80
        MOV     DPTR,#GenericApp_TaskID
        MOVX    A,@DPTR
        MOV     R1,A
        LCALL   ??ZDO_RegisterForZDOMsg?relay
//  330   
//  331   //xiaoyang ADD@2011.5.26
//  332   //initUART();
//  333   HalUARTWrite(0,"]]\r\n",strlen("]]\r\n"));
        ; Setup parameters for call to function HalUARTWrite
        MOV     R4,#0x4
        MOV     R5,#0x0
        MOV     R2,#(`?<Constant "]]\\r\\n">` & 0xff)
        MOV     R3,#((`?<Constant "]]\\r\\n">` >> 8) & 0xff)
        MOV     R1,#0x0
        LCALL   ??HalUARTWrite?relay
        CFI EndBlock cfiBlock0
//  334 }
        REQUIRE ?Subroutine39
        ; // Fall through to label ?Subroutine39

        RSEG BANKED_CODE:CODE:NOROOT(0)
?Subroutine39:
        CFI Block cfiBlock1 Using cfiCommon0
        CFI NoFunction
        CFI CFA_SP SP+-5
        CFI DPL0 Frame(CFA_SP, 4)
        CFI DPH0 Frame(CFA_SP, 5)
        POP     DPH
        CFI CFA_SP SP+-4
        CFI DPH0 SameValue
        POP     DPL
        CFI CFA_SP SP+-3
        CFI DPL0 SameValue
        LJMP    ?BRET
        CFI EndBlock cfiBlock1
//  335 
//  336 /*********************************************************************
//  337  * @fn      GenericApp_ProcessEvent
//  338  *
//  339  * @brief   Generic Application Task event processor.  This function
//  340  *          is called to process all events for the task.  Events
//  341  *          include timers, messages and any other user defined events.
//  342  *
//  343  * @param   task_id  - The OSAL assigned task ID.
//  344  * @param   events - events to process.  This is a bit map and can
//  345  *                   contain more than one event.
//  346  *
//  347  * @return  none
//  348  */

        RSEG BANKED_CODE:CODE:NOROOT(0)
//  349 UINT16 GenericApp_ProcessEvent( byte task_id, UINT16 events )
GenericApp_ProcessEvent:
        CFI Block cfiBlock2 Using cfiCommon0
        CFI Function GenericApp_ProcessEvent
//  350 {
        FUNCALL GenericApp_ProcessEvent, osal_msg_receive
        LOCFRAME ISTACK, 0, STACK
        LOCFRAME PSTACK, 0, STACK
        LOCFRAME XSTACK, 12, STACK
        LOCFRAME IOVERLAY, 0, STATIC
        LOCFRAME DOVERLAY, 0, STATIC
        ARGFRAME ISTACK, 0, STACK
        ARGFRAME PSTACK, 0, STACK
        ARGFRAME XSTACK, 12, STACK
        ARGFRAME IOVERLAY, 0, STATIC
        ARGFRAME DOVERLAY, 0, STATIC
        FUNCALL GenericApp_ProcessEvent, osal_msg_deallocate
        LOCFRAME ISTACK, 0, STACK
        LOCFRAME PSTACK, 0, STACK
        LOCFRAME XSTACK, 12, STACK
        LOCFRAME IOVERLAY, 0, STATIC
        LOCFRAME DOVERLAY, 0, STATIC
        ARGFRAME ISTACK, 0, STACK
        ARGFRAME PSTACK, 0, STACK
        ARGFRAME XSTACK, 12, STACK
        ARGFRAME IOVERLAY, 0, STATIC
        ARGFRAME DOVERLAY, 0, STATIC
        FUNCALL GenericApp_ProcessEvent, osal_msg_receive
        LOCFRAME ISTACK, 0, STACK
        LOCFRAME PSTACK, 0, STACK
        LOCFRAME XSTACK, 12, STACK
        LOCFRAME IOVERLAY, 0, STATIC
        LOCFRAME DOVERLAY, 0, STATIC
        ARGFRAME ISTACK, 0, STACK
        ARGFRAME PSTACK, 0, STACK
        ARGFRAME XSTACK, 12, STACK
        ARGFRAME IOVERLAY, 0, STATIC
        ARGFRAME DOVERLAY, 0, STATIC
        FUNCALL GenericApp_ProcessEvent, GenericApp_ProcessZDOMsgs
        LOCFRAME ISTACK, 0, STACK
        LOCFRAME PSTACK, 0, STACK
        LOCFRAME XSTACK, 12, STACK
        LOCFRAME IOVERLAY, 0, STATIC
        LOCFRAME DOVERLAY, 0, STATIC
        ARGFRAME ISTACK, 0, STACK
        ARGFRAME PSTACK, 0, STACK
        ARGFRAME XSTACK, 12, STACK
        ARGFRAME IOVERLAY, 0, STATIC
        ARGFRAME DOVERLAY, 0, STATIC
        FUNCALL GenericApp_ProcessEvent, GenericApp_HandleKeys
        LOCFRAME ISTACK, 0, STACK
        LOCFRAME PSTACK, 0, STACK
        LOCFRAME XSTACK, 12, STACK
        LOCFRAME IOVERLAY, 0, STATIC
        LOCFRAME DOVERLAY, 0, STATIC
        ARGFRAME ISTACK, 0, STACK
        ARGFRAME PSTACK, 0, STACK
        ARGFRAME XSTACK, 12, STACK
        ARGFRAME IOVERLAY, 0, STATIC
        ARGFRAME DOVERLAY, 0, STATIC
        FUNCALL GenericApp_ProcessEvent, GenericApp_MessageMSGCB
        LOCFRAME ISTACK, 0, STACK
        LOCFRAME PSTACK, 0, STACK
        LOCFRAME XSTACK, 12, STACK
        LOCFRAME IOVERLAY, 0, STATIC
        LOCFRAME DOVERLAY, 0, STATIC
        ARGFRAME ISTACK, 0, STACK
        ARGFRAME PSTACK, 0, STACK
        ARGFRAME XSTACK, 12, STACK
        ARGFRAME IOVERLAY, 0, STATIC
        ARGFRAME DOVERLAY, 0, STATIC
        MOV     A,#-0xc
        LCALL   ?BANKED_ENTER_XDATA
        CFI DPH0 load(1, XDATA, add(CFA_XSP16, literal(-1)))
        CFI DPL0 load(1, XDATA, add(CFA_XSP16, literal(-2)))
        CFI ?BRET_EXT load(1, XDATA, add(CFA_XSP16, literal(-3)))
        CFI ?RET_HIGH load(1, XDATA, add(CFA_XSP16, literal(-4)))
        CFI ?RET_LOW load(1, XDATA, add(CFA_XSP16, literal(-5)))
        CFI R7 load(1, XDATA, add(CFA_XSP16, literal(-6)))
        CFI V3 load(1, XDATA, add(CFA_XSP16, literal(-7)))
        CFI V2 load(1, XDATA, add(CFA_XSP16, literal(-8)))
        CFI V1 load(1, XDATA, add(CFA_XSP16, literal(-9)))
        CFI V0 load(1, XDATA, add(CFA_XSP16, literal(-10)))
        CFI VB load(1, XDATA, add(CFA_XSP16, literal(-11)))
        CFI R6 load(1, XDATA, add(CFA_XSP16, literal(-12)))
        CFI CFA_SP SP+0
        CFI CFA_XSP16 add(XSP16, 12)
        ; Saved register size: 12
        ; Auto size: 0
        MOV     A,R2
        MOV     R6,A
        MOV     A,R3
        MOV     R7,A
//  351   afIncomingMSGPacket_t *MSGpkt;
//  352   afDataConfirm_t *afDataConfirm;
//  353 
//  354   // Data Confirmation message fields
//  355   byte sentEP;
//  356   ZStatus_t sentStatus;
//  357   byte sentTransID;       // This should match the value sent
//  358 
//  359   if ( events & SYS_EVENT_MSG )
        MOV     A,#-0x80
        ANL     A,R7
        MOV     R1,A
        CLR     A
        JNZ     ??GenericApp_ProcessEvent_0
        MOV     A,R1
??GenericApp_ProcessEvent_0:
        JZ      ??GenericApp_ProcessEvent_1
//  360   {
//  361     MSGpkt = (afIncomingMSGPacket_t *)osal_msg_receive( GenericApp_TaskID );
        ; Setup parameters for call to function osal_msg_receive
        SJMP    ??GenericApp_ProcessEvent_2
//  362     while ( MSGpkt )
//  363     {
//  364       switch ( MSGpkt->hdr.event )
//  365       {
//  366         case ZDO_CB_MSG:
//  367           GenericApp_ProcessZDOMsgs( (zdoIncomingMsg_t *)MSGpkt );
//  368           break;
//  369 
//  370         case KEY_CHANGE:
//  371           GenericApp_HandleKeys( ((keyChange_t *)MSGpkt)->state, ((keyChange_t *)MSGpkt)->keys );
//  372           break;
//  373 
//  374         case AF_DATA_CONFIRM_CMD:
//  375           // This message is received as a confirmation of a data packet sent.
//  376           // The status is of ZStatus_t type [defined in ZComDef.h]
//  377           // The message fields are defined in AF.h
//  378           afDataConfirm = (afDataConfirm_t *)MSGpkt;
//  379           sentEP = afDataConfirm->endpoint;
//  380           sentStatus = afDataConfirm->hdr.status;
//  381           sentTransID = afDataConfirm->transID;
//  382           (void)sentEP;
//  383           (void)sentTransID;
//  384 
//  385           // Action taken when confirmation is received.
//  386           if ( sentStatus != ZSuccess )
//  387           {
//  388             // The data wasn't delivered -- Do something
//  389           }
//  390           break;
//  391 
//  392         case AF_INCOMING_MSG_CMD:
//  393           GenericApp_MessageMSGCB( MSGpkt );
//  394           break;
//  395 
//  396         case ZDO_STATE_CHANGE:
//  397           GenericApp_NwkState = (devStates_t)(MSGpkt->hdr.status);
??GenericApp_ProcessEvent_3:
        MOV     DPL,?V0 + 0
        MOV     DPH,?V0 + 1
        INC     DPTR
        MOVX    A,@DPTR
        MOV     DPTR,#GenericApp_NwkState
        MOVX    @DPTR,A
//  398           if ( (GenericApp_NwkState == DEV_ZB_COORD)
//  399               || (GenericApp_NwkState == DEV_ROUTER)
//  400               || (GenericApp_NwkState == DEV_END_DEVICE) )
//  401           { 
//  402           }
//  403           break;
//  404 
//  405         default:
//  406           break;
//  407       }
//  408 
//  409       // Release the memory
//  410       osal_msg_deallocate( (uint8 *)MSGpkt );
??GenericApp_ProcessEvent_4:
        ; Setup parameters for call to function osal_msg_deallocate
        MOV     R2,?V0 + 0
        MOV     R3,?V0 + 1
        LCALL   ??osal_msg_deallocate?relay
//  411 
//  412       // Next
//  413       MSGpkt = (afIncomingMSGPacket_t *)osal_msg_receive( GenericApp_TaskID );
        ; Setup parameters for call to function osal_msg_receive
??GenericApp_ProcessEvent_2:
        MOV     DPTR,#GenericApp_TaskID
        MOVX    A,@DPTR
        MOV     R1,A
        LCALL   ??osal_msg_receive?relay
        MOV     ?V0 + 0,R2
        MOV     ?V0 + 1,R3
        MOV     A,?V0 + 0
        JNZ     ??GenericApp_ProcessEvent_5
        MOV     A,?V0 + 1
??GenericApp_ProcessEvent_5:
        JZ      ??GenericApp_ProcessEvent_6
        MOV     DPL,?V0 + 0
        MOV     DPH,?V0 + 1
        MOVX    A,@DPTR
        LCALL   ?UC_SWITCH_SPARSE
`?<Jumptable for GenericApp_ProcessEvent>_0`:
        DATA
        DB        0
        DB        4
        DB        26
        DW        ??GenericApp_ProcessEvent_7
        DB        192
        DW        ??GenericApp_ProcessEvent_8
        DB        209
        DW        ??GenericApp_ProcessEvent_3
        DB        211
        DW        ??GenericApp_ProcessEvent_9
        DW        ??GenericApp_ProcessEvent_4
        CODE
??GenericApp_ProcessEvent_9:
        ; Setup parameters for call to function GenericApp_ProcessZDOMsgs
        MOV     R2,?V0 + 0
        MOV     R3,?V0 + 1
        LCALL   ??GenericApp_ProcessZDOMsgs?relay
        SJMP    ??GenericApp_ProcessEvent_4
??GenericApp_ProcessEvent_8:
        ; Setup parameters for call to function GenericApp_HandleKeys
        MOV     DPL,?V0 + 0
        MOV     DPH,?V0 + 1
        INC     DPTR
        INC     DPTR
        INC     DPTR
        MOVX    A,@DPTR
        MOV     R2,A
        MOV     DPL,?V0 + 0
        MOV     DPH,?V0 + 1
        INC     DPTR
        INC     DPTR
        MOVX    A,@DPTR
        MOV     R1,A
        LCALL   ??GenericApp_HandleKeys?relay
        SJMP    ??GenericApp_ProcessEvent_4
??GenericApp_ProcessEvent_7:
        ; Setup parameters for call to function GenericApp_MessageMSGCB
        MOV     R2,?V0 + 0
        MOV     R3,?V0 + 1
        LCALL   ??GenericApp_MessageMSGCB?relay
        SJMP    ??GenericApp_ProcessEvent_4
//  414     }
//  415 
//  416     // return unprocessed events
//  417     return (events ^ SYS_EVENT_MSG);
??GenericApp_ProcessEvent_6:
        MOV     A,R6
        MOV     R2,A
        MOV     A,#-0x80
        XRL     A,R7
        MOV     R3,A
        SJMP    ??GenericApp_ProcessEvent_10
//  418   }
//  419 
//  420   // Send a message out - This event is generated by a timer
//  421   //  (setup in GenericApp_Init()).
//  422   if ( events & GENERICAPP_SEND_MSG_EVT )
??GenericApp_ProcessEvent_1:
        MOV     A,R6
        MOV     C,0xE0 /* A   */.0
        JNC     ??GenericApp_ProcessEvent_11
//  423   {
//  424     // Send "the" message
//  425     //GenericApp_SendTheMessage();
//  426 
//  427     // Setup to send message again
//  428     //osal_start_timerEx( GenericApp_TaskID,
//  429       //                  GENERICAPP_SEND_MSG_EVT,
//  430         //                GENERICAPP_SEND_MSG_TIMEOUT );
//  431 
//  432     // return unprocessed events
//  433     return (events ^ GENERICAPP_SEND_MSG_EVT);
        MOV     A,#0x1
        XRL     A,R6
        MOV     R2,A
        SJMP    ??GenericApp_ProcessEvent_10
//  434   }
//  435 
//  436   // Discard unknown events
//  437   return 0;
??GenericApp_ProcessEvent_11:
        MOV     R2,#0x0
        MOV     R3,#0x0
??GenericApp_ProcessEvent_10:
        SJMP    ??Subroutine40_0
        CFI EndBlock cfiBlock2
//  438 }

        RSEG BANKED_CODE:CODE:NOROOT(0)
?Subroutine40:
        CFI Block cfiBlock3 Using cfiCommon0
        CFI NoFunction
        CFI CFA_SP SP+0
        CFI CFA_XSP16 add(XSP16, 16)
        CFI VB load(1, XDATA, add(CFA_XSP16, literal(-11)))
        CFI DPL0 load(1, XDATA, add(CFA_XSP16, literal(-2)))
        CFI DPH0 load(1, XDATA, add(CFA_XSP16, literal(-1)))
        CFI R6 load(1, XDATA, add(CFA_XSP16, literal(-12)))
        CFI R7 load(1, XDATA, add(CFA_XSP16, literal(-6)))
        CFI V0 load(1, XDATA, add(CFA_XSP16, literal(-10)))
        CFI V1 load(1, XDATA, add(CFA_XSP16, literal(-9)))
        CFI V2 load(1, XDATA, add(CFA_XSP16, literal(-8)))
        CFI V3 load(1, XDATA, add(CFA_XSP16, literal(-7)))
        CFI ?BRET_EXT load(1, XDATA, add(CFA_XSP16, literal(-3)))
        CFI ?RET_HIGH load(1, XDATA, add(CFA_XSP16, literal(-4)))
        CFI ?RET_LOW load(1, XDATA, add(CFA_XSP16, literal(-5)))
        CFI Invalid
        LCALL   ?DEALLOC_XSTACK8
        CFI CFA_XSP16 add(XSP16, 12)
        CFI Valid
??Subroutine40_0:
        MOV     R7,#0x4
        LJMP    ?BANKED_LEAVE_XDATA
        CFI EndBlock cfiBlock3
//  439 
//  440 /*********************************************************************
//  441  * Event Generation Functions
//  442  */
//  443 /*********************************************************************
//  444  * @fn      GenericApp_ProcessZDOMsgs()
//  445  *
//  446  * @brief   Process response messages
//  447  *
//  448  * @param   none
//  449  *
//  450  * @return  none
//  451  */

        RSEG BANKED_CODE:CODE:NOROOT(0)
//  452 void GenericApp_ProcessZDOMsgs( zdoIncomingMsg_t *inMsg )
GenericApp_ProcessZDOMsgs:
        CFI Block cfiBlock4 Using cfiCommon0
        CFI Function GenericApp_ProcessZDOMsgs
//  453 {
        FUNCALL GenericApp_ProcessZDOMsgs, HalLedSet
        LOCFRAME ISTACK, 0, STACK
        LOCFRAME PSTACK, 0, STACK
        LOCFRAME XSTACK, 10, STACK
        LOCFRAME IOVERLAY, 0, STATIC
        LOCFRAME DOVERLAY, 0, STATIC
        ARGFRAME ISTACK, 0, STACK
        ARGFRAME PSTACK, 0, STACK
        ARGFRAME XSTACK, 10, STACK
        ARGFRAME IOVERLAY, 0, STATIC
        ARGFRAME DOVERLAY, 0, STATIC
        FUNCALL GenericApp_ProcessZDOMsgs, HalLedSet
        LOCFRAME ISTACK, 0, STACK
        LOCFRAME PSTACK, 0, STACK
        LOCFRAME XSTACK, 10, STACK
        LOCFRAME IOVERLAY, 0, STATIC
        LOCFRAME DOVERLAY, 0, STATIC
        ARGFRAME ISTACK, 0, STACK
        ARGFRAME PSTACK, 0, STACK
        ARGFRAME XSTACK, 10, STACK
        ARGFRAME IOVERLAY, 0, STATIC
        ARGFRAME DOVERLAY, 0, STATIC
        FUNCALL GenericApp_ProcessZDOMsgs, ZDO_ParseEPListRsp
        LOCFRAME ISTACK, 0, STACK
        LOCFRAME PSTACK, 0, STACK
        LOCFRAME XSTACK, 10, STACK
        LOCFRAME IOVERLAY, 0, STATIC
        LOCFRAME DOVERLAY, 0, STATIC
        ARGFRAME ISTACK, 0, STACK
        ARGFRAME PSTACK, 0, STACK
        ARGFRAME XSTACK, 10, STACK
        ARGFRAME IOVERLAY, 0, STATIC
        ARGFRAME DOVERLAY, 0, STATIC
        FUNCALL GenericApp_ProcessZDOMsgs, HalLedSet
        LOCFRAME ISTACK, 0, STACK
        LOCFRAME PSTACK, 0, STACK
        LOCFRAME XSTACK, 10, STACK
        LOCFRAME IOVERLAY, 0, STATIC
        LOCFRAME DOVERLAY, 0, STATIC
        ARGFRAME ISTACK, 0, STACK
        ARGFRAME PSTACK, 0, STACK
        ARGFRAME XSTACK, 10, STACK
        ARGFRAME IOVERLAY, 0, STATIC
        ARGFRAME DOVERLAY, 0, STATIC
        FUNCALL GenericApp_ProcessZDOMsgs, osal_mem_free
        LOCFRAME ISTACK, 0, STACK
        LOCFRAME PSTACK, 0, STACK
        LOCFRAME XSTACK, 10, STACK
        LOCFRAME IOVERLAY, 0, STATIC
        LOCFRAME DOVERLAY, 0, STATIC
        ARGFRAME ISTACK, 0, STACK
        ARGFRAME PSTACK, 0, STACK
        ARGFRAME XSTACK, 10, STACK
        ARGFRAME IOVERLAY, 0, STATIC
        ARGFRAME DOVERLAY, 0, STATIC
        MOV     A,#-0xa
        LCALL   ?BANKED_ENTER_XDATA
        CFI DPH0 load(1, XDATA, add(CFA_XSP16, literal(-1)))
        CFI DPL0 load(1, XDATA, add(CFA_XSP16, literal(-2)))
        CFI ?BRET_EXT load(1, XDATA, add(CFA_XSP16, literal(-3)))
        CFI ?RET_HIGH load(1, XDATA, add(CFA_XSP16, literal(-4)))
        CFI ?RET_LOW load(1, XDATA, add(CFA_XSP16, literal(-5)))
        CFI R7 load(1, XDATA, add(CFA_XSP16, literal(-6)))
        CFI V1 load(1, XDATA, add(CFA_XSP16, literal(-7)))
        CFI V0 load(1, XDATA, add(CFA_XSP16, literal(-8)))
        CFI VB load(1, XDATA, add(CFA_XSP16, literal(-9)))
        CFI R6 load(1, XDATA, add(CFA_XSP16, literal(-10)))
        CFI CFA_SP SP+0
        CFI CFA_XSP16 add(XSP16, 10)
        ; Saved register size: 10
        ; Auto size: 0
//  454   switch ( inMsg->clusterID )
        MOV     A,R2
        ADD     A,#0xc
        MOV     DPL,A
        MOV     A,R3
        LCALL   ?Subroutine42 & 0xFFFF
??CrossCallReturnLabel_101:
        MOVX    A,@DPTR
        MOV     ?V0 + 0,A
        INC     DPTR
        MOVX    A,@DPTR
        MOV     ?V0 + 1,A
        MOV     R0,#?V0 + 0
        LCALL   ?US_SWITCH_SPARSE
`?<Jumptable for GenericApp_ProcessZDOMsgs>_0`:
        DATA
        DW        0
        DW        2
        DW        32774
        DW        ??GenericApp_ProcessZDOMsgs_0
        DW        32800
        DW        ??GenericApp_ProcessZDOMsgs_1
        DW        ??GenericApp_ProcessZDOMsgs_2
        CODE
//  455   {
//  456     case End_Device_Bind_rsp:
//  457       if ( ZDO_ParseBindRsp( inMsg ) == ZSuccess )
??GenericApp_ProcessZDOMsgs_1:
        MOV     A,R2
        ADD     A,#0x11
        LCALL   ?Subroutine15 & 0xFFFF
??CrossCallReturnLabel_32:
        JNZ     ??GenericApp_ProcessZDOMsgs_3
//  458       {
//  459         // Light LED
//  460         HalLedSet( HAL_LED_4, HAL_LED_MODE_ON );
        ; Setup parameters for call to function HalLedSet
        MOV     R2,#0x1
??GenericApp_ProcessZDOMsgs_4:
        MOV     R1,#0x8
        LCALL   ??HalLedSet?relay
        SJMP    ??GenericApp_ProcessZDOMsgs_2
//  461       }
//  462 #if defined(BLINK_LEDS)
//  463       else
//  464       {
//  465         // Flash LED to show failure
//  466         HalLedSet ( HAL_LED_4, HAL_LED_MODE_FLASH );
??GenericApp_ProcessZDOMsgs_3:
        ; Setup parameters for call to function HalLedSet
        MOV     R2,#0x4
        SJMP    ??GenericApp_ProcessZDOMsgs_4
//  467       }
//  468 #endif
//  469       break;
//  470 
//  471     case Match_Desc_rsp:
//  472       {
//  473         ZDO_ActiveEndpointRsp_t *pRsp = ZDO_ParseEPListRsp( inMsg );
??GenericApp_ProcessZDOMsgs_0:
        ; Setup parameters for call to function ZDO_ParseEPListRsp
        LCALL   ??ZDO_ParseEPListRsp?relay
        MOV     ?V0 + 0,R2
        MOV     ?V0 + 1,R3
        MOV     R6,?V0 + 0
        MOV     R7,?V0 + 1
//  474         if ( pRsp )
        MOV     A,R6
        JNZ     ??GenericApp_ProcessZDOMsgs_5
        MOV     A,R7
??GenericApp_ProcessZDOMsgs_5:
        JZ      ??GenericApp_ProcessZDOMsgs_2
//  475         {
//  476           if ( pRsp->status == ZSuccess && pRsp->cnt )
        MOV     DPL,R6
        MOV     DPH,R7
        MOVX    A,@DPTR
        JNZ     ??GenericApp_ProcessZDOMsgs_6
        INC     DPTR
        INC     DPTR
        INC     DPTR
        MOVX    A,@DPTR
        JZ      ??GenericApp_ProcessZDOMsgs_6
//  477           {
//  478             GenericApp_DstAddr.addrMode = (afAddrMode_t)Addr16Bit;
        MOV     A,#0x2
        MOV     DPTR,#(GenericApp_DstAddr + 2)
        MOVX    @DPTR,A
//  479             GenericApp_DstAddr.addr.shortAddr = pRsp->nwkAddr;
        MOV     DPL,R6
        MOV     DPH,R7
        INC     DPTR
        MOVX    A,@DPTR
        MOV     R0,A
        INC     DPTR
        MOVX    A,@DPTR
        MOV     R1,A
        MOV     DPTR,#GenericApp_DstAddr
        MOV     A,R0
        MOVX    @DPTR,A
        INC     DPTR
        MOV     A,R1
        MOVX    @DPTR,A
//  480             // Take the first endpoint, Can be changed to search through endpoints
//  481             GenericApp_DstAddr.endPoint = pRsp->epList[0];
        MOV     DPL,R6
        MOV     DPH,R7
        INC     DPTR
        INC     DPTR
        INC     DPTR
        INC     DPTR
        MOVX    A,@DPTR
        MOV     DPTR,#(GenericApp_DstAddr + 3)
        MOVX    @DPTR,A
//  482 
//  483             // Light LED
//  484             HalLedSet( HAL_LED_4, HAL_LED_MODE_ON );
        ; Setup parameters for call to function HalLedSet
        MOV     R2,#0x1
        MOV     R1,#0x8
        LCALL   ??HalLedSet?relay
//  485           }
//  486           osal_mem_free( pRsp );
??GenericApp_ProcessZDOMsgs_6:
        ; Setup parameters for call to function osal_mem_free
        MOV     A,R6
        MOV     R2,A
        MOV     A,R7
        MOV     R3,A
        LCALL   ??osal_mem_free?relay
//  487         }
//  488       }
//  489       break;
//  490   }
//  491 }
??GenericApp_ProcessZDOMsgs_2:
        LJMP    ??Subroutine41_0 & 0xFFFF
        CFI EndBlock cfiBlock4
//  492 
//  493 /*********************************************************************
//  494  * @fn      GenericApp_HandleKeys
//  495  *
//  496  * @brief   Handles all key events for this device.
//  497  *
//  498  * @param   shift - true if in shift/alt.
//  499  * @param   keys - bit field for key events. Valid entries:
//  500  *                 HAL_KEY_SW_4
//  501  *                 HAL_KEY_SW_3
//  502  *                 HAL_KEY_SW_2
//  503  *                 HAL_KEY_SW_1
//  504  *
//  505  * @return  none
//  506  */

        RSEG BANKED_CODE:CODE:NOROOT(0)
//  507 void GenericApp_HandleKeys( byte shift, byte keys )
GenericApp_HandleKeys:
        CFI Block cfiBlock5 Using cfiCommon0
        CFI Function GenericApp_HandleKeys
//  508 {
        FUNCALL GenericApp_HandleKeys, HalUARTWrite
        LOCFRAME ISTACK, 0, STACK
        LOCFRAME PSTACK, 0, STACK
        LOCFRAME XSTACK, 19, STACK
        LOCFRAME IOVERLAY, 0, STATIC
        LOCFRAME DOVERLAY, 0, STATIC
        ARGFRAME ISTACK, 0, STACK
        ARGFRAME PSTACK, 0, STACK
        ARGFRAME XSTACK, 19, STACK
        ARGFRAME IOVERLAY, 0, STATIC
        ARGFRAME DOVERLAY, 0, STATIC
        FUNCALL GenericApp_HandleKeys, HalUARTWrite
        LOCFRAME ISTACK, 0, STACK
        LOCFRAME PSTACK, 0, STACK
        LOCFRAME XSTACK, 19, STACK
        LOCFRAME IOVERLAY, 0, STATIC
        LOCFRAME DOVERLAY, 0, STATIC
        ARGFRAME ISTACK, 0, STACK
        ARGFRAME PSTACK, 0, STACK
        ARGFRAME XSTACK, 19, STACK
        ARGFRAME IOVERLAY, 0, STATIC
        ARGFRAME DOVERLAY, 0, STATIC
        FUNCALL GenericApp_HandleKeys, HalLedSet
        LOCFRAME ISTACK, 0, STACK
        LOCFRAME PSTACK, 0, STACK
        LOCFRAME XSTACK, 19, STACK
        LOCFRAME IOVERLAY, 0, STATIC
        LOCFRAME DOVERLAY, 0, STATIC
        ARGFRAME ISTACK, 0, STACK
        ARGFRAME PSTACK, 0, STACK
        ARGFRAME XSTACK, 19, STACK
        ARGFRAME IOVERLAY, 0, STATIC
        ARGFRAME DOVERLAY, 0, STATIC
        FUNCALL GenericApp_HandleKeys, NLME_GetShortAddr
        LOCFRAME ISTACK, 0, STACK
        LOCFRAME PSTACK, 0, STACK
        LOCFRAME XSTACK, 19, STACK
        LOCFRAME IOVERLAY, 0, STATIC
        LOCFRAME DOVERLAY, 0, STATIC
        ARGFRAME ISTACK, 0, STACK
        ARGFRAME PSTACK, 0, STACK
        ARGFRAME XSTACK, 19, STACK
        ARGFRAME IOVERLAY, 0, STATIC
        ARGFRAME DOVERLAY, 0, STATIC
        FUNCALL GenericApp_HandleKeys, ZDP_EndDeviceBindReq
        LOCFRAME ISTACK, 0, STACK
        LOCFRAME PSTACK, 0, STACK
        LOCFRAME XSTACK, 28, STACK
        LOCFRAME IOVERLAY, 0, STATIC
        LOCFRAME DOVERLAY, 0, STATIC
        ARGFRAME ISTACK, 0, STACK
        ARGFRAME PSTACK, 0, STACK
        ARGFRAME XSTACK, 28, STACK
        ARGFRAME IOVERLAY, 0, STATIC
        ARGFRAME DOVERLAY, 0, STATIC
        FUNCALL GenericApp_HandleKeys, HalUARTWrite
        LOCFRAME ISTACK, 0, STACK
        LOCFRAME PSTACK, 0, STACK
        LOCFRAME XSTACK, 19, STACK
        LOCFRAME IOVERLAY, 0, STATIC
        LOCFRAME DOVERLAY, 0, STATIC
        ARGFRAME ISTACK, 0, STACK
        ARGFRAME PSTACK, 0, STACK
        ARGFRAME XSTACK, 19, STACK
        ARGFRAME IOVERLAY, 0, STATIC
        ARGFRAME DOVERLAY, 0, STATIC
        FUNCALL GenericApp_HandleKeys, HalUARTWrite
        LOCFRAME ISTACK, 0, STACK
        LOCFRAME PSTACK, 0, STACK
        LOCFRAME XSTACK, 19, STACK
        LOCFRAME IOVERLAY, 0, STATIC
        LOCFRAME DOVERLAY, 0, STATIC
        ARGFRAME ISTACK, 0, STACK
        ARGFRAME PSTACK, 0, STACK
        ARGFRAME XSTACK, 19, STACK
        ARGFRAME IOVERLAY, 0, STATIC
        ARGFRAME DOVERLAY, 0, STATIC
        FUNCALL GenericApp_HandleKeys, HalUARTWrite
        LOCFRAME ISTACK, 0, STACK
        LOCFRAME PSTACK, 0, STACK
        LOCFRAME XSTACK, 19, STACK
        LOCFRAME IOVERLAY, 0, STATIC
        LOCFRAME DOVERLAY, 0, STATIC
        ARGFRAME ISTACK, 0, STACK
        ARGFRAME PSTACK, 0, STACK
        ARGFRAME XSTACK, 19, STACK
        ARGFRAME IOVERLAY, 0, STATIC
        ARGFRAME DOVERLAY, 0, STATIC
        FUNCALL GenericApp_HandleKeys, HalLedSet
        LOCFRAME ISTACK, 0, STACK
        LOCFRAME PSTACK, 0, STACK
        LOCFRAME XSTACK, 19, STACK
        LOCFRAME IOVERLAY, 0, STATIC
        LOCFRAME DOVERLAY, 0, STATIC
        ARGFRAME ISTACK, 0, STACK
        ARGFRAME PSTACK, 0, STACK
        ARGFRAME XSTACK, 19, STACK
        ARGFRAME IOVERLAY, 0, STATIC
        ARGFRAME DOVERLAY, 0, STATIC
        FUNCALL GenericApp_HandleKeys, ZDP_MatchDescReq
        LOCFRAME ISTACK, 0, STACK
        LOCFRAME PSTACK, 0, STACK
        LOCFRAME XSTACK, 27, STACK
        LOCFRAME IOVERLAY, 0, STATIC
        LOCFRAME DOVERLAY, 0, STATIC
        ARGFRAME ISTACK, 0, STACK
        ARGFRAME PSTACK, 0, STACK
        ARGFRAME XSTACK, 27, STACK
        ARGFRAME IOVERLAY, 0, STATIC
        ARGFRAME DOVERLAY, 0, STATIC
        MOV     A,#-0xa
        LCALL   ?BANKED_ENTER_XDATA
        CFI DPH0 load(1, XDATA, add(CFA_XSP16, literal(-1)))
        CFI DPL0 load(1, XDATA, add(CFA_XSP16, literal(-2)))
        CFI ?BRET_EXT load(1, XDATA, add(CFA_XSP16, literal(-3)))
        CFI ?RET_HIGH load(1, XDATA, add(CFA_XSP16, literal(-4)))
        CFI ?RET_LOW load(1, XDATA, add(CFA_XSP16, literal(-5)))
        CFI R7 load(1, XDATA, add(CFA_XSP16, literal(-6)))
        CFI V1 load(1, XDATA, add(CFA_XSP16, literal(-7)))
        CFI V0 load(1, XDATA, add(CFA_XSP16, literal(-8)))
        CFI VB load(1, XDATA, add(CFA_XSP16, literal(-9)))
        CFI R6 load(1, XDATA, add(CFA_XSP16, literal(-10)))
        CFI CFA_SP SP+0
        CFI CFA_XSP16 add(XSP16, 10)
        ; Saved register size: 10
        ; Auto size: 9
        MOV     A,#-0x9
        LCALL   ?ALLOC_XSTACK8
        CFI CFA_XSP16 add(XSP16, 19)
        MOV     A,R2
        MOV     R6,A
//  509   zAddrType_t dstAddr;
//  510 
//  511   // Shift is used to make each button/switch dual purpose.
//  512   if ( shift )
        MOV     A,R1
        JZ      $+5
        LJMP    ??GenericApp_HandleKeys_0 & 0xFFFF
//  513   {
//  514     if ( keys & HAL_KEY_SW_1 )
//  515     {
//  516     }
//  517     if ( keys & HAL_KEY_SW_2 )
//  518     {
//  519     }
//  520     if ( keys & HAL_KEY_SW_3 )
//  521     {
//  522     }
//  523     if ( keys & HAL_KEY_SW_4 )
//  524     {
//  525     }
//  526   }
//  527   else
//  528   {
//  529     if ( keys & HAL_KEY_SW_1 )
        MOV     A,R6
        MOV     C,0xE0 /* A   */.0
        JNC     ??GenericApp_HandleKeys_1
//  530     {
//  531 #if _m_debug
//  532       HalUARTWrite(0,"hal sw1 pressed!\r\n",strlen("hal sw1 pressed!\r\n"));
        ; Setup parameters for call to function HalUARTWrite
        MOV     R4,#0x12
        MOV     R5,#0x0
        MOV     R2,#(`?<Constant "hal sw1 pressed!\\r\\n">` & 0xff)
        MOV     R3,#((`?<Constant "hal sw1 pressed!\\r\\n">` >> 8) & 0xff)
        MOV     R1,#0x0
        LCALL   ??HalUARTWrite?relay
//  533       //uart0_puts("hal sw1 pressed!\r\n",strlen("hal sw1 pressed!\r\n"));
//  534 #endif
//  535     }
//  536 
//  537     if ( keys & HAL_KEY_SW_2 )
??GenericApp_HandleKeys_1:
        MOV     A,R6
        MOV     C,0xE0 /* A   */.1
        JNC     ??GenericApp_HandleKeys_2
//  538     {
//  539       //xiaoyang add
//  540 #if _m_debug
//  541        HalUARTWrite(0,"hal sw2 pressed!\r\n",strlen("hal sw2 pressed!\r\n"));
        ; Setup parameters for call to function HalUARTWrite
        MOV     R4,#0x12
        MOV     R5,#0x0
        MOV     R2,#(`?<Constant "hal sw2 pressed!\\r\\n">` & 0xff)
        MOV     R3,#((`?<Constant "hal sw2 pressed!\\r\\n">` >> 8) & 0xff)
        LCALL   ?Subroutine17 & 0xFFFF
//  542       //uart0_puts("hal sw2 pressed!\r\n",strlen("hal sw2 pressed!\r\n"));
//  543 #endif
//  544       HalLedSet ( HAL_LED_4, HAL_LED_MODE_OFF );
//  545 
//  546       // Initiate an End Device Bind Request for the mandatory endpoint
//  547       dstAddr.addrMode = Addr16Bit;
??CrossCallReturnLabel_36:
        LCALL   ?XSTACK_DISP0_8
        MOV     A,#0x2
        MOVX    @DPTR,A
//  548       dstAddr.addr.shortAddr = 0x0000; // Coordinator
        MOV     DPL,?XSP + 0
        MOV     DPH,?XSP + 1
        CLR     A
        MOVX    @DPTR,A
        INC     DPTR
        MOVX    @DPTR,A
//  549       ZDP_EndDeviceBindReq( &dstAddr, NLME_GetShortAddr(),
//  550                             GenericApp_epDesc.endPoint,
//  551                             GENERICAPP_PROFID,
//  552                             GENERICAPP_MAX_CLUSTERS, (cId_t *)GenericApp_ClusterList,
//  553                             GENERICAPP_MAX_CLUSTERS, (cId_t *)GenericApp_ClusterList,
//  554                             FALSE );
        ; Setup parameters for call to function NLME_GetShortAddr
        LCALL   ??NLME_GetShortAddr?relay
        MOV     ?V0 + 0,R2
        MOV     ?V0 + 1,R3
        MOV     R4,?V0 + 0
        MOV     R5,?V0 + 1
        ; Setup parameters for call to function ZDP_EndDeviceBindReq
        MOV     ?V0 + 0,#0x0
        MOV     R0,#?V0 + 0
        LCALL   ?PUSH_XSTACK_I_ONE
        CFI CFA_XSP16 add(XSP16, 20)
        MOV     ?V0 + 0,#(GenericApp_ClusterList & 0xff)
        MOV     ?V0 + 1,#((GenericApp_ClusterList >> 8) & 0xff)
        MOV     R0,#?V0 + 0
        LCALL   ?PUSH_XSTACK_I_TWO
        CFI CFA_XSP16 add(XSP16, 22)
        MOV     ?V0 + 0,#0x1
        MOV     R0,#?V0 + 0
        LCALL   ?PUSH_XSTACK_I_ONE
        CFI CFA_XSP16 add(XSP16, 23)
        MOV     ?V0 + 0,#(GenericApp_ClusterList & 0xff)
        MOV     R0,#?V0 + 0
        LCALL   ?PUSH_XSTACK_I_TWO
        CFI CFA_XSP16 add(XSP16, 25)
        MOV     ?V0 + 0,#0x1
        MOV     R0,#?V0 + 0
        LCALL   ?PUSH_XSTACK_I_ONE
        CFI CFA_XSP16 add(XSP16, 26)
        MOV     ?V0 + 0,#0x4
        MOV     ?V0 + 1,#0xf
        MOV     R0,#?V0 + 0
        LCALL   ?PUSH_XSTACK_I_TWO
        CFI CFA_XSP16 add(XSP16, 28)
        MOV     DPTR,#GenericApp_epDesc
        MOVX    A,@DPTR
        MOV     R1,A
        MOV     A,#0x9
        LCALL   ?XSTACK_DISP0_8
        MOV     R2,DPL
        MOV     R3,DPH
        LCALL   ??ZDP_EndDeviceBindReq?relay
        MOV     A,#0x9
        LCALL   ?DEALLOC_XSTACK8
        CFI CFA_XSP16 add(XSP16, 19)
//  555     }
//  556     
//  557     //导航按键像下按
//  558     if ( keys & HAL_KEY_SW_3 )
??GenericApp_HandleKeys_2:
        MOV     A,R6
        MOV     C,0xE0 /* A   */.4
        JNC     ??GenericApp_HandleKeys_3
//  559     {
//  560 #if _m_debug
//  561       
//  562       char buf[65]="";
//  563       uint16 len = 0;
//  564        HalUARTWrite(0,"1111222233334444\n",strlen("1111222233334444\n"));
        ; Setup parameters for call to function HalUARTWrite
        MOV     R4,#0x11
        MOV     R5,#0x0
        MOV     R2,#(`?<Constant "1111222233334444\\n">` & 0xff)
        MOV     R3,#((`?<Constant "1111222233334444\\n">` >> 8) & 0xff)
        MOV     R1,#0x0
        LCALL   ??HalUARTWrite?relay
//  565        HalUARTWrite(0,"9999222233\r\n",strlen("9999222233\r\n"));
        ; Setup parameters for call to function HalUARTWrite
        MOV     R4,#0xc
        MOV     R5,#0x0
        MOV     R2,#(`?<Constant "9999222233\\r\\n">` & 0xff)
        MOV     R3,#((`?<Constant "9999222233\\r\\n">` >> 8) & 0xff)
        MOV     R1,#0x0
        LCALL   ??HalUARTWrite?relay
//  566       /*
//  567       HalUARTWrite(0,"#1111#",strlen("1111#\r\n"));
//  568       HalUARTWrite(0,"2222#",strlen("2222#"));
//  569       HalUARTWrite(0,"3333#",strlen("3333#\r\n"));
//  570       buf[64] = '\0';
//  571       HalUARTWrite(0,"4444#",strlen("4444#\r\n"));
//  572       */
//  573       //HalUARTWrite(0,"hal sw3 pressed!\r\n",strlen("hal sw1 pressed!\r\n"));
//  574       //uart0_puts("[[hal sw3 pressed\n",strlen("[[hal sw3 pressed\n")+1);
//  575       //len = uart0_getString (buf,64);
//  576       //HalUARTRead(0,buf, 64);
//  577       //buf[65] = '\0';
//  578       //HalUARTWrite(0,buf,strlen(buf));
//  579       
//  580       //启动任务
//  581       //osal_start_timerEx (data_trans_TaskID, 5, 250); //250ms后执行data_trans_process
//  582 #endif
//  583     }
//  584 
//  585     //导航按键向左按
//  586     if ( keys & HAL_KEY_SW_4 )
??GenericApp_HandleKeys_3:
        MOV     A,R6
        MOV     C,0xE0 /* A   */.3
        JNC     ??GenericApp_HandleKeys_0
//  587     {
//  588 #if _m_debug
//  589        HalUARTWrite(0,"hal sw4 pressed!\r\n",strlen("hal sw4 pressed!\r\n"));
        ; Setup parameters for call to function HalUARTWrite
        MOV     R4,#0x12
        MOV     R5,#0x0
        MOV     R2,#(`?<Constant "hal sw4 pressed!\\r\\n">` & 0xff)
        MOV     R3,#((`?<Constant "hal sw4 pressed!\\r\\n">` >> 8) & 0xff)
        LCALL   ?Subroutine17 & 0xFFFF
//  590      // uart0_puts("hal sw4 pressed!\n\r\n",strlen("hal sw4 pressed!\n\r\n"));
//  591 #endif
//  592       HalLedSet ( HAL_LED_4, HAL_LED_MODE_OFF );
//  593 
//  594       // Initiate a Match Description Request (Service Discovery)
//  595       dstAddr.addrMode = AddrBroadcast;
??CrossCallReturnLabel_37:
        LCALL   ?XSTACK_DISP0_8
        MOV     A,#0xf
        MOVX    @DPTR,A
//  596       dstAddr.addr.shortAddr = NWK_BROADCAST_SHORTADDR;
        MOV     DPL,?XSP + 0
        MOV     DPH,?XSP + 1
        MOV     A,#-0x1
        MOVX    @DPTR,A
        INC     DPTR
        MOVX    @DPTR,A
//  597       ZDP_MatchDescReq( &dstAddr, NWK_BROADCAST_SHORTADDR,
//  598                         GENERICAPP_PROFID,
//  599                         GENERICAPP_MAX_CLUSTERS, (cId_t *)GenericApp_ClusterList,
//  600                         GENERICAPP_MAX_CLUSTERS, (cId_t *)GenericApp_ClusterList,
//  601                         FALSE );
        ; Setup parameters for call to function ZDP_MatchDescReq
        MOV     ?V0 + 0,#0x0
        MOV     R0,#?V0 + 0
        LCALL   ?PUSH_XSTACK_I_ONE
        CFI CFA_XSP16 add(XSP16, 20)
        MOV     ?V0 + 0,#(GenericApp_ClusterList & 0xff)
        MOV     ?V0 + 1,#((GenericApp_ClusterList >> 8) & 0xff)
        MOV     R0,#?V0 + 0
        LCALL   ?PUSH_XSTACK_I_TWO
        CFI CFA_XSP16 add(XSP16, 22)
        MOV     ?V0 + 0,#0x1
        MOV     R0,#?V0 + 0
        LCALL   ?PUSH_XSTACK_I_ONE
        CFI CFA_XSP16 add(XSP16, 23)
        MOV     ?V0 + 0,#(GenericApp_ClusterList & 0xff)
        MOV     R0,#?V0 + 0
        LCALL   ?PUSH_XSTACK_I_TWO
        CFI CFA_XSP16 add(XSP16, 25)
        MOV     ?V0 + 0,#0x4
        MOV     ?V0 + 1,#0xf
        MOV     R0,#?V0 + 0
        LCALL   ?PUSH_XSTACK_I_TWO
        CFI CFA_XSP16 add(XSP16, 27)
        MOV     R1,#0x1
        MOV     R4,#-0x1
        MOV     R5,#-0x1
        MOV     A,#0x8
        LCALL   ?XSTACK_DISP0_8
        MOV     R2,DPL
        MOV     R3,DPH
        LCALL   ??ZDP_MatchDescReq?relay
        MOV     A,#0x8
        LCALL   ?DEALLOC_XSTACK8
        CFI CFA_XSP16 add(XSP16, 19)
//  602     }
//  603   }
//  604 }
??GenericApp_HandleKeys_0:
        MOV     A,#0x9
        CFI EndBlock cfiBlock5
        REQUIRE ?Subroutine41
        ; // Fall through to label ?Subroutine41

        RSEG BANKED_CODE:CODE:NOROOT(0)
?Subroutine41:
        CFI Block cfiBlock6 Using cfiCommon0
        CFI NoFunction
        CFI CFA_SP SP+0
        CFI CFA_XSP16 add(XSP16, 19)
        CFI VB load(1, XDATA, add(CFA_XSP16, literal(-9)))
        CFI DPL0 load(1, XDATA, add(CFA_XSP16, literal(-2)))
        CFI DPH0 load(1, XDATA, add(CFA_XSP16, literal(-1)))
        CFI R6 load(1, XDATA, add(CFA_XSP16, literal(-10)))
        CFI R7 load(1, XDATA, add(CFA_XSP16, literal(-6)))
        CFI V0 load(1, XDATA, add(CFA_XSP16, literal(-8)))
        CFI V1 load(1, XDATA, add(CFA_XSP16, literal(-7)))
        CFI ?BRET_EXT load(1, XDATA, add(CFA_XSP16, literal(-3)))
        CFI ?RET_HIGH load(1, XDATA, add(CFA_XSP16, literal(-4)))
        CFI ?RET_LOW load(1, XDATA, add(CFA_XSP16, literal(-5)))
        CFI Invalid
        LCALL   ?DEALLOC_XSTACK8
        CFI CFA_XSP16 add(XSP16, 10)
        CFI Valid
??Subroutine41_0:
        MOV     R7,#0x2
        LJMP    ?BANKED_LEAVE_XDATA
        CFI EndBlock cfiBlock6

        RSEG BANKED_CODE:CODE:NOROOT(0)
?Subroutine17:
        CFI Block cfiCond7 Using cfiCommon0
        CFI NoFunction
        CFI Conditional ??CrossCallReturnLabel_36
        CFI R6 load(1, XDATA, add(CFA_XSP16, literal(-10)))
        CFI VB load(1, XDATA, add(CFA_XSP16, literal(-9)))
        CFI V0 load(1, XDATA, add(CFA_XSP16, literal(-8)))
        CFI V1 load(1, XDATA, add(CFA_XSP16, literal(-7)))
        CFI R7 load(1, XDATA, add(CFA_XSP16, literal(-6)))
        CFI ?RET_LOW load(1, XDATA, add(CFA_XSP16, literal(-5)))
        CFI ?RET_HIGH load(1, XDATA, add(CFA_XSP16, literal(-4)))
        CFI ?BRET_EXT load(1, XDATA, add(CFA_XSP16, literal(-3)))
        CFI DPL0 load(1, XDATA, add(CFA_XSP16, literal(-2)))
        CFI DPH0 load(1, XDATA, add(CFA_XSP16, literal(-1)))
        CFI CFA_SP SP+0
        CFI CFA_XSP16 add(XSP16, 19)
        CFI Block cfiCond8 Using cfiCommon0
        CFI (cfiCond8) NoFunction
        CFI (cfiCond8) Conditional ??CrossCallReturnLabel_37
        CFI (cfiCond8) R6 load(1, XDATA, add(CFA_XSP16, literal(-10)))
        CFI (cfiCond8) VB load(1, XDATA, add(CFA_XSP16, literal(-9)))
        CFI (cfiCond8) V0 load(1, XDATA, add(CFA_XSP16, literal(-8)))
        CFI (cfiCond8) V1 load(1, XDATA, add(CFA_XSP16, literal(-7)))
        CFI (cfiCond8) R7 load(1, XDATA, add(CFA_XSP16, literal(-6)))
        CFI (cfiCond8) ?RET_LOW load(1, XDATA, add(CFA_XSP16, literal(-5)))
        CFI (cfiCond8) ?RET_HIGH load(1, XDATA, add(CFA_XSP16, literal(-4)))
        CFI (cfiCond8) ?BRET_EXT load(1, XDATA, add(CFA_XSP16, literal(-3)))
        CFI (cfiCond8) DPL0 load(1, XDATA, add(CFA_XSP16, literal(-2)))
        CFI (cfiCond8) DPH0 load(1, XDATA, add(CFA_XSP16, literal(-1)))
        CFI (cfiCond8) CFA_SP SP+0
        CFI (cfiCond8) CFA_XSP16 add(XSP16, 19)
        CFI Block cfiPicker9 Using cfiCommon1
        CFI (cfiPicker9) NoFunction
        CFI (cfiPicker9) Picker
        MOV     R1,#0x0
        LCALL   ??HalUARTWrite?relay
        ; Setup parameters for call to function HalLedSet
        ; Setup parameters for call to function HalLedSet
        MOV     R2,#0x0
        MOV     R1,#0x8
        LCALL   ??HalLedSet?relay
        MOV     A,#0x8
        RET
        CFI EndBlock cfiCond7
        CFI EndBlock cfiCond8
        CFI EndBlock cfiPicker9
//  605 
//  606 /*********************************************************************
//  607  * LOCAL FUNCTIONS
//  608  */
//  609 
//  610 /*********************************************************************
//  611  * @fn      GenericApp_MessageMSGCB
//  612  *
//  613  * @brief   Data message processor callback.  This function processes
//  614  *          any incoming data - probably from other devices.  So, based
//  615  *          on cluster ID, perform the intended action.
//  616  *
//  617  * @param   none
//  618  *
//  619  * @return  none
//  620  */
//  621 /*********here i add**************/
//  622 typedef struct{
//  623   char temp[5];
//  624   char humidity[5];
//  625   char smoke[5];
//  626   char co[5];
//  627   char ch4[5];
//  628   char address[5];
//  629 }info;
//  630 

        RSEG XDATA_Z:XDATA:NOROOT(0)
//  631 info point_info[10];
point_info:
        DS 300
        REQUIRE __INIT_XDATA_Z
//  632 

        RSEG XDATA_Z:XDATA:NOROOT(0)
//  633 int point_num;
point_num:
        DS 2
        REQUIRE __INIT_XDATA_Z
//  634 

        RSEG BANKED_CODE:CODE:NOROOT(0)
//  635 void GenericApp_MessageMSGCB( afIncomingMSGPacket_t *pkt )
GenericApp_MessageMSGCB:
        CFI Block cfiBlock10 Using cfiCommon0
        CFI Function GenericApp_MessageMSGCB
//  636 {
        FUNCALL GenericApp_MessageMSGCB, strcmp
        LOCFRAME ISTACK, 0, STACK
        LOCFRAME PSTACK, 0, STACK
        LOCFRAME XSTACK, 16, STACK
        LOCFRAME IOVERLAY, 0, STATIC
        LOCFRAME DOVERLAY, 0, STATIC
        ARGFRAME ISTACK, 0, STACK
        ARGFRAME PSTACK, 0, STACK
        ARGFRAME XSTACK, 16, STACK
        ARGFRAME IOVERLAY, 0, STATIC
        ARGFRAME DOVERLAY, 0, STATIC
        MOV     A,#-0xc
        LCALL   ?BANKED_ENTER_XDATA
        CFI DPH0 load(1, XDATA, add(CFA_XSP16, literal(-1)))
        CFI DPL0 load(1, XDATA, add(CFA_XSP16, literal(-2)))
        CFI ?BRET_EXT load(1, XDATA, add(CFA_XSP16, literal(-3)))
        CFI ?RET_HIGH load(1, XDATA, add(CFA_XSP16, literal(-4)))
        CFI ?RET_LOW load(1, XDATA, add(CFA_XSP16, literal(-5)))
        CFI R7 load(1, XDATA, add(CFA_XSP16, literal(-6)))
        CFI V3 load(1, XDATA, add(CFA_XSP16, literal(-7)))
        CFI V2 load(1, XDATA, add(CFA_XSP16, literal(-8)))
        CFI V1 load(1, XDATA, add(CFA_XSP16, literal(-9)))
        CFI V0 load(1, XDATA, add(CFA_XSP16, literal(-10)))
        CFI VB load(1, XDATA, add(CFA_XSP16, literal(-11)))
        CFI R6 load(1, XDATA, add(CFA_XSP16, literal(-12)))
        CFI CFA_SP SP+0
        CFI CFA_XSP16 add(XSP16, 12)
        ; Saved register size: 12
        ; Auto size: 4
        MOV     A,#-0x4
        LCALL   ?ALLOC_XSTACK8
        CFI CFA_XSP16 add(XSP16, 16)
        MOV     ?V0 + 0,R2
        MOV     ?V0 + 1,R3
//  637   int i;
//  638   char srcadd[4];
//  639   switch ( pkt->clusterId )
        MOV     DPL,R2
        MOV     DPH,R3
        INC     DPTR
        INC     DPTR
        INC     DPTR
        INC     DPTR
        MOVX    A,@DPTR
        MOV     ?V0 + 2,A
        INC     DPTR
        MOVX    A,@DPTR
        MOV     ?V0 + 3,A
        MOV     R0,#?V0 + 2
        LCALL   ?US_SWITCH_DENSE
`?<Jumptable for GenericApp_MessageMSGCB>_0`:
        DATA
        DW        1
        DB        0
        DW        ??GenericApp_MessageMSGCB_0
        DW        ??GenericApp_MessageMSGCB_1
        CODE
//  640   {
//  641     case GENERICAPP_CLUSTERID:
//  642       // "the" message
//  643 /*
//  644 #if defined( LCD_SUPPORTED )
//  645       HalLcdWriteScreen( (char*)pkt->cmd.Data, "rcvd" );
//  646 #elif defined( WIN32 )
//  647       WPRINTSTR( pkt->cmd.Data );
//  648 #endif
//  649       */
//  650       //len = strlen((char *)pkt->cmd.Data);
//  651       //uart0_puts((char*)pkt->cmd.Data, 37);
//  652       if(pkt->cmd.Data[0] == 's')
??GenericApp_MessageMSGCB_1:
        MOV     A,R2
        ADD     A,#0x15
        LCALL   ?Subroutine15 & 0xFFFF
??CrossCallReturnLabel_33:
        XRL     A,#0x73
        JZ      $+5
        LJMP    ??GenericApp_MessageMSGCB_0 & 0xFFFF
//  653       {
//  654         srcadd[0] = pkt->cmd.Data[1];
        MOV     A,R2
        ADD     A,#0x15
        MOV     R4,A
        MOV     A,R3
        ADDC    A,#0x0
        MOV     R5,A
        MOV     DPL,R4
        MOV     DPH,R5
        LCALL   ??Subroutine33_0 & 0xFFFF
??CrossCallReturnLabel_92:
        MOVX    A,@DPTR
        MOV     DPL,?XSP + 0
        MOV     DPH,?XSP + 1
        LCALL   ?Subroutine12 & 0xFFFF
//  655         srcadd[1] = pkt->cmd.Data[2];
??CrossCallReturnLabel_24:
        LCALL   ?Subroutine33 & 0xFFFF
??CrossCallReturnLabel_93:
        INC     DPTR
        MOVX    A,@DPTR
        PUSH    A
        CFI CFA_SP SP+-1
        MOV     A,#0x1
        LCALL   ?XSTACK_DISP0_8
        POP     A
        CFI CFA_SP SP+0
        LCALL   ?Subroutine10 & 0xFFFF
//  656         srcadd[2] = pkt->cmd.Data[3];
??CrossCallReturnLabel_20:
        MOVX    A,@DPTR
        PUSH    A
        CFI CFA_SP SP+-1
        MOV     A,#0x2
        LCALL   ?XSTACK_DISP0_8
        POP     A
        CFI CFA_SP SP+0
        LCALL   ?Subroutine10 & 0xFFFF
//  657         srcadd[3] = pkt->cmd.Data[4];
??CrossCallReturnLabel_21:
        INC     DPTR
        MOVX    A,@DPTR
        PUSH    A
        CFI CFA_SP SP+-1
        MOV     A,#0x3
        LCALL   ?XSTACK_DISP0_8
        POP     A
        CFI CFA_SP SP+0
        MOVX    @DPTR,A
//  658         //uart0_puts((char *)srcadd,4);
//  659         for(i=0;i<point_num;i++)
        MOV     R6,#0x0
        MOV     R7,#0x0
        SJMP    ??CrossCallReturnLabel_46
??GenericApp_MessageMSGCB_2:
        LCALL   ?Subroutine23 & 0xFFFF
??CrossCallReturnLabel_46:
        LCALL   ?Subroutine13 & 0xFFFF
??CrossCallReturnLabel_27:
        JC      $+5
        LJMP    ??GenericApp_MessageMSGCB_3 & 0xFFFF
//  660         {
//  661           //uart0_putc(i+'0');
//  662           if(strcmp(srcadd,point_info[i].address) == 0)
        ; Setup parameters for call to function strcmp
        LCALL   ?Subroutine21 & 0xFFFF
??CrossCallReturnLabel_42:
        JNZ     ??GenericApp_MessageMSGCB_4
        MOV     A,R3
??GenericApp_MessageMSGCB_4:
        JNZ     ??GenericApp_MessageMSGCB_2
//  663           {
//  664              point_info[i].temp[0] = pkt->cmd.Data[6];
        MOV     A,R6
        MOV     R0,A
        MOV     A,R7
        LCALL   ?Subroutine22 & 0xFFFF
??CrossCallReturnLabel_44:
        MOV     R2,A
        MOV     A,?V0 + 1
        ADDC    A,#0x0
        MOV     R3,A
        MOV     A,R2
        MOV     R4,A
        MOV     A,R3
        MOV     R5,A
        LCALL   ?Subroutine0 & 0xFFFF
//  665              point_info[i].temp[1] = pkt->cmd.Data[7];
//  666              point_info[i].temp[2] = pkt->cmd.Data[8];
//  667              point_info[i].temp[3] = pkt->cmd.Data[9];
//  668              point_info[i].temp[4] = '\0';
//  669              point_info[i].humidity[0] = pkt->cmd.Data[12];
//  670              point_info[i].humidity[1] = pkt->cmd.Data[13];
//  671              point_info[i].humidity[2] = pkt->cmd.Data[14];
//  672              point_info[i].humidity[3] = pkt->cmd.Data[15];
//  673              point_info[i].humidity[4] = '\0';
//  674              point_info[i].smoke[0] = pkt->cmd.Data[18];
//  675              point_info[i].smoke[1] = pkt->cmd.Data[19];
??CrossCallReturnLabel_0:
        PUSH    A
        CFI CFA_SP SP+-1
        LCALL   ?Subroutine19 & 0xFFFF
??CrossCallReturnLabel_105:
        POP     A
        CFI CFA_SP SP+0
        LCALL   ?Subroutine3 & 0xFFFF
//  676              point_info[i].smoke[2] = pkt->cmd.Data[20];
??CrossCallReturnLabel_6:
        PUSH    A
        CFI CFA_SP SP+-1
        LCALL   ?Subroutine18 & 0xFFFF
??CrossCallReturnLabel_103:
        POP     A
        CFI CFA_SP SP+0
        LCALL   ?Subroutine4 & 0xFFFF
//  677              point_info[i].smoke[3] = pkt->cmd.Data[21];
??CrossCallReturnLabel_8:
        PUSH    A
        CFI CFA_SP SP+-1
        MOV     A,R0
        ADD     A,#0xd
        LCALL   ??Subroutine19_0 & 0xFFFF
??CrossCallReturnLabel_106:
        POP     A
        CFI CFA_SP SP+0
        LCALL   ?Subroutine1 & 0xFFFF
//  678              point_info[i].smoke[4] = '\0';
//  679              point_info[i].co[0] = pkt->cmd.Data[24];
??CrossCallReturnLabel_2:
        PUSH    A
        CFI CFA_SP SP+-1
        MOV     A,R0
        ADD     A,#0xf
        LCALL   ??Subroutine19_0 & 0xFFFF
??CrossCallReturnLabel_107:
        POP     A
        CFI CFA_SP SP+0
        LCALL   ?Subroutine5 & 0xFFFF
//  680              point_info[i].co[1] = pkt->cmd.Data[25];
??CrossCallReturnLabel_10:
        PUSH    A
        CFI CFA_SP SP+-1
        MOV     A,R0
        ADD     A,#0x10
        LCALL   ??Subroutine19_0 & 0xFFFF
??CrossCallReturnLabel_108:
        POP     A
        CFI CFA_SP SP+0
        LCALL   ?Subroutine6 & 0xFFFF
//  681              point_info[i].co[2] = pkt->cmd.Data[26];
??CrossCallReturnLabel_12:
        PUSH    A
        CFI CFA_SP SP+-1
        MOV     A,R0
        ADD     A,#0x11
        LCALL   ??Subroutine19_0 & 0xFFFF
??CrossCallReturnLabel_109:
        POP     A
        CFI CFA_SP SP+0
        LCALL   ?Subroutine7 & 0xFFFF
//  682              point_info[i].co[3] = pkt->cmd.Data[27];
??CrossCallReturnLabel_14:
        PUSH    A
        CFI CFA_SP SP+-1
        MOV     A,R0
        ADD     A,#0x12
        LCALL   ??Subroutine19_0 & 0xFFFF
??CrossCallReturnLabel_110:
        POP     A
        CFI CFA_SP SP+0
        LCALL   ?Subroutine2 & 0xFFFF
//  683              point_info[i].co[4] = '\0';
//  684              point_info[i].ch4[0] = pkt->cmd.Data[30];
??CrossCallReturnLabel_4:
        PUSH    A
        CFI CFA_SP SP+-1
        MOV     A,R0
        ADD     A,#0x14
        LCALL   ??Subroutine19_0 & 0xFFFF
??CrossCallReturnLabel_111:
        POP     A
        CFI CFA_SP SP+0
        LCALL   ?Subroutine8 & 0xFFFF
//  685              point_info[i].ch4[1] = pkt->cmd.Data[31];
??CrossCallReturnLabel_16:
        PUSH    A
        CFI CFA_SP SP+-1
        MOV     A,R0
        ADD     A,#0x15
        LCALL   ??Subroutine19_0 & 0xFFFF
??CrossCallReturnLabel_112:
        POP     A
        CFI CFA_SP SP+0
        LCALL   ?Subroutine9 & 0xFFFF
//  686              point_info[i].ch4[2] = pkt->cmd.Data[32];
??CrossCallReturnLabel_18:
        PUSH    A
        CFI CFA_SP SP+-1
        MOV     A,R0
        ADD     A,#0x16
        LCALL   ??Subroutine19_0 & 0xFFFF
??CrossCallReturnLabel_113:
        POP     A
        CFI CFA_SP SP+0
        MOVX    @DPTR,A
//  687              point_info[i].ch4[3] = pkt->cmd.Data[33];
        MOV     A,R0
        ADD     A,#0x17
        MOV     R0,A
        MOV     A,R1
        ADDC    A,#0x0
        MOV     R1,A
        MOV     DPL,R4
        MOV     DPH,R5
        MOVX    A,@DPTR
        LCALL   ?Subroutine16 & 0xFFFF
??CrossCallReturnLabel_34:
        MOV     DPL,R0
        MOV     DPH,R1
        MOVX    @DPTR,A
//  688              point_info[i].ch4[3] = '\0';
        CLR     A
        MOVX    @DPTR,A
//  689              break;
//  690           }
//  691         }
//  692         if(i == point_num)
??GenericApp_MessageMSGCB_3:
        MOV     DPTR,#point_num
        MOVX    A,@DPTR
        XRL     A,R6
        JNZ     ??GenericApp_MessageMSGCB_5
        INC     DPTR
        MOVX    A,@DPTR
        XRL     A,R7
??GenericApp_MessageMSGCB_5:
        JZ      $+5
        LJMP    ??GenericApp_MessageMSGCB_0 & 0xFFFF
//  693         {
//  694           //uart0_putc(point_num+'0');
//  695           point_info[point_num].address[0] = pkt->cmd.Data[1];
        MOV     DPTR,#point_num
        MOVX    A,@DPTR
        MOV     R0,A
        INC     DPTR
        MOVX    A,@DPTR
        LCALL   ?Subroutine22 & 0xFFFF
??CrossCallReturnLabel_45:
        MOV     R4,A
        MOV     A,?V0 + 1
        ADDC    A,#0x0
        MOV     R5,A
        LCALL   ?Subroutine32 & 0xFFFF
??CrossCallReturnLabel_90:
        MOVX    A,@DPTR
        PUSH    A
        CFI CFA_SP SP+-1
        MOV     A,R0
        ADD     A,#0x19
        LCALL   ??Subroutine19_0 & 0xFFFF
??CrossCallReturnLabel_114:
        POP     A
        CFI CFA_SP SP+0
        LCALL   ?Subroutine12 & 0xFFFF
//  696           point_info[point_num].address[1] = pkt->cmd.Data[2];
??CrossCallReturnLabel_25:
        MOV     R2,A
        INC     DPTR
        MOVX    A,@DPTR
        MOV     DPH,A
        MOV     DPL,R2
        INC     DPTR
        INC     DPTR
        MOVX    A,@DPTR
        PUSH    A
        CFI CFA_SP SP+-1
        MOV     A,R0
        ADD     A,#0x1a
        LCALL   ??Subroutine19_0 & 0xFFFF
??CrossCallReturnLabel_115:
        POP     A
        CFI CFA_SP SP+0
        LCALL   ?Subroutine11 & 0xFFFF
//  697           point_info[point_num].address[2] = pkt->cmd.Data[3];
??CrossCallReturnLabel_22:
        MOVX    A,@DPTR
        PUSH    A
        CFI CFA_SP SP+-1
        MOV     A,R0
        ADD     A,#0x1b
        LCALL   ??Subroutine19_0 & 0xFFFF
??CrossCallReturnLabel_116:
        POP     A
        CFI CFA_SP SP+0
        LCALL   ?Subroutine11 & 0xFFFF
//  698           point_info[point_num].address[3] = pkt->cmd.Data[4];
??CrossCallReturnLabel_23:
        INC     DPTR
        MOVX    A,@DPTR
        PUSH    A
        CFI CFA_SP SP+-1
        MOV     A,R0
        ADD     A,#0x1c
        LCALL   ??Subroutine19_0 & 0xFFFF
??CrossCallReturnLabel_117:
        POP     A
        CFI CFA_SP SP+0
        MOVX    @DPTR,A
//  699           point_info[point_num].address[4] = '\0';
        MOV     A,R0
        ADD     A,#0x1d
        LCALL   ??Subroutine19_0 & 0xFFFF
??CrossCallReturnLabel_118:
        CLR     A
        MOVX    @DPTR,A
//  700           point_info[i].temp[0] = pkt->cmd.Data[6];
        MOV     A,R6
        MOV     B,#0x1e
        MUL     AB
        MOV     R6,A
        MOV     R2,B
        MOV     B,#0x1e
        MOV     A,R7
        MUL     AB
        ADD     A,R2
        MOV     R7,A
        MOV     A,R6
        ADD     A,#(point_info & 0xff)
        MOV     R0,A
        MOV     A,R7
        ADDC    A,#((point_info >> 8) & 0xff)
        MOV     R1,A
        LCALL   ?Subroutine0 & 0xFFFF
//  701           point_info[i].temp[1] = pkt->cmd.Data[7];
//  702           point_info[i].temp[2] = pkt->cmd.Data[8];
//  703           point_info[i].temp[3] = pkt->cmd.Data[9];
//  704           point_info[i].temp[4] = '\0';
//  705           point_info[i].humidity[0] = pkt->cmd.Data[12];
//  706              point_info[i].humidity[1] = pkt->cmd.Data[13];
//  707              point_info[i].humidity[2] = pkt->cmd.Data[14];
//  708              point_info[i].humidity[3] = pkt->cmd.Data[15];
//  709              point_info[i].humidity[4] = '\0';
//  710              point_info[i].smoke[0] = pkt->cmd.Data[18];
//  711              point_info[i].smoke[1] = pkt->cmd.Data[19];
??CrossCallReturnLabel_1:
        PUSH    A
        CFI CFA_SP SP+-1
        LCALL   ?Subroutine19 & 0xFFFF
??CrossCallReturnLabel_119:
        POP     A
        CFI CFA_SP SP+0
        LCALL   ?Subroutine3 & 0xFFFF
//  712              point_info[i].smoke[2] = pkt->cmd.Data[20];
??CrossCallReturnLabel_7:
        PUSH    A
        CFI CFA_SP SP+-1
        LCALL   ?Subroutine18 & 0xFFFF
??CrossCallReturnLabel_104:
        POP     A
        CFI CFA_SP SP+0
        LCALL   ?Subroutine4 & 0xFFFF
//  713              point_info[i].smoke[3] = pkt->cmd.Data[21];
??CrossCallReturnLabel_9:
        PUSH    A
        CFI CFA_SP SP+-1
        MOV     A,R0
        ADD     A,#0xd
        LCALL   ??Subroutine19_0 & 0xFFFF
??CrossCallReturnLabel_120:
        POP     A
        CFI CFA_SP SP+0
        LCALL   ?Subroutine1 & 0xFFFF
//  714              point_info[i].smoke[4] = '\0';
//  715              point_info[i].co[0] = pkt->cmd.Data[24];
??CrossCallReturnLabel_3:
        PUSH    A
        CFI CFA_SP SP+-1
        MOV     A,R0
        ADD     A,#0xf
        LCALL   ??Subroutine19_0 & 0xFFFF
??CrossCallReturnLabel_121:
        POP     A
        CFI CFA_SP SP+0
        LCALL   ?Subroutine5 & 0xFFFF
//  716              point_info[i].co[1] = pkt->cmd.Data[25];
??CrossCallReturnLabel_11:
        PUSH    A
        CFI CFA_SP SP+-1
        MOV     A,R0
        ADD     A,#0x10
        LCALL   ??Subroutine19_0 & 0xFFFF
??CrossCallReturnLabel_122:
        POP     A
        CFI CFA_SP SP+0
        LCALL   ?Subroutine6 & 0xFFFF
//  717              point_info[i].co[2] = pkt->cmd.Data[26];
??CrossCallReturnLabel_13:
        PUSH    A
        CFI CFA_SP SP+-1
        MOV     A,R0
        ADD     A,#0x11
        LCALL   ??Subroutine19_0 & 0xFFFF
??CrossCallReturnLabel_123:
        POP     A
        CFI CFA_SP SP+0
        LCALL   ?Subroutine7 & 0xFFFF
//  718              point_info[i].co[3] = pkt->cmd.Data[27];
??CrossCallReturnLabel_15:
        PUSH    A
        CFI CFA_SP SP+-1
        MOV     A,R0
        ADD     A,#0x12
        LCALL   ??Subroutine19_0 & 0xFFFF
??CrossCallReturnLabel_124:
        POP     A
        CFI CFA_SP SP+0
        LCALL   ?Subroutine2 & 0xFFFF
//  719              point_info[i].co[4] = '\0';
//  720              point_info[i].ch4[0] = pkt->cmd.Data[30];
??CrossCallReturnLabel_5:
        PUSH    A
        CFI CFA_SP SP+-1
        MOV     A,R0
        ADD     A,#0x14
        LCALL   ??Subroutine19_0 & 0xFFFF
??CrossCallReturnLabel_125:
        POP     A
        CFI CFA_SP SP+0
        LCALL   ?Subroutine8 & 0xFFFF
//  721              point_info[i].ch4[1] = pkt->cmd.Data[31];
??CrossCallReturnLabel_17:
        PUSH    A
        CFI CFA_SP SP+-1
        MOV     A,R0
        ADD     A,#0x15
        LCALL   ??Subroutine19_0 & 0xFFFF
??CrossCallReturnLabel_126:
        POP     A
        CFI CFA_SP SP+0
        LCALL   ?Subroutine9 & 0xFFFF
//  722              point_info[i].ch4[2] = pkt->cmd.Data[32];
??CrossCallReturnLabel_19:
        PUSH    A
        CFI CFA_SP SP+-1
        MOV     A,R0
        ADD     A,#0x16
        LCALL   ??Subroutine19_0 & 0xFFFF
??CrossCallReturnLabel_127:
        POP     A
        CFI CFA_SP SP+0
        LCALL   ?Subroutine12 & 0xFFFF
//  723              point_info[i].ch4[3] = pkt->cmd.Data[33];
??CrossCallReturnLabel_26:
        LCALL   ?Subroutine16 & 0xFFFF
??CrossCallReturnLabel_35:
        PUSH    A
        CFI CFA_SP SP+-1
        MOV     A,R0
        ADD     A,#0x17
        LCALL   ??Subroutine19_0 & 0xFFFF
??CrossCallReturnLabel_128:
        POP     A
        CFI CFA_SP SP+0
        MOVX    @DPTR,A
//  724              point_info[i].ch4[4] = '\0';
        MOV     A,R0
        ADD     A,#0x18
        LCALL   ??Subroutine19_0 & 0xFFFF
??CrossCallReturnLabel_129:
        CLR     A
        MOVX    @DPTR,A
//  725              point_num++;
        MOV     DPTR,#point_num
        MOVX    A,@DPTR
        ADD     A,#0x1
        MOVX    @DPTR,A
        INC     DPTR
        MOVX    A,@DPTR
        ADDC    A,#0x0
        MOVX    @DPTR,A
//  726         }
//  727       }
//  728       else
//  729       {
//  730         //uart0_puts(, 31);
//  731       }
//  732       break;
//  733   }
//  734 }
??GenericApp_MessageMSGCB_0:
        MOV     A,#0x4
        LJMP    ?Subroutine40 & 0xFFFF
        CFI EndBlock cfiBlock10

        RSEG BANKED_CODE:CODE:NOROOT(0)
?Subroutine22:
        CFI Block cfiCond11 Using cfiCommon0
        CFI NoFunction
        CFI Conditional ??CrossCallReturnLabel_44
        CFI R6 load(1, XDATA, add(CFA_XSP16, literal(-12)))
        CFI VB load(1, XDATA, add(CFA_XSP16, literal(-11)))
        CFI V0 load(1, XDATA, add(CFA_XSP16, literal(-10)))
        CFI V1 load(1, XDATA, add(CFA_XSP16, literal(-9)))
        CFI V2 load(1, XDATA, add(CFA_XSP16, literal(-8)))
        CFI V3 load(1, XDATA, add(CFA_XSP16, literal(-7)))
        CFI R7 load(1, XDATA, add(CFA_XSP16, literal(-6)))
        CFI ?RET_LOW load(1, XDATA, add(CFA_XSP16, literal(-5)))
        CFI ?RET_HIGH load(1, XDATA, add(CFA_XSP16, literal(-4)))
        CFI ?BRET_EXT load(1, XDATA, add(CFA_XSP16, literal(-3)))
        CFI DPL0 load(1, XDATA, add(CFA_XSP16, literal(-2)))
        CFI DPH0 load(1, XDATA, add(CFA_XSP16, literal(-1)))
        CFI CFA_SP SP+0
        CFI CFA_XSP16 add(XSP16, 16)
        CFI Block cfiCond12 Using cfiCommon0
        CFI (cfiCond12) NoFunction
        CFI (cfiCond12) Conditional ??CrossCallReturnLabel_45
        CFI (cfiCond12) R6 load(1, XDATA, add(CFA_XSP16, literal(-12)))
        CFI (cfiCond12) VB load(1, XDATA, add(CFA_XSP16, literal(-11)))
        CFI (cfiCond12) V0 load(1, XDATA, add(CFA_XSP16, literal(-10)))
        CFI (cfiCond12) V1 load(1, XDATA, add(CFA_XSP16, literal(-9)))
        CFI (cfiCond12) V2 load(1, XDATA, add(CFA_XSP16, literal(-8)))
        CFI (cfiCond12) V3 load(1, XDATA, add(CFA_XSP16, literal(-7)))
        CFI (cfiCond12) R7 load(1, XDATA, add(CFA_XSP16, literal(-6)))
        CFI (cfiCond12) ?RET_LOW load(1, XDATA, add(CFA_XSP16, literal(-5)))
        CFI (cfiCond12) ?RET_HIGH load(1, XDATA, add(CFA_XSP16, literal(-4)))
        CFI (cfiCond12) ?BRET_EXT load(1, XDATA, add(CFA_XSP16, literal(-3)))
        CFI (cfiCond12) DPL0 load(1, XDATA, add(CFA_XSP16, literal(-2)))
        CFI (cfiCond12) DPH0 load(1, XDATA, add(CFA_XSP16, literal(-1)))
        CFI (cfiCond12) CFA_SP SP+0
        CFI (cfiCond12) CFA_XSP16 add(XSP16, 16)
        CFI Block cfiPicker13 Using cfiCommon1
        CFI (cfiPicker13) NoFunction
        CFI (cfiPicker13) Picker
        MOV     R1,A
        MOV     A,R0
        MOV     B,#0x1e
        MUL     AB
        MOV     R0,A
        MOV     R2,B
        MOV     B,#0x1e
        MOV     A,R1
        MUL     AB
        ADD     A,R2
        MOV     R1,A
        MOV     A,R0
        ADD     A,#(point_info & 0xff)
        MOV     R0,A
        MOV     A,R1
        ADDC    A,#((point_info >> 8) & 0xff)
        MOV     R1,A
        MOV     A,?V0 + 0
        ADD     A,#0x15
        RET
        CFI EndBlock cfiCond11
        CFI EndBlock cfiCond12
        CFI EndBlock cfiPicker13

        RSEG BANKED_CODE:CODE:NOROOT(0)
?Subroutine18:
        CFI Block cfiCond14 Using cfiCommon0
        CFI NoFunction
        CFI Conditional ??CrossCallReturnLabel_103
        CFI R6 load(1, XDATA, add(CFA_XSP16, literal(-12)))
        CFI VB load(1, XDATA, add(CFA_XSP16, literal(-11)))
        CFI V0 load(1, XDATA, add(CFA_XSP16, literal(-10)))
        CFI V1 load(1, XDATA, add(CFA_XSP16, literal(-9)))
        CFI V2 load(1, XDATA, add(CFA_XSP16, literal(-8)))
        CFI V3 load(1, XDATA, add(CFA_XSP16, literal(-7)))
        CFI R7 load(1, XDATA, add(CFA_XSP16, literal(-6)))
        CFI ?RET_LOW load(1, XDATA, add(CFA_XSP16, literal(-5)))
        CFI ?RET_HIGH load(1, XDATA, add(CFA_XSP16, literal(-4)))
        CFI ?BRET_EXT load(1, XDATA, add(CFA_XSP16, literal(-3)))
        CFI DPL0 load(1, XDATA, add(CFA_XSP16, literal(-2)))
        CFI DPH0 load(1, XDATA, add(CFA_XSP16, literal(-1)))
        CFI CFA_SP SP+-1
        CFI CFA_XSP16 add(XSP16, 16)
        CFI Block cfiCond15 Using cfiCommon0
        CFI (cfiCond15) NoFunction
        CFI (cfiCond15) Conditional ??CrossCallReturnLabel_104
        CFI (cfiCond15) R6 load(1, XDATA, add(CFA_XSP16, literal(-12)))
        CFI (cfiCond15) VB load(1, XDATA, add(CFA_XSP16, literal(-11)))
        CFI (cfiCond15) V0 load(1, XDATA, add(CFA_XSP16, literal(-10)))
        CFI (cfiCond15) V1 load(1, XDATA, add(CFA_XSP16, literal(-9)))
        CFI (cfiCond15) V2 load(1, XDATA, add(CFA_XSP16, literal(-8)))
        CFI (cfiCond15) V3 load(1, XDATA, add(CFA_XSP16, literal(-7)))
        CFI (cfiCond15) R7 load(1, XDATA, add(CFA_XSP16, literal(-6)))
        CFI (cfiCond15) ?RET_LOW load(1, XDATA, add(CFA_XSP16, literal(-5)))
        CFI (cfiCond15) ?RET_HIGH load(1, XDATA, add(CFA_XSP16, literal(-4)))
        CFI (cfiCond15) ?BRET_EXT load(1, XDATA, add(CFA_XSP16, literal(-3)))
        CFI (cfiCond15) DPL0 load(1, XDATA, add(CFA_XSP16, literal(-2)))
        CFI (cfiCond15) DPH0 load(1, XDATA, add(CFA_XSP16, literal(-1)))
        CFI (cfiCond15) CFA_SP SP+-1
        CFI (cfiCond15) CFA_XSP16 add(XSP16, 16)
        CFI Block cfiPicker16 Using cfiCommon1
        CFI (cfiPicker16) NoFunction
        CFI (cfiPicker16) Picker
        MOV     A,R0
        ADD     A,#0xc
        MOV     DPL,A
        MOV     A,R1
        CFI EndBlock cfiCond14
        CFI EndBlock cfiCond15
        CFI EndBlock cfiPicker16
        REQUIRE ?Subroutine42
        ; // Fall through to label ?Subroutine42

        RSEG BANKED_CODE:CODE:NOROOT(0)
?Subroutine42:
        CFI Block cfiCond17 Using cfiCommon0
        CFI NoFunction
        CFI Conditional ??CrossCallReturnLabel_103
        CFI R6 load(1, XDATA, add(CFA_XSP16, literal(-12)))
        CFI VB load(1, XDATA, add(CFA_XSP16, literal(-11)))
        CFI V0 load(1, XDATA, add(CFA_XSP16, literal(-10)))
        CFI V1 load(1, XDATA, add(CFA_XSP16, literal(-9)))
        CFI V2 load(1, XDATA, add(CFA_XSP16, literal(-8)))
        CFI V3 load(1, XDATA, add(CFA_XSP16, literal(-7)))
        CFI R7 load(1, XDATA, add(CFA_XSP16, literal(-6)))
        CFI ?RET_LOW load(1, XDATA, add(CFA_XSP16, literal(-5)))
        CFI ?RET_HIGH load(1, XDATA, add(CFA_XSP16, literal(-4)))
        CFI ?BRET_EXT load(1, XDATA, add(CFA_XSP16, literal(-3)))
        CFI DPL0 load(1, XDATA, add(CFA_XSP16, literal(-2)))
        CFI DPH0 load(1, XDATA, add(CFA_XSP16, literal(-1)))
        CFI CFA_SP SP+-1
        CFI CFA_XSP16 add(XSP16, 16)
        CFI Block cfiCond18 Using cfiCommon0
        CFI (cfiCond18) NoFunction
        CFI (cfiCond18) Conditional ??CrossCallReturnLabel_104
        CFI (cfiCond18) R6 load(1, XDATA, add(CFA_XSP16, literal(-12)))
        CFI (cfiCond18) VB load(1, XDATA, add(CFA_XSP16, literal(-11)))
        CFI (cfiCond18) V0 load(1, XDATA, add(CFA_XSP16, literal(-10)))
        CFI (cfiCond18) V1 load(1, XDATA, add(CFA_XSP16, literal(-9)))
        CFI (cfiCond18) V2 load(1, XDATA, add(CFA_XSP16, literal(-8)))
        CFI (cfiCond18) V3 load(1, XDATA, add(CFA_XSP16, literal(-7)))
        CFI (cfiCond18) R7 load(1, XDATA, add(CFA_XSP16, literal(-6)))
        CFI (cfiCond18) ?RET_LOW load(1, XDATA, add(CFA_XSP16, literal(-5)))
        CFI (cfiCond18) ?RET_HIGH load(1, XDATA, add(CFA_XSP16, literal(-4)))
        CFI (cfiCond18) ?BRET_EXT load(1, XDATA, add(CFA_XSP16, literal(-3)))
        CFI (cfiCond18) DPL0 load(1, XDATA, add(CFA_XSP16, literal(-2)))
        CFI (cfiCond18) DPH0 load(1, XDATA, add(CFA_XSP16, literal(-1)))
        CFI (cfiCond18) CFA_SP SP+-1
        CFI (cfiCond18) CFA_XSP16 add(XSP16, 16)
        CFI Block cfiCond19 Using cfiCommon0
        CFI (cfiCond19) NoFunction
        CFI (cfiCond19) Conditional ??CrossCallReturnLabel_105
        CFI (cfiCond19) R6 load(1, XDATA, add(CFA_XSP16, literal(-12)))
        CFI (cfiCond19) VB load(1, XDATA, add(CFA_XSP16, literal(-11)))
        CFI (cfiCond19) V0 load(1, XDATA, add(CFA_XSP16, literal(-10)))
        CFI (cfiCond19) V1 load(1, XDATA, add(CFA_XSP16, literal(-9)))
        CFI (cfiCond19) V2 load(1, XDATA, add(CFA_XSP16, literal(-8)))
        CFI (cfiCond19) V3 load(1, XDATA, add(CFA_XSP16, literal(-7)))
        CFI (cfiCond19) R7 load(1, XDATA, add(CFA_XSP16, literal(-6)))
        CFI (cfiCond19) ?RET_LOW load(1, XDATA, add(CFA_XSP16, literal(-5)))
        CFI (cfiCond19) ?RET_HIGH load(1, XDATA, add(CFA_XSP16, literal(-4)))
        CFI (cfiCond19) ?BRET_EXT load(1, XDATA, add(CFA_XSP16, literal(-3)))
        CFI (cfiCond19) DPL0 load(1, XDATA, add(CFA_XSP16, literal(-2)))
        CFI (cfiCond19) DPH0 load(1, XDATA, add(CFA_XSP16, literal(-1)))
        CFI (cfiCond19) CFA_SP SP+-1
        CFI (cfiCond19) CFA_XSP16 add(XSP16, 16)
        CFI Block cfiCond20 Using cfiCommon0
        CFI (cfiCond20) NoFunction
        CFI (cfiCond20) Conditional ??CrossCallReturnLabel_119
        CFI (cfiCond20) R6 load(1, XDATA, add(CFA_XSP16, literal(-12)))
        CFI (cfiCond20) VB load(1, XDATA, add(CFA_XSP16, literal(-11)))
        CFI (cfiCond20) V0 load(1, XDATA, add(CFA_XSP16, literal(-10)))
        CFI (cfiCond20) V1 load(1, XDATA, add(CFA_XSP16, literal(-9)))
        CFI (cfiCond20) V2 load(1, XDATA, add(CFA_XSP16, literal(-8)))
        CFI (cfiCond20) V3 load(1, XDATA, add(CFA_XSP16, literal(-7)))
        CFI (cfiCond20) R7 load(1, XDATA, add(CFA_XSP16, literal(-6)))
        CFI (cfiCond20) ?RET_LOW load(1, XDATA, add(CFA_XSP16, literal(-5)))
        CFI (cfiCond20) ?RET_HIGH load(1, XDATA, add(CFA_XSP16, literal(-4)))
        CFI (cfiCond20) ?BRET_EXT load(1, XDATA, add(CFA_XSP16, literal(-3)))
        CFI (cfiCond20) DPL0 load(1, XDATA, add(CFA_XSP16, literal(-2)))
        CFI (cfiCond20) DPH0 load(1, XDATA, add(CFA_XSP16, literal(-1)))
        CFI (cfiCond20) CFA_SP SP+-1
        CFI (cfiCond20) CFA_XSP16 add(XSP16, 16)
        CFI Block cfiCond21 Using cfiCommon0
        CFI (cfiCond21) NoFunction
        CFI (cfiCond21) Conditional ??CrossCallReturnLabel_106
        CFI (cfiCond21) R6 load(1, XDATA, add(CFA_XSP16, literal(-12)))
        CFI (cfiCond21) VB load(1, XDATA, add(CFA_XSP16, literal(-11)))
        CFI (cfiCond21) V0 load(1, XDATA, add(CFA_XSP16, literal(-10)))
        CFI (cfiCond21) V1 load(1, XDATA, add(CFA_XSP16, literal(-9)))
        CFI (cfiCond21) V2 load(1, XDATA, add(CFA_XSP16, literal(-8)))
        CFI (cfiCond21) V3 load(1, XDATA, add(CFA_XSP16, literal(-7)))
        CFI (cfiCond21) R7 load(1, XDATA, add(CFA_XSP16, literal(-6)))
        CFI (cfiCond21) ?RET_LOW load(1, XDATA, add(CFA_XSP16, literal(-5)))
        CFI (cfiCond21) ?RET_HIGH load(1, XDATA, add(CFA_XSP16, literal(-4)))
        CFI (cfiCond21) ?BRET_EXT load(1, XDATA, add(CFA_XSP16, literal(-3)))
        CFI (cfiCond21) DPL0 load(1, XDATA, add(CFA_XSP16, literal(-2)))
        CFI (cfiCond21) DPH0 load(1, XDATA, add(CFA_XSP16, literal(-1)))
        CFI (cfiCond21) CFA_SP SP+-1
        CFI (cfiCond21) CFA_XSP16 add(XSP16, 16)
        CFI Block cfiCond22 Using cfiCommon0
        CFI (cfiCond22) NoFunction
        CFI (cfiCond22) Conditional ??CrossCallReturnLabel_107
        CFI (cfiCond22) R6 load(1, XDATA, add(CFA_XSP16, literal(-12)))
        CFI (cfiCond22) VB load(1, XDATA, add(CFA_XSP16, literal(-11)))
        CFI (cfiCond22) V0 load(1, XDATA, add(CFA_XSP16, literal(-10)))
        CFI (cfiCond22) V1 load(1, XDATA, add(CFA_XSP16, literal(-9)))
        CFI (cfiCond22) V2 load(1, XDATA, add(CFA_XSP16, literal(-8)))
        CFI (cfiCond22) V3 load(1, XDATA, add(CFA_XSP16, literal(-7)))
        CFI (cfiCond22) R7 load(1, XDATA, add(CFA_XSP16, literal(-6)))
        CFI (cfiCond22) ?RET_LOW load(1, XDATA, add(CFA_XSP16, literal(-5)))
        CFI (cfiCond22) ?RET_HIGH load(1, XDATA, add(CFA_XSP16, literal(-4)))
        CFI (cfiCond22) ?BRET_EXT load(1, XDATA, add(CFA_XSP16, literal(-3)))
        CFI (cfiCond22) DPL0 load(1, XDATA, add(CFA_XSP16, literal(-2)))
        CFI (cfiCond22) DPH0 load(1, XDATA, add(CFA_XSP16, literal(-1)))
        CFI (cfiCond22) CFA_SP SP+-1
        CFI (cfiCond22) CFA_XSP16 add(XSP16, 16)
        CFI Block cfiCond23 Using cfiCommon0
        CFI (cfiCond23) NoFunction
        CFI (cfiCond23) Conditional ??CrossCallReturnLabel_108
        CFI (cfiCond23) R6 load(1, XDATA, add(CFA_XSP16, literal(-12)))
        CFI (cfiCond23) VB load(1, XDATA, add(CFA_XSP16, literal(-11)))
        CFI (cfiCond23) V0 load(1, XDATA, add(CFA_XSP16, literal(-10)))
        CFI (cfiCond23) V1 load(1, XDATA, add(CFA_XSP16, literal(-9)))
        CFI (cfiCond23) V2 load(1, XDATA, add(CFA_XSP16, literal(-8)))
        CFI (cfiCond23) V3 load(1, XDATA, add(CFA_XSP16, literal(-7)))
        CFI (cfiCond23) R7 load(1, XDATA, add(CFA_XSP16, literal(-6)))
        CFI (cfiCond23) ?RET_LOW load(1, XDATA, add(CFA_XSP16, literal(-5)))
        CFI (cfiCond23) ?RET_HIGH load(1, XDATA, add(CFA_XSP16, literal(-4)))
        CFI (cfiCond23) ?BRET_EXT load(1, XDATA, add(CFA_XSP16, literal(-3)))
        CFI (cfiCond23) DPL0 load(1, XDATA, add(CFA_XSP16, literal(-2)))
        CFI (cfiCond23) DPH0 load(1, XDATA, add(CFA_XSP16, literal(-1)))
        CFI (cfiCond23) CFA_SP SP+-1
        CFI (cfiCond23) CFA_XSP16 add(XSP16, 16)
        CFI Block cfiCond24 Using cfiCommon0
        CFI (cfiCond24) NoFunction
        CFI (cfiCond24) Conditional ??CrossCallReturnLabel_109
        CFI (cfiCond24) R6 load(1, XDATA, add(CFA_XSP16, literal(-12)))
        CFI (cfiCond24) VB load(1, XDATA, add(CFA_XSP16, literal(-11)))
        CFI (cfiCond24) V0 load(1, XDATA, add(CFA_XSP16, literal(-10)))
        CFI (cfiCond24) V1 load(1, XDATA, add(CFA_XSP16, literal(-9)))
        CFI (cfiCond24) V2 load(1, XDATA, add(CFA_XSP16, literal(-8)))
        CFI (cfiCond24) V3 load(1, XDATA, add(CFA_XSP16, literal(-7)))
        CFI (cfiCond24) R7 load(1, XDATA, add(CFA_XSP16, literal(-6)))
        CFI (cfiCond24) ?RET_LOW load(1, XDATA, add(CFA_XSP16, literal(-5)))
        CFI (cfiCond24) ?RET_HIGH load(1, XDATA, add(CFA_XSP16, literal(-4)))
        CFI (cfiCond24) ?BRET_EXT load(1, XDATA, add(CFA_XSP16, literal(-3)))
        CFI (cfiCond24) DPL0 load(1, XDATA, add(CFA_XSP16, literal(-2)))
        CFI (cfiCond24) DPH0 load(1, XDATA, add(CFA_XSP16, literal(-1)))
        CFI (cfiCond24) CFA_SP SP+-1
        CFI (cfiCond24) CFA_XSP16 add(XSP16, 16)
        CFI Block cfiCond25 Using cfiCommon0
        CFI (cfiCond25) NoFunction
        CFI (cfiCond25) Conditional ??CrossCallReturnLabel_110
        CFI (cfiCond25) R6 load(1, XDATA, add(CFA_XSP16, literal(-12)))
        CFI (cfiCond25) VB load(1, XDATA, add(CFA_XSP16, literal(-11)))
        CFI (cfiCond25) V0 load(1, XDATA, add(CFA_XSP16, literal(-10)))
        CFI (cfiCond25) V1 load(1, XDATA, add(CFA_XSP16, literal(-9)))
        CFI (cfiCond25) V2 load(1, XDATA, add(CFA_XSP16, literal(-8)))
        CFI (cfiCond25) V3 load(1, XDATA, add(CFA_XSP16, literal(-7)))
        CFI (cfiCond25) R7 load(1, XDATA, add(CFA_XSP16, literal(-6)))
        CFI (cfiCond25) ?RET_LOW load(1, XDATA, add(CFA_XSP16, literal(-5)))
        CFI (cfiCond25) ?RET_HIGH load(1, XDATA, add(CFA_XSP16, literal(-4)))
        CFI (cfiCond25) ?BRET_EXT load(1, XDATA, add(CFA_XSP16, literal(-3)))
        CFI (cfiCond25) DPL0 load(1, XDATA, add(CFA_XSP16, literal(-2)))
        CFI (cfiCond25) DPH0 load(1, XDATA, add(CFA_XSP16, literal(-1)))
        CFI (cfiCond25) CFA_SP SP+-1
        CFI (cfiCond25) CFA_XSP16 add(XSP16, 16)
        CFI Block cfiCond26 Using cfiCommon0
        CFI (cfiCond26) NoFunction
        CFI (cfiCond26) Conditional ??CrossCallReturnLabel_111
        CFI (cfiCond26) R6 load(1, XDATA, add(CFA_XSP16, literal(-12)))
        CFI (cfiCond26) VB load(1, XDATA, add(CFA_XSP16, literal(-11)))
        CFI (cfiCond26) V0 load(1, XDATA, add(CFA_XSP16, literal(-10)))
        CFI (cfiCond26) V1 load(1, XDATA, add(CFA_XSP16, literal(-9)))
        CFI (cfiCond26) V2 load(1, XDATA, add(CFA_XSP16, literal(-8)))
        CFI (cfiCond26) V3 load(1, XDATA, add(CFA_XSP16, literal(-7)))
        CFI (cfiCond26) R7 load(1, XDATA, add(CFA_XSP16, literal(-6)))
        CFI (cfiCond26) ?RET_LOW load(1, XDATA, add(CFA_XSP16, literal(-5)))
        CFI (cfiCond26) ?RET_HIGH load(1, XDATA, add(CFA_XSP16, literal(-4)))
        CFI (cfiCond26) ?BRET_EXT load(1, XDATA, add(CFA_XSP16, literal(-3)))
        CFI (cfiCond26) DPL0 load(1, XDATA, add(CFA_XSP16, literal(-2)))
        CFI (cfiCond26) DPH0 load(1, XDATA, add(CFA_XSP16, literal(-1)))
        CFI (cfiCond26) CFA_SP SP+-1
        CFI (cfiCond26) CFA_XSP16 add(XSP16, 16)
        CFI Block cfiCond27 Using cfiCommon0
        CFI (cfiCond27) NoFunction
        CFI (cfiCond27) Conditional ??CrossCallReturnLabel_112
        CFI (cfiCond27) R6 load(1, XDATA, add(CFA_XSP16, literal(-12)))
        CFI (cfiCond27) VB load(1, XDATA, add(CFA_XSP16, literal(-11)))
        CFI (cfiCond27) V0 load(1, XDATA, add(CFA_XSP16, literal(-10)))
        CFI (cfiCond27) V1 load(1, XDATA, add(CFA_XSP16, literal(-9)))
        CFI (cfiCond27) V2 load(1, XDATA, add(CFA_XSP16, literal(-8)))
        CFI (cfiCond27) V3 load(1, XDATA, add(CFA_XSP16, literal(-7)))
        CFI (cfiCond27) R7 load(1, XDATA, add(CFA_XSP16, literal(-6)))
        CFI (cfiCond27) ?RET_LOW load(1, XDATA, add(CFA_XSP16, literal(-5)))
        CFI (cfiCond27) ?RET_HIGH load(1, XDATA, add(CFA_XSP16, literal(-4)))
        CFI (cfiCond27) ?BRET_EXT load(1, XDATA, add(CFA_XSP16, literal(-3)))
        CFI (cfiCond27) DPL0 load(1, XDATA, add(CFA_XSP16, literal(-2)))
        CFI (cfiCond27) DPH0 load(1, XDATA, add(CFA_XSP16, literal(-1)))
        CFI (cfiCond27) CFA_SP SP+-1
        CFI (cfiCond27) CFA_XSP16 add(XSP16, 16)
        CFI Block cfiCond28 Using cfiCommon0
        CFI (cfiCond28) NoFunction
        CFI (cfiCond28) Conditional ??CrossCallReturnLabel_113
        CFI (cfiCond28) R6 load(1, XDATA, add(CFA_XSP16, literal(-12)))
        CFI (cfiCond28) VB load(1, XDATA, add(CFA_XSP16, literal(-11)))
        CFI (cfiCond28) V0 load(1, XDATA, add(CFA_XSP16, literal(-10)))
        CFI (cfiCond28) V1 load(1, XDATA, add(CFA_XSP16, literal(-9)))
        CFI (cfiCond28) V2 load(1, XDATA, add(CFA_XSP16, literal(-8)))
        CFI (cfiCond28) V3 load(1, XDATA, add(CFA_XSP16, literal(-7)))
        CFI (cfiCond28) R7 load(1, XDATA, add(CFA_XSP16, literal(-6)))
        CFI (cfiCond28) ?RET_LOW load(1, XDATA, add(CFA_XSP16, literal(-5)))
        CFI (cfiCond28) ?RET_HIGH load(1, XDATA, add(CFA_XSP16, literal(-4)))
        CFI (cfiCond28) ?BRET_EXT load(1, XDATA, add(CFA_XSP16, literal(-3)))
        CFI (cfiCond28) DPL0 load(1, XDATA, add(CFA_XSP16, literal(-2)))
        CFI (cfiCond28) DPH0 load(1, XDATA, add(CFA_XSP16, literal(-1)))
        CFI (cfiCond28) CFA_SP SP+-1
        CFI (cfiCond28) CFA_XSP16 add(XSP16, 16)
        CFI Block cfiCond29 Using cfiCommon0
        CFI (cfiCond29) NoFunction
        CFI (cfiCond29) Conditional ??CrossCallReturnLabel_114
        CFI (cfiCond29) R6 load(1, XDATA, add(CFA_XSP16, literal(-12)))
        CFI (cfiCond29) VB load(1, XDATA, add(CFA_XSP16, literal(-11)))
        CFI (cfiCond29) V0 load(1, XDATA, add(CFA_XSP16, literal(-10)))
        CFI (cfiCond29) V1 load(1, XDATA, add(CFA_XSP16, literal(-9)))
        CFI (cfiCond29) V2 load(1, XDATA, add(CFA_XSP16, literal(-8)))
        CFI (cfiCond29) V3 load(1, XDATA, add(CFA_XSP16, literal(-7)))
        CFI (cfiCond29) R7 load(1, XDATA, add(CFA_XSP16, literal(-6)))
        CFI (cfiCond29) ?RET_LOW load(1, XDATA, add(CFA_XSP16, literal(-5)))
        CFI (cfiCond29) ?RET_HIGH load(1, XDATA, add(CFA_XSP16, literal(-4)))
        CFI (cfiCond29) ?BRET_EXT load(1, XDATA, add(CFA_XSP16, literal(-3)))
        CFI (cfiCond29) DPL0 load(1, XDATA, add(CFA_XSP16, literal(-2)))
        CFI (cfiCond29) DPH0 load(1, XDATA, add(CFA_XSP16, literal(-1)))
        CFI (cfiCond29) CFA_SP SP+-1
        CFI (cfiCond29) CFA_XSP16 add(XSP16, 16)
        CFI Block cfiCond30 Using cfiCommon0
        CFI (cfiCond30) NoFunction
        CFI (cfiCond30) Conditional ??CrossCallReturnLabel_115
        CFI (cfiCond30) R6 load(1, XDATA, add(CFA_XSP16, literal(-12)))
        CFI (cfiCond30) VB load(1, XDATA, add(CFA_XSP16, literal(-11)))
        CFI (cfiCond30) V0 load(1, XDATA, add(CFA_XSP16, literal(-10)))
        CFI (cfiCond30) V1 load(1, XDATA, add(CFA_XSP16, literal(-9)))
        CFI (cfiCond30) V2 load(1, XDATA, add(CFA_XSP16, literal(-8)))
        CFI (cfiCond30) V3 load(1, XDATA, add(CFA_XSP16, literal(-7)))
        CFI (cfiCond30) R7 load(1, XDATA, add(CFA_XSP16, literal(-6)))
        CFI (cfiCond30) ?RET_LOW load(1, XDATA, add(CFA_XSP16, literal(-5)))
        CFI (cfiCond30) ?RET_HIGH load(1, XDATA, add(CFA_XSP16, literal(-4)))
        CFI (cfiCond30) ?BRET_EXT load(1, XDATA, add(CFA_XSP16, literal(-3)))
        CFI (cfiCond30) DPL0 load(1, XDATA, add(CFA_XSP16, literal(-2)))
        CFI (cfiCond30) DPH0 load(1, XDATA, add(CFA_XSP16, literal(-1)))
        CFI (cfiCond30) CFA_SP SP+-1
        CFI (cfiCond30) CFA_XSP16 add(XSP16, 16)
        CFI Block cfiCond31 Using cfiCommon0
        CFI (cfiCond31) NoFunction
        CFI (cfiCond31) Conditional ??CrossCallReturnLabel_116
        CFI (cfiCond31) R6 load(1, XDATA, add(CFA_XSP16, literal(-12)))
        CFI (cfiCond31) VB load(1, XDATA, add(CFA_XSP16, literal(-11)))
        CFI (cfiCond31) V0 load(1, XDATA, add(CFA_XSP16, literal(-10)))
        CFI (cfiCond31) V1 load(1, XDATA, add(CFA_XSP16, literal(-9)))
        CFI (cfiCond31) V2 load(1, XDATA, add(CFA_XSP16, literal(-8)))
        CFI (cfiCond31) V3 load(1, XDATA, add(CFA_XSP16, literal(-7)))
        CFI (cfiCond31) R7 load(1, XDATA, add(CFA_XSP16, literal(-6)))
        CFI (cfiCond31) ?RET_LOW load(1, XDATA, add(CFA_XSP16, literal(-5)))
        CFI (cfiCond31) ?RET_HIGH load(1, XDATA, add(CFA_XSP16, literal(-4)))
        CFI (cfiCond31) ?BRET_EXT load(1, XDATA, add(CFA_XSP16, literal(-3)))
        CFI (cfiCond31) DPL0 load(1, XDATA, add(CFA_XSP16, literal(-2)))
        CFI (cfiCond31) DPH0 load(1, XDATA, add(CFA_XSP16, literal(-1)))
        CFI (cfiCond31) CFA_SP SP+-1
        CFI (cfiCond31) CFA_XSP16 add(XSP16, 16)
        CFI Block cfiCond32 Using cfiCommon0
        CFI (cfiCond32) NoFunction
        CFI (cfiCond32) Conditional ??CrossCallReturnLabel_117
        CFI (cfiCond32) R6 load(1, XDATA, add(CFA_XSP16, literal(-12)))
        CFI (cfiCond32) VB load(1, XDATA, add(CFA_XSP16, literal(-11)))
        CFI (cfiCond32) V0 load(1, XDATA, add(CFA_XSP16, literal(-10)))
        CFI (cfiCond32) V1 load(1, XDATA, add(CFA_XSP16, literal(-9)))
        CFI (cfiCond32) V2 load(1, XDATA, add(CFA_XSP16, literal(-8)))
        CFI (cfiCond32) V3 load(1, XDATA, add(CFA_XSP16, literal(-7)))
        CFI (cfiCond32) R7 load(1, XDATA, add(CFA_XSP16, literal(-6)))
        CFI (cfiCond32) ?RET_LOW load(1, XDATA, add(CFA_XSP16, literal(-5)))
        CFI (cfiCond32) ?RET_HIGH load(1, XDATA, add(CFA_XSP16, literal(-4)))
        CFI (cfiCond32) ?BRET_EXT load(1, XDATA, add(CFA_XSP16, literal(-3)))
        CFI (cfiCond32) DPL0 load(1, XDATA, add(CFA_XSP16, literal(-2)))
        CFI (cfiCond32) DPH0 load(1, XDATA, add(CFA_XSP16, literal(-1)))
        CFI (cfiCond32) CFA_SP SP+-1
        CFI (cfiCond32) CFA_XSP16 add(XSP16, 16)
        CFI Block cfiCond33 Using cfiCommon0
        CFI (cfiCond33) NoFunction
        CFI (cfiCond33) Conditional ??CrossCallReturnLabel_118
        CFI (cfiCond33) R6 load(1, XDATA, add(CFA_XSP16, literal(-12)))
        CFI (cfiCond33) VB load(1, XDATA, add(CFA_XSP16, literal(-11)))
        CFI (cfiCond33) V0 load(1, XDATA, add(CFA_XSP16, literal(-10)))
        CFI (cfiCond33) V1 load(1, XDATA, add(CFA_XSP16, literal(-9)))
        CFI (cfiCond33) V2 load(1, XDATA, add(CFA_XSP16, literal(-8)))
        CFI (cfiCond33) V3 load(1, XDATA, add(CFA_XSP16, literal(-7)))
        CFI (cfiCond33) R7 load(1, XDATA, add(CFA_XSP16, literal(-6)))
        CFI (cfiCond33) ?RET_LOW load(1, XDATA, add(CFA_XSP16, literal(-5)))
        CFI (cfiCond33) ?RET_HIGH load(1, XDATA, add(CFA_XSP16, literal(-4)))
        CFI (cfiCond33) ?BRET_EXT load(1, XDATA, add(CFA_XSP16, literal(-3)))
        CFI (cfiCond33) DPL0 load(1, XDATA, add(CFA_XSP16, literal(-2)))
        CFI (cfiCond33) DPH0 load(1, XDATA, add(CFA_XSP16, literal(-1)))
        CFI (cfiCond33) CFA_SP SP+0
        CFI (cfiCond33) CFA_XSP16 add(XSP16, 16)
        CFI Block cfiCond34 Using cfiCommon0
        CFI (cfiCond34) NoFunction
        CFI (cfiCond34) Conditional ??CrossCallReturnLabel_120
        CFI (cfiCond34) R6 load(1, XDATA, add(CFA_XSP16, literal(-12)))
        CFI (cfiCond34) VB load(1, XDATA, add(CFA_XSP16, literal(-11)))
        CFI (cfiCond34) V0 load(1, XDATA, add(CFA_XSP16, literal(-10)))
        CFI (cfiCond34) V1 load(1, XDATA, add(CFA_XSP16, literal(-9)))
        CFI (cfiCond34) V2 load(1, XDATA, add(CFA_XSP16, literal(-8)))
        CFI (cfiCond34) V3 load(1, XDATA, add(CFA_XSP16, literal(-7)))
        CFI (cfiCond34) R7 load(1, XDATA, add(CFA_XSP16, literal(-6)))
        CFI (cfiCond34) ?RET_LOW load(1, XDATA, add(CFA_XSP16, literal(-5)))
        CFI (cfiCond34) ?RET_HIGH load(1, XDATA, add(CFA_XSP16, literal(-4)))
        CFI (cfiCond34) ?BRET_EXT load(1, XDATA, add(CFA_XSP16, literal(-3)))
        CFI (cfiCond34) DPL0 load(1, XDATA, add(CFA_XSP16, literal(-2)))
        CFI (cfiCond34) DPH0 load(1, XDATA, add(CFA_XSP16, literal(-1)))
        CFI (cfiCond34) CFA_SP SP+-1
        CFI (cfiCond34) CFA_XSP16 add(XSP16, 16)
        CFI Block cfiCond35 Using cfiCommon0
        CFI (cfiCond35) NoFunction
        CFI (cfiCond35) Conditional ??CrossCallReturnLabel_121
        CFI (cfiCond35) R6 load(1, XDATA, add(CFA_XSP16, literal(-12)))
        CFI (cfiCond35) VB load(1, XDATA, add(CFA_XSP16, literal(-11)))
        CFI (cfiCond35) V0 load(1, XDATA, add(CFA_XSP16, literal(-10)))
        CFI (cfiCond35) V1 load(1, XDATA, add(CFA_XSP16, literal(-9)))
        CFI (cfiCond35) V2 load(1, XDATA, add(CFA_XSP16, literal(-8)))
        CFI (cfiCond35) V3 load(1, XDATA, add(CFA_XSP16, literal(-7)))
        CFI (cfiCond35) R7 load(1, XDATA, add(CFA_XSP16, literal(-6)))
        CFI (cfiCond35) ?RET_LOW load(1, XDATA, add(CFA_XSP16, literal(-5)))
        CFI (cfiCond35) ?RET_HIGH load(1, XDATA, add(CFA_XSP16, literal(-4)))
        CFI (cfiCond35) ?BRET_EXT load(1, XDATA, add(CFA_XSP16, literal(-3)))
        CFI (cfiCond35) DPL0 load(1, XDATA, add(CFA_XSP16, literal(-2)))
        CFI (cfiCond35) DPH0 load(1, XDATA, add(CFA_XSP16, literal(-1)))
        CFI (cfiCond35) CFA_SP SP+-1
        CFI (cfiCond35) CFA_XSP16 add(XSP16, 16)
        CFI Block cfiCond36 Using cfiCommon0
        CFI (cfiCond36) NoFunction
        CFI (cfiCond36) Conditional ??CrossCallReturnLabel_122
        CFI (cfiCond36) R6 load(1, XDATA, add(CFA_XSP16, literal(-12)))
        CFI (cfiCond36) VB load(1, XDATA, add(CFA_XSP16, literal(-11)))
        CFI (cfiCond36) V0 load(1, XDATA, add(CFA_XSP16, literal(-10)))
        CFI (cfiCond36) V1 load(1, XDATA, add(CFA_XSP16, literal(-9)))
        CFI (cfiCond36) V2 load(1, XDATA, add(CFA_XSP16, literal(-8)))
        CFI (cfiCond36) V3 load(1, XDATA, add(CFA_XSP16, literal(-7)))
        CFI (cfiCond36) R7 load(1, XDATA, add(CFA_XSP16, literal(-6)))
        CFI (cfiCond36) ?RET_LOW load(1, XDATA, add(CFA_XSP16, literal(-5)))
        CFI (cfiCond36) ?RET_HIGH load(1, XDATA, add(CFA_XSP16, literal(-4)))
        CFI (cfiCond36) ?BRET_EXT load(1, XDATA, add(CFA_XSP16, literal(-3)))
        CFI (cfiCond36) DPL0 load(1, XDATA, add(CFA_XSP16, literal(-2)))
        CFI (cfiCond36) DPH0 load(1, XDATA, add(CFA_XSP16, literal(-1)))
        CFI (cfiCond36) CFA_SP SP+-1
        CFI (cfiCond36) CFA_XSP16 add(XSP16, 16)
        CFI Block cfiCond37 Using cfiCommon0
        CFI (cfiCond37) NoFunction
        CFI (cfiCond37) Conditional ??CrossCallReturnLabel_123
        CFI (cfiCond37) R6 load(1, XDATA, add(CFA_XSP16, literal(-12)))
        CFI (cfiCond37) VB load(1, XDATA, add(CFA_XSP16, literal(-11)))
        CFI (cfiCond37) V0 load(1, XDATA, add(CFA_XSP16, literal(-10)))
        CFI (cfiCond37) V1 load(1, XDATA, add(CFA_XSP16, literal(-9)))
        CFI (cfiCond37) V2 load(1, XDATA, add(CFA_XSP16, literal(-8)))
        CFI (cfiCond37) V3 load(1, XDATA, add(CFA_XSP16, literal(-7)))
        CFI (cfiCond37) R7 load(1, XDATA, add(CFA_XSP16, literal(-6)))
        CFI (cfiCond37) ?RET_LOW load(1, XDATA, add(CFA_XSP16, literal(-5)))
        CFI (cfiCond37) ?RET_HIGH load(1, XDATA, add(CFA_XSP16, literal(-4)))
        CFI (cfiCond37) ?BRET_EXT load(1, XDATA, add(CFA_XSP16, literal(-3)))
        CFI (cfiCond37) DPL0 load(1, XDATA, add(CFA_XSP16, literal(-2)))
        CFI (cfiCond37) DPH0 load(1, XDATA, add(CFA_XSP16, literal(-1)))
        CFI (cfiCond37) CFA_SP SP+-1
        CFI (cfiCond37) CFA_XSP16 add(XSP16, 16)
        CFI Block cfiCond38 Using cfiCommon0
        CFI (cfiCond38) NoFunction
        CFI (cfiCond38) Conditional ??CrossCallReturnLabel_124
        CFI (cfiCond38) R6 load(1, XDATA, add(CFA_XSP16, literal(-12)))
        CFI (cfiCond38) VB load(1, XDATA, add(CFA_XSP16, literal(-11)))
        CFI (cfiCond38) V0 load(1, XDATA, add(CFA_XSP16, literal(-10)))
        CFI (cfiCond38) V1 load(1, XDATA, add(CFA_XSP16, literal(-9)))
        CFI (cfiCond38) V2 load(1, XDATA, add(CFA_XSP16, literal(-8)))
        CFI (cfiCond38) V3 load(1, XDATA, add(CFA_XSP16, literal(-7)))
        CFI (cfiCond38) R7 load(1, XDATA, add(CFA_XSP16, literal(-6)))
        CFI (cfiCond38) ?RET_LOW load(1, XDATA, add(CFA_XSP16, literal(-5)))
        CFI (cfiCond38) ?RET_HIGH load(1, XDATA, add(CFA_XSP16, literal(-4)))
        CFI (cfiCond38) ?BRET_EXT load(1, XDATA, add(CFA_XSP16, literal(-3)))
        CFI (cfiCond38) DPL0 load(1, XDATA, add(CFA_XSP16, literal(-2)))
        CFI (cfiCond38) DPH0 load(1, XDATA, add(CFA_XSP16, literal(-1)))
        CFI (cfiCond38) CFA_SP SP+-1
        CFI (cfiCond38) CFA_XSP16 add(XSP16, 16)
        CFI Block cfiCond39 Using cfiCommon0
        CFI (cfiCond39) NoFunction
        CFI (cfiCond39) Conditional ??CrossCallReturnLabel_125
        CFI (cfiCond39) R6 load(1, XDATA, add(CFA_XSP16, literal(-12)))
        CFI (cfiCond39) VB load(1, XDATA, add(CFA_XSP16, literal(-11)))
        CFI (cfiCond39) V0 load(1, XDATA, add(CFA_XSP16, literal(-10)))
        CFI (cfiCond39) V1 load(1, XDATA, add(CFA_XSP16, literal(-9)))
        CFI (cfiCond39) V2 load(1, XDATA, add(CFA_XSP16, literal(-8)))
        CFI (cfiCond39) V3 load(1, XDATA, add(CFA_XSP16, literal(-7)))
        CFI (cfiCond39) R7 load(1, XDATA, add(CFA_XSP16, literal(-6)))
        CFI (cfiCond39) ?RET_LOW load(1, XDATA, add(CFA_XSP16, literal(-5)))
        CFI (cfiCond39) ?RET_HIGH load(1, XDATA, add(CFA_XSP16, literal(-4)))
        CFI (cfiCond39) ?BRET_EXT load(1, XDATA, add(CFA_XSP16, literal(-3)))
        CFI (cfiCond39) DPL0 load(1, XDATA, add(CFA_XSP16, literal(-2)))
        CFI (cfiCond39) DPH0 load(1, XDATA, add(CFA_XSP16, literal(-1)))
        CFI (cfiCond39) CFA_SP SP+-1
        CFI (cfiCond39) CFA_XSP16 add(XSP16, 16)
        CFI Block cfiCond40 Using cfiCommon0
        CFI (cfiCond40) NoFunction
        CFI (cfiCond40) Conditional ??CrossCallReturnLabel_126
        CFI (cfiCond40) R6 load(1, XDATA, add(CFA_XSP16, literal(-12)))
        CFI (cfiCond40) VB load(1, XDATA, add(CFA_XSP16, literal(-11)))
        CFI (cfiCond40) V0 load(1, XDATA, add(CFA_XSP16, literal(-10)))
        CFI (cfiCond40) V1 load(1, XDATA, add(CFA_XSP16, literal(-9)))
        CFI (cfiCond40) V2 load(1, XDATA, add(CFA_XSP16, literal(-8)))
        CFI (cfiCond40) V3 load(1, XDATA, add(CFA_XSP16, literal(-7)))
        CFI (cfiCond40) R7 load(1, XDATA, add(CFA_XSP16, literal(-6)))
        CFI (cfiCond40) ?RET_LOW load(1, XDATA, add(CFA_XSP16, literal(-5)))
        CFI (cfiCond40) ?RET_HIGH load(1, XDATA, add(CFA_XSP16, literal(-4)))
        CFI (cfiCond40) ?BRET_EXT load(1, XDATA, add(CFA_XSP16, literal(-3)))
        CFI (cfiCond40) DPL0 load(1, XDATA, add(CFA_XSP16, literal(-2)))
        CFI (cfiCond40) DPH0 load(1, XDATA, add(CFA_XSP16, literal(-1)))
        CFI (cfiCond40) CFA_SP SP+-1
        CFI (cfiCond40) CFA_XSP16 add(XSP16, 16)
        CFI Block cfiCond41 Using cfiCommon0
        CFI (cfiCond41) NoFunction
        CFI (cfiCond41) Conditional ??CrossCallReturnLabel_127
        CFI (cfiCond41) R6 load(1, XDATA, add(CFA_XSP16, literal(-12)))
        CFI (cfiCond41) VB load(1, XDATA, add(CFA_XSP16, literal(-11)))
        CFI (cfiCond41) V0 load(1, XDATA, add(CFA_XSP16, literal(-10)))
        CFI (cfiCond41) V1 load(1, XDATA, add(CFA_XSP16, literal(-9)))
        CFI (cfiCond41) V2 load(1, XDATA, add(CFA_XSP16, literal(-8)))
        CFI (cfiCond41) V3 load(1, XDATA, add(CFA_XSP16, literal(-7)))
        CFI (cfiCond41) R7 load(1, XDATA, add(CFA_XSP16, literal(-6)))
        CFI (cfiCond41) ?RET_LOW load(1, XDATA, add(CFA_XSP16, literal(-5)))
        CFI (cfiCond41) ?RET_HIGH load(1, XDATA, add(CFA_XSP16, literal(-4)))
        CFI (cfiCond41) ?BRET_EXT load(1, XDATA, add(CFA_XSP16, literal(-3)))
        CFI (cfiCond41) DPL0 load(1, XDATA, add(CFA_XSP16, literal(-2)))
        CFI (cfiCond41) DPH0 load(1, XDATA, add(CFA_XSP16, literal(-1)))
        CFI (cfiCond41) CFA_SP SP+-1
        CFI (cfiCond41) CFA_XSP16 add(XSP16, 16)
        CFI Block cfiCond42 Using cfiCommon0
        CFI (cfiCond42) NoFunction
        CFI (cfiCond42) Conditional ??CrossCallReturnLabel_128
        CFI (cfiCond42) R6 load(1, XDATA, add(CFA_XSP16, literal(-12)))
        CFI (cfiCond42) VB load(1, XDATA, add(CFA_XSP16, literal(-11)))
        CFI (cfiCond42) V0 load(1, XDATA, add(CFA_XSP16, literal(-10)))
        CFI (cfiCond42) V1 load(1, XDATA, add(CFA_XSP16, literal(-9)))
        CFI (cfiCond42) V2 load(1, XDATA, add(CFA_XSP16, literal(-8)))
        CFI (cfiCond42) V3 load(1, XDATA, add(CFA_XSP16, literal(-7)))
        CFI (cfiCond42) R7 load(1, XDATA, add(CFA_XSP16, literal(-6)))
        CFI (cfiCond42) ?RET_LOW load(1, XDATA, add(CFA_XSP16, literal(-5)))
        CFI (cfiCond42) ?RET_HIGH load(1, XDATA, add(CFA_XSP16, literal(-4)))
        CFI (cfiCond42) ?BRET_EXT load(1, XDATA, add(CFA_XSP16, literal(-3)))
        CFI (cfiCond42) DPL0 load(1, XDATA, add(CFA_XSP16, literal(-2)))
        CFI (cfiCond42) DPH0 load(1, XDATA, add(CFA_XSP16, literal(-1)))
        CFI (cfiCond42) CFA_SP SP+-1
        CFI (cfiCond42) CFA_XSP16 add(XSP16, 16)
        CFI Block cfiCond43 Using cfiCommon0
        CFI (cfiCond43) NoFunction
        CFI (cfiCond43) Conditional ??CrossCallReturnLabel_129
        CFI (cfiCond43) R6 load(1, XDATA, add(CFA_XSP16, literal(-12)))
        CFI (cfiCond43) VB load(1, XDATA, add(CFA_XSP16, literal(-11)))
        CFI (cfiCond43) V0 load(1, XDATA, add(CFA_XSP16, literal(-10)))
        CFI (cfiCond43) V1 load(1, XDATA, add(CFA_XSP16, literal(-9)))
        CFI (cfiCond43) V2 load(1, XDATA, add(CFA_XSP16, literal(-8)))
        CFI (cfiCond43) V3 load(1, XDATA, add(CFA_XSP16, literal(-7)))
        CFI (cfiCond43) R7 load(1, XDATA, add(CFA_XSP16, literal(-6)))
        CFI (cfiCond43) ?RET_LOW load(1, XDATA, add(CFA_XSP16, literal(-5)))
        CFI (cfiCond43) ?RET_HIGH load(1, XDATA, add(CFA_XSP16, literal(-4)))
        CFI (cfiCond43) ?BRET_EXT load(1, XDATA, add(CFA_XSP16, literal(-3)))
        CFI (cfiCond43) DPL0 load(1, XDATA, add(CFA_XSP16, literal(-2)))
        CFI (cfiCond43) DPH0 load(1, XDATA, add(CFA_XSP16, literal(-1)))
        CFI (cfiCond43) CFA_SP SP+0
        CFI (cfiCond43) CFA_XSP16 add(XSP16, 16)
        CFI Block cfiCond44 Using cfiCommon0
        CFI (cfiCond44) NoFunction
        CFI (cfiCond44) Conditional ??CrossCallReturnLabel_101
        CFI (cfiCond44) R6 load(1, XDATA, add(CFA_XSP16, literal(-10)))
        CFI (cfiCond44) VB load(1, XDATA, add(CFA_XSP16, literal(-9)))
        CFI (cfiCond44) V0 load(1, XDATA, add(CFA_XSP16, literal(-8)))
        CFI (cfiCond44) V1 load(1, XDATA, add(CFA_XSP16, literal(-7)))
        CFI (cfiCond44) R7 load(1, XDATA, add(CFA_XSP16, literal(-6)))
        CFI (cfiCond44) ?RET_LOW load(1, XDATA, add(CFA_XSP16, literal(-5)))
        CFI (cfiCond44) ?RET_HIGH load(1, XDATA, add(CFA_XSP16, literal(-4)))
        CFI (cfiCond44) ?BRET_EXT load(1, XDATA, add(CFA_XSP16, literal(-3)))
        CFI (cfiCond44) DPL0 load(1, XDATA, add(CFA_XSP16, literal(-2)))
        CFI (cfiCond44) DPH0 load(1, XDATA, add(CFA_XSP16, literal(-1)))
        CFI (cfiCond44) CFA_SP SP+0
        CFI (cfiCond44) CFA_XSP16 add(XSP16, 10)
        CFI Block cfiCond45 Using cfiCommon0
        CFI (cfiCond45) NoFunction
        CFI (cfiCond45) Conditional ??CrossCallReturnLabel_102
        CFI (cfiCond45) R6 load(1, XDATA, add(CFA_XSP16, literal(-13)))
        CFI (cfiCond45) VB load(1, XDATA, add(CFA_XSP16, literal(-12)))
        CFI (cfiCond45) V0 load(1, XDATA, add(CFA_XSP16, literal(-11)))
        CFI (cfiCond45) V1 load(1, XDATA, add(CFA_XSP16, literal(-10)))
        CFI (cfiCond45) V2 load(1, XDATA, add(CFA_XSP16, literal(-9)))
        CFI (cfiCond45) V3 load(1, XDATA, add(CFA_XSP16, literal(-8)))
        CFI (cfiCond45) V4 load(1, XDATA, add(CFA_XSP16, literal(-7)))
        CFI (cfiCond45) R7 load(1, XDATA, add(CFA_XSP16, literal(-6)))
        CFI (cfiCond45) ?RET_LOW load(1, XDATA, add(CFA_XSP16, literal(-5)))
        CFI (cfiCond45) ?RET_HIGH load(1, XDATA, add(CFA_XSP16, literal(-4)))
        CFI (cfiCond45) ?BRET_EXT load(1, XDATA, add(CFA_XSP16, literal(-3)))
        CFI (cfiCond45) DPL0 load(1, XDATA, add(CFA_XSP16, literal(-2)))
        CFI (cfiCond45) DPH0 load(1, XDATA, add(CFA_XSP16, literal(-1)))
        CFI (cfiCond45) CFA_SP SP+0
        CFI (cfiCond45) CFA_XSP16 add(XSP16, 13)
        CFI Block cfiPicker46 Using cfiCommon1
        CFI (cfiPicker46) NoFunction
        CFI (cfiPicker46) Picker
        ADDC    A,#0x0
        MOV     DPH,A
        RET
        CFI EndBlock cfiCond17
        CFI EndBlock cfiCond18
        CFI EndBlock cfiCond19
        CFI EndBlock cfiCond20
        CFI EndBlock cfiCond21
        CFI EndBlock cfiCond22
        CFI EndBlock cfiCond23
        CFI EndBlock cfiCond24
        CFI EndBlock cfiCond25
        CFI EndBlock cfiCond26
        CFI EndBlock cfiCond27
        CFI EndBlock cfiCond28
        CFI EndBlock cfiCond29
        CFI EndBlock cfiCond30
        CFI EndBlock cfiCond31
        CFI EndBlock cfiCond32
        CFI EndBlock cfiCond33
        CFI EndBlock cfiCond34
        CFI EndBlock cfiCond35
        CFI EndBlock cfiCond36
        CFI EndBlock cfiCond37
        CFI EndBlock cfiCond38
        CFI EndBlock cfiCond39
        CFI EndBlock cfiCond40
        CFI EndBlock cfiCond41
        CFI EndBlock cfiCond42
        CFI EndBlock cfiCond43
        CFI EndBlock cfiCond44
        CFI EndBlock cfiCond45
        CFI EndBlock cfiPicker46

        RSEG BANKED_CODE:CODE:NOROOT(0)
?Subroutine16:
        CFI Block cfiCond47 Using cfiCommon0
        CFI NoFunction
        CFI Conditional ??CrossCallReturnLabel_34
        CFI R6 load(1, XDATA, add(CFA_XSP16, literal(-12)))
        CFI VB load(1, XDATA, add(CFA_XSP16, literal(-11)))
        CFI V0 load(1, XDATA, add(CFA_XSP16, literal(-10)))
        CFI V1 load(1, XDATA, add(CFA_XSP16, literal(-9)))
        CFI V2 load(1, XDATA, add(CFA_XSP16, literal(-8)))
        CFI V3 load(1, XDATA, add(CFA_XSP16, literal(-7)))
        CFI R7 load(1, XDATA, add(CFA_XSP16, literal(-6)))
        CFI ?RET_LOW load(1, XDATA, add(CFA_XSP16, literal(-5)))
        CFI ?RET_HIGH load(1, XDATA, add(CFA_XSP16, literal(-4)))
        CFI ?BRET_EXT load(1, XDATA, add(CFA_XSP16, literal(-3)))
        CFI DPL0 load(1, XDATA, add(CFA_XSP16, literal(-2)))
        CFI DPH0 load(1, XDATA, add(CFA_XSP16, literal(-1)))
        CFI CFA_SP SP+0
        CFI CFA_XSP16 add(XSP16, 16)
        CFI Block cfiCond48 Using cfiCommon0
        CFI (cfiCond48) NoFunction
        CFI (cfiCond48) Conditional ??CrossCallReturnLabel_35
        CFI (cfiCond48) R6 load(1, XDATA, add(CFA_XSP16, literal(-12)))
        CFI (cfiCond48) VB load(1, XDATA, add(CFA_XSP16, literal(-11)))
        CFI (cfiCond48) V0 load(1, XDATA, add(CFA_XSP16, literal(-10)))
        CFI (cfiCond48) V1 load(1, XDATA, add(CFA_XSP16, literal(-9)))
        CFI (cfiCond48) V2 load(1, XDATA, add(CFA_XSP16, literal(-8)))
        CFI (cfiCond48) V3 load(1, XDATA, add(CFA_XSP16, literal(-7)))
        CFI (cfiCond48) R7 load(1, XDATA, add(CFA_XSP16, literal(-6)))
        CFI (cfiCond48) ?RET_LOW load(1, XDATA, add(CFA_XSP16, literal(-5)))
        CFI (cfiCond48) ?RET_HIGH load(1, XDATA, add(CFA_XSP16, literal(-4)))
        CFI (cfiCond48) ?BRET_EXT load(1, XDATA, add(CFA_XSP16, literal(-3)))
        CFI (cfiCond48) DPL0 load(1, XDATA, add(CFA_XSP16, literal(-2)))
        CFI (cfiCond48) DPH0 load(1, XDATA, add(CFA_XSP16, literal(-1)))
        CFI (cfiCond48) CFA_SP SP+0
        CFI (cfiCond48) CFA_XSP16 add(XSP16, 16)
        CFI Block cfiPicker49 Using cfiCommon1
        CFI (cfiPicker49) NoFunction
        CFI (cfiPicker49) Picker
        ADD     A,#0x21
        LCALL   ?Subroutine31 & 0xFFFF
??CrossCallReturnLabel_89:
        RET
        CFI EndBlock cfiCond47
        CFI EndBlock cfiCond48
        CFI EndBlock cfiPicker49

        RSEG BANKED_CODE:CODE:NOROOT(0)
?Subroutine15:
        CFI Block cfiCond50 Using cfiCommon0
        CFI NoFunction
        CFI Conditional ??CrossCallReturnLabel_32
        CFI R6 load(1, XDATA, add(CFA_XSP16, literal(-10)))
        CFI VB load(1, XDATA, add(CFA_XSP16, literal(-9)))
        CFI V0 load(1, XDATA, add(CFA_XSP16, literal(-8)))
        CFI V1 load(1, XDATA, add(CFA_XSP16, literal(-7)))
        CFI R7 load(1, XDATA, add(CFA_XSP16, literal(-6)))
        CFI ?RET_LOW load(1, XDATA, add(CFA_XSP16, literal(-5)))
        CFI ?RET_HIGH load(1, XDATA, add(CFA_XSP16, literal(-4)))
        CFI ?BRET_EXT load(1, XDATA, add(CFA_XSP16, literal(-3)))
        CFI DPL0 load(1, XDATA, add(CFA_XSP16, literal(-2)))
        CFI DPH0 load(1, XDATA, add(CFA_XSP16, literal(-1)))
        CFI CFA_SP SP+0
        CFI CFA_XSP16 add(XSP16, 10)
        CFI Block cfiCond51 Using cfiCommon0
        CFI (cfiCond51) NoFunction
        CFI (cfiCond51) Conditional ??CrossCallReturnLabel_33
        CFI (cfiCond51) R6 load(1, XDATA, add(CFA_XSP16, literal(-12)))
        CFI (cfiCond51) VB load(1, XDATA, add(CFA_XSP16, literal(-11)))
        CFI (cfiCond51) V0 load(1, XDATA, add(CFA_XSP16, literal(-10)))
        CFI (cfiCond51) V1 load(1, XDATA, add(CFA_XSP16, literal(-9)))
        CFI (cfiCond51) V2 load(1, XDATA, add(CFA_XSP16, literal(-8)))
        CFI (cfiCond51) V3 load(1, XDATA, add(CFA_XSP16, literal(-7)))
        CFI (cfiCond51) R7 load(1, XDATA, add(CFA_XSP16, literal(-6)))
        CFI (cfiCond51) ?RET_LOW load(1, XDATA, add(CFA_XSP16, literal(-5)))
        CFI (cfiCond51) ?RET_HIGH load(1, XDATA, add(CFA_XSP16, literal(-4)))
        CFI (cfiCond51) ?BRET_EXT load(1, XDATA, add(CFA_XSP16, literal(-3)))
        CFI (cfiCond51) DPL0 load(1, XDATA, add(CFA_XSP16, literal(-2)))
        CFI (cfiCond51) DPH0 load(1, XDATA, add(CFA_XSP16, literal(-1)))
        CFI (cfiCond51) CFA_SP SP+0
        CFI (cfiCond51) CFA_XSP16 add(XSP16, 16)
        CFI Block cfiPicker52 Using cfiCommon1
        CFI (cfiPicker52) NoFunction
        CFI (cfiPicker52) Picker
        MOV     DPL,A
        MOV     A,R3
        ADDC    A,#0x0
        MOV     DPH,A
        MOVX    A,@DPTR
        MOV     R0,A
        INC     DPTR
        MOVX    A,@DPTR
        MOV     DPH,A
        MOV     DPL,R0
        MOVX    A,@DPTR
        RET
        CFI EndBlock cfiCond50
        CFI EndBlock cfiCond51
        CFI EndBlock cfiPicker52

        RSEG BANKED_CODE:CODE:NOROOT(0)
?Subroutine12:
        CFI Block cfiCond53 Using cfiCommon0
        CFI NoFunction
        CFI Conditional ??CrossCallReturnLabel_24
        CFI R6 load(1, XDATA, add(CFA_XSP16, literal(-12)))
        CFI VB load(1, XDATA, add(CFA_XSP16, literal(-11)))
        CFI V0 load(1, XDATA, add(CFA_XSP16, literal(-10)))
        CFI V1 load(1, XDATA, add(CFA_XSP16, literal(-9)))
        CFI V2 load(1, XDATA, add(CFA_XSP16, literal(-8)))
        CFI V3 load(1, XDATA, add(CFA_XSP16, literal(-7)))
        CFI R7 load(1, XDATA, add(CFA_XSP16, literal(-6)))
        CFI ?RET_LOW load(1, XDATA, add(CFA_XSP16, literal(-5)))
        CFI ?RET_HIGH load(1, XDATA, add(CFA_XSP16, literal(-4)))
        CFI ?BRET_EXT load(1, XDATA, add(CFA_XSP16, literal(-3)))
        CFI DPL0 load(1, XDATA, add(CFA_XSP16, literal(-2)))
        CFI DPH0 load(1, XDATA, add(CFA_XSP16, literal(-1)))
        CFI CFA_SP SP+0
        CFI CFA_XSP16 add(XSP16, 16)
        CFI Block cfiCond54 Using cfiCommon0
        CFI (cfiCond54) NoFunction
        CFI (cfiCond54) Conditional ??CrossCallReturnLabel_25
        CFI (cfiCond54) R6 load(1, XDATA, add(CFA_XSP16, literal(-12)))
        CFI (cfiCond54) VB load(1, XDATA, add(CFA_XSP16, literal(-11)))
        CFI (cfiCond54) V0 load(1, XDATA, add(CFA_XSP16, literal(-10)))
        CFI (cfiCond54) V1 load(1, XDATA, add(CFA_XSP16, literal(-9)))
        CFI (cfiCond54) V2 load(1, XDATA, add(CFA_XSP16, literal(-8)))
        CFI (cfiCond54) V3 load(1, XDATA, add(CFA_XSP16, literal(-7)))
        CFI (cfiCond54) R7 load(1, XDATA, add(CFA_XSP16, literal(-6)))
        CFI (cfiCond54) ?RET_LOW load(1, XDATA, add(CFA_XSP16, literal(-5)))
        CFI (cfiCond54) ?RET_HIGH load(1, XDATA, add(CFA_XSP16, literal(-4)))
        CFI (cfiCond54) ?BRET_EXT load(1, XDATA, add(CFA_XSP16, literal(-3)))
        CFI (cfiCond54) DPL0 load(1, XDATA, add(CFA_XSP16, literal(-2)))
        CFI (cfiCond54) DPH0 load(1, XDATA, add(CFA_XSP16, literal(-1)))
        CFI (cfiCond54) CFA_SP SP+0
        CFI (cfiCond54) CFA_XSP16 add(XSP16, 16)
        CFI Block cfiCond55 Using cfiCommon0
        CFI (cfiCond55) NoFunction
        CFI (cfiCond55) Conditional ??CrossCallReturnLabel_26
        CFI (cfiCond55) R6 load(1, XDATA, add(CFA_XSP16, literal(-12)))
        CFI (cfiCond55) VB load(1, XDATA, add(CFA_XSP16, literal(-11)))
        CFI (cfiCond55) V0 load(1, XDATA, add(CFA_XSP16, literal(-10)))
        CFI (cfiCond55) V1 load(1, XDATA, add(CFA_XSP16, literal(-9)))
        CFI (cfiCond55) V2 load(1, XDATA, add(CFA_XSP16, literal(-8)))
        CFI (cfiCond55) V3 load(1, XDATA, add(CFA_XSP16, literal(-7)))
        CFI (cfiCond55) R7 load(1, XDATA, add(CFA_XSP16, literal(-6)))
        CFI (cfiCond55) ?RET_LOW load(1, XDATA, add(CFA_XSP16, literal(-5)))
        CFI (cfiCond55) ?RET_HIGH load(1, XDATA, add(CFA_XSP16, literal(-4)))
        CFI (cfiCond55) ?BRET_EXT load(1, XDATA, add(CFA_XSP16, literal(-3)))
        CFI (cfiCond55) DPL0 load(1, XDATA, add(CFA_XSP16, literal(-2)))
        CFI (cfiCond55) DPH0 load(1, XDATA, add(CFA_XSP16, literal(-1)))
        CFI (cfiCond55) CFA_SP SP+0
        CFI (cfiCond55) CFA_XSP16 add(XSP16, 16)
        CFI Block cfiPicker56 Using cfiCommon1
        CFI (cfiPicker56) NoFunction
        CFI (cfiPicker56) Picker
        LCALL   ??Subroutine28_4 & 0xFFFF
??CrossCallReturnLabel_63:
        RET
        CFI EndBlock cfiCond53
        CFI EndBlock cfiCond54
        CFI EndBlock cfiCond55
        CFI EndBlock cfiPicker56

        RSEG BANKED_CODE:CODE:NOROOT(0)
?Subroutine11:
        CFI Block cfiCond57 Using cfiCommon0
        CFI NoFunction
        CFI Conditional ??CrossCallReturnLabel_22
        CFI R6 load(1, XDATA, add(CFA_XSP16, literal(-12)))
        CFI VB load(1, XDATA, add(CFA_XSP16, literal(-11)))
        CFI V0 load(1, XDATA, add(CFA_XSP16, literal(-10)))
        CFI V1 load(1, XDATA, add(CFA_XSP16, literal(-9)))
        CFI V2 load(1, XDATA, add(CFA_XSP16, literal(-8)))
        CFI V3 load(1, XDATA, add(CFA_XSP16, literal(-7)))
        CFI R7 load(1, XDATA, add(CFA_XSP16, literal(-6)))
        CFI ?RET_LOW load(1, XDATA, add(CFA_XSP16, literal(-5)))
        CFI ?RET_HIGH load(1, XDATA, add(CFA_XSP16, literal(-4)))
        CFI ?BRET_EXT load(1, XDATA, add(CFA_XSP16, literal(-3)))
        CFI DPL0 load(1, XDATA, add(CFA_XSP16, literal(-2)))
        CFI DPH0 load(1, XDATA, add(CFA_XSP16, literal(-1)))
        CFI CFA_SP SP+0
        CFI CFA_XSP16 add(XSP16, 16)
        CFI Block cfiCond58 Using cfiCommon0
        CFI (cfiCond58) NoFunction
        CFI (cfiCond58) Conditional ??CrossCallReturnLabel_23
        CFI (cfiCond58) R6 load(1, XDATA, add(CFA_XSP16, literal(-12)))
        CFI (cfiCond58) VB load(1, XDATA, add(CFA_XSP16, literal(-11)))
        CFI (cfiCond58) V0 load(1, XDATA, add(CFA_XSP16, literal(-10)))
        CFI (cfiCond58) V1 load(1, XDATA, add(CFA_XSP16, literal(-9)))
        CFI (cfiCond58) V2 load(1, XDATA, add(CFA_XSP16, literal(-8)))
        CFI (cfiCond58) V3 load(1, XDATA, add(CFA_XSP16, literal(-7)))
        CFI (cfiCond58) R7 load(1, XDATA, add(CFA_XSP16, literal(-6)))
        CFI (cfiCond58) ?RET_LOW load(1, XDATA, add(CFA_XSP16, literal(-5)))
        CFI (cfiCond58) ?RET_HIGH load(1, XDATA, add(CFA_XSP16, literal(-4)))
        CFI (cfiCond58) ?BRET_EXT load(1, XDATA, add(CFA_XSP16, literal(-3)))
        CFI (cfiCond58) DPL0 load(1, XDATA, add(CFA_XSP16, literal(-2)))
        CFI (cfiCond58) DPH0 load(1, XDATA, add(CFA_XSP16, literal(-1)))
        CFI (cfiCond58) CFA_SP SP+0
        CFI (cfiCond58) CFA_XSP16 add(XSP16, 16)
        CFI Block cfiPicker59 Using cfiCommon1
        CFI (cfiPicker59) NoFunction
        CFI (cfiPicker59) Picker
        LCALL   ?Subroutine27 & 0xFFFF
??CrossCallReturnLabel_55:
        RET
        CFI EndBlock cfiCond57
        CFI EndBlock cfiCond58
        CFI EndBlock cfiPicker59

        RSEG BANKED_CODE:CODE:NOROOT(0)
?Subroutine27:
        CFI Block cfiCond60 Using cfiCommon0
        CFI NoFunction
        CFI Conditional ??CrossCallReturnLabel_55, ??CrossCallReturnLabel_22
        CFI R6 load(1, XDATA, add(CFA_XSP16, literal(-12)))
        CFI VB load(1, XDATA, add(CFA_XSP16, literal(-11)))
        CFI V0 load(1, XDATA, add(CFA_XSP16, literal(-10)))
        CFI V1 load(1, XDATA, add(CFA_XSP16, literal(-9)))
        CFI V2 load(1, XDATA, add(CFA_XSP16, literal(-8)))
        CFI V3 load(1, XDATA, add(CFA_XSP16, literal(-7)))
        CFI R7 load(1, XDATA, add(CFA_XSP16, literal(-6)))
        CFI ?RET_LOW load(1, XDATA, add(CFA_XSP16, literal(-5)))
        CFI ?RET_HIGH load(1, XDATA, add(CFA_XSP16, literal(-4)))
        CFI ?BRET_EXT load(1, XDATA, add(CFA_XSP16, literal(-3)))
        CFI DPL0 load(1, XDATA, add(CFA_XSP16, literal(-2)))
        CFI DPH0 load(1, XDATA, add(CFA_XSP16, literal(-1)))
        CFI CFA_SP SP+0
        CFI CFA_XSP16 add(XSP16, 16)
        CFI Block cfiCond61 Using cfiCommon0
        CFI (cfiCond61) NoFunction
        CFI (cfiCond61) Conditional ??CrossCallReturnLabel_55, ??CrossCallReturnLabel_23
        CFI (cfiCond61) R6 load(1, XDATA, add(CFA_XSP16, literal(-12)))
        CFI (cfiCond61) VB load(1, XDATA, add(CFA_XSP16, literal(-11)))
        CFI (cfiCond61) V0 load(1, XDATA, add(CFA_XSP16, literal(-10)))
        CFI (cfiCond61) V1 load(1, XDATA, add(CFA_XSP16, literal(-9)))
        CFI (cfiCond61) V2 load(1, XDATA, add(CFA_XSP16, literal(-8)))
        CFI (cfiCond61) V3 load(1, XDATA, add(CFA_XSP16, literal(-7)))
        CFI (cfiCond61) R7 load(1, XDATA, add(CFA_XSP16, literal(-6)))
        CFI (cfiCond61) ?RET_LOW load(1, XDATA, add(CFA_XSP16, literal(-5)))
        CFI (cfiCond61) ?RET_HIGH load(1, XDATA, add(CFA_XSP16, literal(-4)))
        CFI (cfiCond61) ?BRET_EXT load(1, XDATA, add(CFA_XSP16, literal(-3)))
        CFI (cfiCond61) DPL0 load(1, XDATA, add(CFA_XSP16, literal(-2)))
        CFI (cfiCond61) DPH0 load(1, XDATA, add(CFA_XSP16, literal(-1)))
        CFI (cfiCond61) CFA_SP SP+0
        CFI (cfiCond61) CFA_XSP16 add(XSP16, 16)
        CFI Block cfiCond62 Using cfiCommon0
        CFI (cfiCond62) NoFunction
        CFI (cfiCond62) Conditional ??CrossCallReturnLabel_56, ??CrossCallReturnLabel_0
        CFI (cfiCond62) R6 load(1, XDATA, add(CFA_XSP16, literal(-12)))
        CFI (cfiCond62) VB load(1, XDATA, add(CFA_XSP16, literal(-11)))
        CFI (cfiCond62) V0 load(1, XDATA, add(CFA_XSP16, literal(-10)))
        CFI (cfiCond62) V1 load(1, XDATA, add(CFA_XSP16, literal(-9)))
        CFI (cfiCond62) V2 load(1, XDATA, add(CFA_XSP16, literal(-8)))
        CFI (cfiCond62) V3 load(1, XDATA, add(CFA_XSP16, literal(-7)))
        CFI (cfiCond62) R7 load(1, XDATA, add(CFA_XSP16, literal(-6)))
        CFI (cfiCond62) ?RET_LOW load(1, XDATA, add(CFA_XSP16, literal(-5)))
        CFI (cfiCond62) ?RET_HIGH load(1, XDATA, add(CFA_XSP16, literal(-4)))
        CFI (cfiCond62) ?BRET_EXT load(1, XDATA, add(CFA_XSP16, literal(-3)))
        CFI (cfiCond62) DPL0 load(1, XDATA, add(CFA_XSP16, literal(-2)))
        CFI (cfiCond62) DPH0 load(1, XDATA, add(CFA_XSP16, literal(-1)))
        CFI (cfiCond62) CFA_SP SP+0
        CFI (cfiCond62) CFA_XSP16 add(XSP16, 16)
        CFI Block cfiCond63 Using cfiCommon0
        CFI (cfiCond63) NoFunction
        CFI (cfiCond63) Conditional ??CrossCallReturnLabel_56, ??CrossCallReturnLabel_1
        CFI (cfiCond63) R6 load(1, XDATA, add(CFA_XSP16, literal(-12)))
        CFI (cfiCond63) VB load(1, XDATA, add(CFA_XSP16, literal(-11)))
        CFI (cfiCond63) V0 load(1, XDATA, add(CFA_XSP16, literal(-10)))
        CFI (cfiCond63) V1 load(1, XDATA, add(CFA_XSP16, literal(-9)))
        CFI (cfiCond63) V2 load(1, XDATA, add(CFA_XSP16, literal(-8)))
        CFI (cfiCond63) V3 load(1, XDATA, add(CFA_XSP16, literal(-7)))
        CFI (cfiCond63) R7 load(1, XDATA, add(CFA_XSP16, literal(-6)))
        CFI (cfiCond63) ?RET_LOW load(1, XDATA, add(CFA_XSP16, literal(-5)))
        CFI (cfiCond63) ?RET_HIGH load(1, XDATA, add(CFA_XSP16, literal(-4)))
        CFI (cfiCond63) ?BRET_EXT load(1, XDATA, add(CFA_XSP16, literal(-3)))
        CFI (cfiCond63) DPL0 load(1, XDATA, add(CFA_XSP16, literal(-2)))
        CFI (cfiCond63) DPH0 load(1, XDATA, add(CFA_XSP16, literal(-1)))
        CFI (cfiCond63) CFA_SP SP+0
        CFI (cfiCond63) CFA_XSP16 add(XSP16, 16)
        CFI Block cfiPicker64 Using cfiCommon1
        CFI (cfiPicker64) NoFunction
        CFI (cfiPicker64) Picker
        LCALL   ?Subroutine35 & 0xFFFF
??CrossCallReturnLabel_95:
        RET
        CFI EndBlock cfiCond60
        CFI EndBlock cfiCond61
        CFI EndBlock cfiCond62
        CFI EndBlock cfiCond63
        CFI EndBlock cfiPicker64

        RSEG BANKED_CODE:CODE:NOROOT(0)
?Subroutine35:
        CFI Block cfiCond65 Using cfiCommon0
        CFI NoFunction
        CFI Conditional ??CrossCallReturnLabel_95, ??CrossCallReturnLabel_55, ??CrossCallReturnLabel_22
        CFI R6 load(1, XDATA, add(CFA_XSP16, literal(-12)))
        CFI VB load(1, XDATA, add(CFA_XSP16, literal(-11)))
        CFI V0 load(1, XDATA, add(CFA_XSP16, literal(-10)))
        CFI V1 load(1, XDATA, add(CFA_XSP16, literal(-9)))
        CFI V2 load(1, XDATA, add(CFA_XSP16, literal(-8)))
        CFI V3 load(1, XDATA, add(CFA_XSP16, literal(-7)))
        CFI R7 load(1, XDATA, add(CFA_XSP16, literal(-6)))
        CFI ?RET_LOW load(1, XDATA, add(CFA_XSP16, literal(-5)))
        CFI ?RET_HIGH load(1, XDATA, add(CFA_XSP16, literal(-4)))
        CFI ?BRET_EXT load(1, XDATA, add(CFA_XSP16, literal(-3)))
        CFI DPL0 load(1, XDATA, add(CFA_XSP16, literal(-2)))
        CFI DPH0 load(1, XDATA, add(CFA_XSP16, literal(-1)))
        CFI CFA_SP SP+0
        CFI CFA_XSP16 add(XSP16, 16)
        CFI Block cfiCond66 Using cfiCommon0
        CFI (cfiCond66) NoFunction
        CFI (cfiCond66) Conditional ??CrossCallReturnLabel_95, ??CrossCallReturnLabel_55, ??CrossCallReturnLabel_23
        CFI (cfiCond66) R6 load(1, XDATA, add(CFA_XSP16, literal(-12)))
        CFI (cfiCond66) VB load(1, XDATA, add(CFA_XSP16, literal(-11)))
        CFI (cfiCond66) V0 load(1, XDATA, add(CFA_XSP16, literal(-10)))
        CFI (cfiCond66) V1 load(1, XDATA, add(CFA_XSP16, literal(-9)))
        CFI (cfiCond66) V2 load(1, XDATA, add(CFA_XSP16, literal(-8)))
        CFI (cfiCond66) V3 load(1, XDATA, add(CFA_XSP16, literal(-7)))
        CFI (cfiCond66) R7 load(1, XDATA, add(CFA_XSP16, literal(-6)))
        CFI (cfiCond66) ?RET_LOW load(1, XDATA, add(CFA_XSP16, literal(-5)))
        CFI (cfiCond66) ?RET_HIGH load(1, XDATA, add(CFA_XSP16, literal(-4)))
        CFI (cfiCond66) ?BRET_EXT load(1, XDATA, add(CFA_XSP16, literal(-3)))
        CFI (cfiCond66) DPL0 load(1, XDATA, add(CFA_XSP16, literal(-2)))
        CFI (cfiCond66) DPH0 load(1, XDATA, add(CFA_XSP16, literal(-1)))
        CFI (cfiCond66) CFA_SP SP+0
        CFI (cfiCond66) CFA_XSP16 add(XSP16, 16)
        CFI Block cfiCond67 Using cfiCommon0
        CFI (cfiCond67) NoFunction
        CFI (cfiCond67) Conditional ??CrossCallReturnLabel_95, ??CrossCallReturnLabel_56, ??CrossCallReturnLabel_0
        CFI (cfiCond67) R6 load(1, XDATA, add(CFA_XSP16, literal(-12)))
        CFI (cfiCond67) VB load(1, XDATA, add(CFA_XSP16, literal(-11)))
        CFI (cfiCond67) V0 load(1, XDATA, add(CFA_XSP16, literal(-10)))
        CFI (cfiCond67) V1 load(1, XDATA, add(CFA_XSP16, literal(-9)))
        CFI (cfiCond67) V2 load(1, XDATA, add(CFA_XSP16, literal(-8)))
        CFI (cfiCond67) V3 load(1, XDATA, add(CFA_XSP16, literal(-7)))
        CFI (cfiCond67) R7 load(1, XDATA, add(CFA_XSP16, literal(-6)))
        CFI (cfiCond67) ?RET_LOW load(1, XDATA, add(CFA_XSP16, literal(-5)))
        CFI (cfiCond67) ?RET_HIGH load(1, XDATA, add(CFA_XSP16, literal(-4)))
        CFI (cfiCond67) ?BRET_EXT load(1, XDATA, add(CFA_XSP16, literal(-3)))
        CFI (cfiCond67) DPL0 load(1, XDATA, add(CFA_XSP16, literal(-2)))
        CFI (cfiCond67) DPH0 load(1, XDATA, add(CFA_XSP16, literal(-1)))
        CFI (cfiCond67) CFA_SP SP+0
        CFI (cfiCond67) CFA_XSP16 add(XSP16, 16)
        CFI Block cfiCond68 Using cfiCommon0
        CFI (cfiCond68) NoFunction
        CFI (cfiCond68) Conditional ??CrossCallReturnLabel_95, ??CrossCallReturnLabel_56, ??CrossCallReturnLabel_1
        CFI (cfiCond68) R6 load(1, XDATA, add(CFA_XSP16, literal(-12)))
        CFI (cfiCond68) VB load(1, XDATA, add(CFA_XSP16, literal(-11)))
        CFI (cfiCond68) V0 load(1, XDATA, add(CFA_XSP16, literal(-10)))
        CFI (cfiCond68) V1 load(1, XDATA, add(CFA_XSP16, literal(-9)))
        CFI (cfiCond68) V2 load(1, XDATA, add(CFA_XSP16, literal(-8)))
        CFI (cfiCond68) V3 load(1, XDATA, add(CFA_XSP16, literal(-7)))
        CFI (cfiCond68) R7 load(1, XDATA, add(CFA_XSP16, literal(-6)))
        CFI (cfiCond68) ?RET_LOW load(1, XDATA, add(CFA_XSP16, literal(-5)))
        CFI (cfiCond68) ?RET_HIGH load(1, XDATA, add(CFA_XSP16, literal(-4)))
        CFI (cfiCond68) ?BRET_EXT load(1, XDATA, add(CFA_XSP16, literal(-3)))
        CFI (cfiCond68) DPL0 load(1, XDATA, add(CFA_XSP16, literal(-2)))
        CFI (cfiCond68) DPH0 load(1, XDATA, add(CFA_XSP16, literal(-1)))
        CFI (cfiCond68) CFA_SP SP+0
        CFI (cfiCond68) CFA_XSP16 add(XSP16, 16)
        CFI Block cfiCond69 Using cfiCommon0
        CFI (cfiCond69) NoFunction
        CFI (cfiCond69) Conditional ??CrossCallReturnLabel_96, ??CrossCallReturnLabel_53, ??CrossCallReturnLabel_0
        CFI (cfiCond69) R6 load(1, XDATA, add(CFA_XSP16, literal(-12)))
        CFI (cfiCond69) VB load(1, XDATA, add(CFA_XSP16, literal(-11)))
        CFI (cfiCond69) V0 load(1, XDATA, add(CFA_XSP16, literal(-10)))
        CFI (cfiCond69) V1 load(1, XDATA, add(CFA_XSP16, literal(-9)))
        CFI (cfiCond69) V2 load(1, XDATA, add(CFA_XSP16, literal(-8)))
        CFI (cfiCond69) V3 load(1, XDATA, add(CFA_XSP16, literal(-7)))
        CFI (cfiCond69) R7 load(1, XDATA, add(CFA_XSP16, literal(-6)))
        CFI (cfiCond69) ?RET_LOW load(1, XDATA, add(CFA_XSP16, literal(-5)))
        CFI (cfiCond69) ?RET_HIGH load(1, XDATA, add(CFA_XSP16, literal(-4)))
        CFI (cfiCond69) ?BRET_EXT load(1, XDATA, add(CFA_XSP16, literal(-3)))
        CFI (cfiCond69) DPL0 load(1, XDATA, add(CFA_XSP16, literal(-2)))
        CFI (cfiCond69) DPH0 load(1, XDATA, add(CFA_XSP16, literal(-1)))
        CFI (cfiCond69) CFA_SP SP+0
        CFI (cfiCond69) CFA_XSP16 add(XSP16, 16)
        CFI Block cfiCond70 Using cfiCommon0
        CFI (cfiCond70) NoFunction
        CFI (cfiCond70) Conditional ??CrossCallReturnLabel_96, ??CrossCallReturnLabel_53, ??CrossCallReturnLabel_1
        CFI (cfiCond70) R6 load(1, XDATA, add(CFA_XSP16, literal(-12)))
        CFI (cfiCond70) VB load(1, XDATA, add(CFA_XSP16, literal(-11)))
        CFI (cfiCond70) V0 load(1, XDATA, add(CFA_XSP16, literal(-10)))
        CFI (cfiCond70) V1 load(1, XDATA, add(CFA_XSP16, literal(-9)))
        CFI (cfiCond70) V2 load(1, XDATA, add(CFA_XSP16, literal(-8)))
        CFI (cfiCond70) V3 load(1, XDATA, add(CFA_XSP16, literal(-7)))
        CFI (cfiCond70) R7 load(1, XDATA, add(CFA_XSP16, literal(-6)))
        CFI (cfiCond70) ?RET_LOW load(1, XDATA, add(CFA_XSP16, literal(-5)))
        CFI (cfiCond70) ?RET_HIGH load(1, XDATA, add(CFA_XSP16, literal(-4)))
        CFI (cfiCond70) ?BRET_EXT load(1, XDATA, add(CFA_XSP16, literal(-3)))
        CFI (cfiCond70) DPL0 load(1, XDATA, add(CFA_XSP16, literal(-2)))
        CFI (cfiCond70) DPH0 load(1, XDATA, add(CFA_XSP16, literal(-1)))
        CFI (cfiCond70) CFA_SP SP+0
        CFI (cfiCond70) CFA_XSP16 add(XSP16, 16)
        CFI Block cfiCond71 Using cfiCommon0
        CFI (cfiCond71) NoFunction
        CFI (cfiCond71) Conditional ??CrossCallReturnLabel_96, ??CrossCallReturnLabel_54, ??CrossCallReturnLabel_0
        CFI (cfiCond71) R6 load(1, XDATA, add(CFA_XSP16, literal(-12)))
        CFI (cfiCond71) VB load(1, XDATA, add(CFA_XSP16, literal(-11)))
        CFI (cfiCond71) V0 load(1, XDATA, add(CFA_XSP16, literal(-10)))
        CFI (cfiCond71) V1 load(1, XDATA, add(CFA_XSP16, literal(-9)))
        CFI (cfiCond71) V2 load(1, XDATA, add(CFA_XSP16, literal(-8)))
        CFI (cfiCond71) V3 load(1, XDATA, add(CFA_XSP16, literal(-7)))
        CFI (cfiCond71) R7 load(1, XDATA, add(CFA_XSP16, literal(-6)))
        CFI (cfiCond71) ?RET_LOW load(1, XDATA, add(CFA_XSP16, literal(-5)))
        CFI (cfiCond71) ?RET_HIGH load(1, XDATA, add(CFA_XSP16, literal(-4)))
        CFI (cfiCond71) ?BRET_EXT load(1, XDATA, add(CFA_XSP16, literal(-3)))
        CFI (cfiCond71) DPL0 load(1, XDATA, add(CFA_XSP16, literal(-2)))
        CFI (cfiCond71) DPH0 load(1, XDATA, add(CFA_XSP16, literal(-1)))
        CFI (cfiCond71) CFA_SP SP+0
        CFI (cfiCond71) CFA_XSP16 add(XSP16, 16)
        CFI Block cfiCond72 Using cfiCommon0
        CFI (cfiCond72) NoFunction
        CFI (cfiCond72) Conditional ??CrossCallReturnLabel_96, ??CrossCallReturnLabel_54, ??CrossCallReturnLabel_1
        CFI (cfiCond72) R6 load(1, XDATA, add(CFA_XSP16, literal(-12)))
        CFI (cfiCond72) VB load(1, XDATA, add(CFA_XSP16, literal(-11)))
        CFI (cfiCond72) V0 load(1, XDATA, add(CFA_XSP16, literal(-10)))
        CFI (cfiCond72) V1 load(1, XDATA, add(CFA_XSP16, literal(-9)))
        CFI (cfiCond72) V2 load(1, XDATA, add(CFA_XSP16, literal(-8)))
        CFI (cfiCond72) V3 load(1, XDATA, add(CFA_XSP16, literal(-7)))
        CFI (cfiCond72) R7 load(1, XDATA, add(CFA_XSP16, literal(-6)))
        CFI (cfiCond72) ?RET_LOW load(1, XDATA, add(CFA_XSP16, literal(-5)))
        CFI (cfiCond72) ?RET_HIGH load(1, XDATA, add(CFA_XSP16, literal(-4)))
        CFI (cfiCond72) ?BRET_EXT load(1, XDATA, add(CFA_XSP16, literal(-3)))
        CFI (cfiCond72) DPL0 load(1, XDATA, add(CFA_XSP16, literal(-2)))
        CFI (cfiCond72) DPH0 load(1, XDATA, add(CFA_XSP16, literal(-1)))
        CFI (cfiCond72) CFA_SP SP+0
        CFI (cfiCond72) CFA_XSP16 add(XSP16, 16)
        CFI Block cfiPicker73 Using cfiCommon1
        CFI (cfiPicker73) NoFunction
        CFI (cfiPicker73) Picker
        MOVX    @DPTR,A
        LCALL   ?Subroutine37 & 0xFFFF
??CrossCallReturnLabel_98:
        INC     DPTR
        INC     DPTR
        RET
        CFI EndBlock cfiCond65
        CFI EndBlock cfiCond66
        CFI EndBlock cfiCond67
        CFI EndBlock cfiCond68
        CFI EndBlock cfiCond69
        CFI EndBlock cfiCond70
        CFI EndBlock cfiCond71
        CFI EndBlock cfiCond72
        CFI EndBlock cfiPicker73

        RSEG BANKED_CODE:CODE:NOROOT(0)
?Subroutine10:
        CFI Block cfiCond74 Using cfiCommon0
        CFI NoFunction
        CFI Conditional ??CrossCallReturnLabel_20
        CFI R6 load(1, XDATA, add(CFA_XSP16, literal(-12)))
        CFI VB load(1, XDATA, add(CFA_XSP16, literal(-11)))
        CFI V0 load(1, XDATA, add(CFA_XSP16, literal(-10)))
        CFI V1 load(1, XDATA, add(CFA_XSP16, literal(-9)))
        CFI V2 load(1, XDATA, add(CFA_XSP16, literal(-8)))
        CFI V3 load(1, XDATA, add(CFA_XSP16, literal(-7)))
        CFI R7 load(1, XDATA, add(CFA_XSP16, literal(-6)))
        CFI ?RET_LOW load(1, XDATA, add(CFA_XSP16, literal(-5)))
        CFI ?RET_HIGH load(1, XDATA, add(CFA_XSP16, literal(-4)))
        CFI ?BRET_EXT load(1, XDATA, add(CFA_XSP16, literal(-3)))
        CFI DPL0 load(1, XDATA, add(CFA_XSP16, literal(-2)))
        CFI DPH0 load(1, XDATA, add(CFA_XSP16, literal(-1)))
        CFI CFA_SP SP+0
        CFI CFA_XSP16 add(XSP16, 16)
        CFI Block cfiCond75 Using cfiCommon0
        CFI (cfiCond75) NoFunction
        CFI (cfiCond75) Conditional ??CrossCallReturnLabel_21
        CFI (cfiCond75) R6 load(1, XDATA, add(CFA_XSP16, literal(-12)))
        CFI (cfiCond75) VB load(1, XDATA, add(CFA_XSP16, literal(-11)))
        CFI (cfiCond75) V0 load(1, XDATA, add(CFA_XSP16, literal(-10)))
        CFI (cfiCond75) V1 load(1, XDATA, add(CFA_XSP16, literal(-9)))
        CFI (cfiCond75) V2 load(1, XDATA, add(CFA_XSP16, literal(-8)))
        CFI (cfiCond75) V3 load(1, XDATA, add(CFA_XSP16, literal(-7)))
        CFI (cfiCond75) R7 load(1, XDATA, add(CFA_XSP16, literal(-6)))
        CFI (cfiCond75) ?RET_LOW load(1, XDATA, add(CFA_XSP16, literal(-5)))
        CFI (cfiCond75) ?RET_HIGH load(1, XDATA, add(CFA_XSP16, literal(-4)))
        CFI (cfiCond75) ?BRET_EXT load(1, XDATA, add(CFA_XSP16, literal(-3)))
        CFI (cfiCond75) DPL0 load(1, XDATA, add(CFA_XSP16, literal(-2)))
        CFI (cfiCond75) DPH0 load(1, XDATA, add(CFA_XSP16, literal(-1)))
        CFI (cfiCond75) CFA_SP SP+0
        CFI (cfiCond75) CFA_XSP16 add(XSP16, 16)
        CFI Block cfiPicker76 Using cfiCommon1
        CFI (cfiPicker76) NoFunction
        CFI (cfiPicker76) Picker
        LCALL   ??Subroutine28_4 & 0xFFFF
??CrossCallReturnLabel_64:
        LCALL   ?Subroutine33 & 0xFFFF
??CrossCallReturnLabel_94:
        INC     DPTR
        INC     DPTR
        RET
        CFI EndBlock cfiCond74
        CFI EndBlock cfiCond75
        CFI EndBlock cfiPicker76

        RSEG BANKED_CODE:CODE:NOROOT(0)
?Subroutine33:
        CFI Block cfiCond77 Using cfiCommon0
        CFI NoFunction
        CFI Conditional ??CrossCallReturnLabel_93
        CFI R6 load(1, XDATA, add(CFA_XSP16, literal(-12)))
        CFI VB load(1, XDATA, add(CFA_XSP16, literal(-11)))
        CFI V0 load(1, XDATA, add(CFA_XSP16, literal(-10)))
        CFI V1 load(1, XDATA, add(CFA_XSP16, literal(-9)))
        CFI V2 load(1, XDATA, add(CFA_XSP16, literal(-8)))
        CFI V3 load(1, XDATA, add(CFA_XSP16, literal(-7)))
        CFI R7 load(1, XDATA, add(CFA_XSP16, literal(-6)))
        CFI ?RET_LOW load(1, XDATA, add(CFA_XSP16, literal(-5)))
        CFI ?RET_HIGH load(1, XDATA, add(CFA_XSP16, literal(-4)))
        CFI ?BRET_EXT load(1, XDATA, add(CFA_XSP16, literal(-3)))
        CFI DPL0 load(1, XDATA, add(CFA_XSP16, literal(-2)))
        CFI DPH0 load(1, XDATA, add(CFA_XSP16, literal(-1)))
        CFI CFA_SP SP+0
        CFI CFA_XSP16 add(XSP16, 16)
        CFI Block cfiCond78 Using cfiCommon0
        CFI (cfiCond78) NoFunction
        CFI (cfiCond78) Conditional ??CrossCallReturnLabel_94, ??CrossCallReturnLabel_20
        CFI (cfiCond78) R6 load(1, XDATA, add(CFA_XSP16, literal(-12)))
        CFI (cfiCond78) VB load(1, XDATA, add(CFA_XSP16, literal(-11)))
        CFI (cfiCond78) V0 load(1, XDATA, add(CFA_XSP16, literal(-10)))
        CFI (cfiCond78) V1 load(1, XDATA, add(CFA_XSP16, literal(-9)))
        CFI (cfiCond78) V2 load(1, XDATA, add(CFA_XSP16, literal(-8)))
        CFI (cfiCond78) V3 load(1, XDATA, add(CFA_XSP16, literal(-7)))
        CFI (cfiCond78) R7 load(1, XDATA, add(CFA_XSP16, literal(-6)))
        CFI (cfiCond78) ?RET_LOW load(1, XDATA, add(CFA_XSP16, literal(-5)))
        CFI (cfiCond78) ?RET_HIGH load(1, XDATA, add(CFA_XSP16, literal(-4)))
        CFI (cfiCond78) ?BRET_EXT load(1, XDATA, add(CFA_XSP16, literal(-3)))
        CFI (cfiCond78) DPL0 load(1, XDATA, add(CFA_XSP16, literal(-2)))
        CFI (cfiCond78) DPH0 load(1, XDATA, add(CFA_XSP16, literal(-1)))
        CFI (cfiCond78) CFA_SP SP+0
        CFI (cfiCond78) CFA_XSP16 add(XSP16, 16)
        CFI Block cfiCond79 Using cfiCommon0
        CFI (cfiCond79) NoFunction
        CFI (cfiCond79) Conditional ??CrossCallReturnLabel_94, ??CrossCallReturnLabel_21
        CFI (cfiCond79) R6 load(1, XDATA, add(CFA_XSP16, literal(-12)))
        CFI (cfiCond79) VB load(1, XDATA, add(CFA_XSP16, literal(-11)))
        CFI (cfiCond79) V0 load(1, XDATA, add(CFA_XSP16, literal(-10)))
        CFI (cfiCond79) V1 load(1, XDATA, add(CFA_XSP16, literal(-9)))
        CFI (cfiCond79) V2 load(1, XDATA, add(CFA_XSP16, literal(-8)))
        CFI (cfiCond79) V3 load(1, XDATA, add(CFA_XSP16, literal(-7)))
        CFI (cfiCond79) R7 load(1, XDATA, add(CFA_XSP16, literal(-6)))
        CFI (cfiCond79) ?RET_LOW load(1, XDATA, add(CFA_XSP16, literal(-5)))
        CFI (cfiCond79) ?RET_HIGH load(1, XDATA, add(CFA_XSP16, literal(-4)))
        CFI (cfiCond79) ?BRET_EXT load(1, XDATA, add(CFA_XSP16, literal(-3)))
        CFI (cfiCond79) DPL0 load(1, XDATA, add(CFA_XSP16, literal(-2)))
        CFI (cfiCond79) DPH0 load(1, XDATA, add(CFA_XSP16, literal(-1)))
        CFI (cfiCond79) CFA_SP SP+0
        CFI (cfiCond79) CFA_XSP16 add(XSP16, 16)
        CFI Block cfiPicker80 Using cfiCommon1
        CFI (cfiPicker80) NoFunction
        CFI (cfiPicker80) Picker
        MOV     R0,A
        CFI Block cfiCond81 Using cfiCommon0
        CFI (cfiCond81) NoFunction
        CFI (cfiCond81) Conditional ??CrossCallReturnLabel_92
        CFI (cfiCond81) R6 load(1, XDATA, add(CFA_XSP16, literal(-12)))
        CFI (cfiCond81) VB load(1, XDATA, add(CFA_XSP16, literal(-11)))
        CFI (cfiCond81) V0 load(1, XDATA, add(CFA_XSP16, literal(-10)))
        CFI (cfiCond81) V1 load(1, XDATA, add(CFA_XSP16, literal(-9)))
        CFI (cfiCond81) V2 load(1, XDATA, add(CFA_XSP16, literal(-8)))
        CFI (cfiCond81) V3 load(1, XDATA, add(CFA_XSP16, literal(-7)))
        CFI (cfiCond81) R7 load(1, XDATA, add(CFA_XSP16, literal(-6)))
        CFI (cfiCond81) ?RET_LOW load(1, XDATA, add(CFA_XSP16, literal(-5)))
        CFI (cfiCond81) ?RET_HIGH load(1, XDATA, add(CFA_XSP16, literal(-4)))
        CFI (cfiCond81) ?BRET_EXT load(1, XDATA, add(CFA_XSP16, literal(-3)))
        CFI (cfiCond81) DPL0 load(1, XDATA, add(CFA_XSP16, literal(-2)))
        CFI (cfiCond81) DPH0 load(1, XDATA, add(CFA_XSP16, literal(-1)))
        CFI (cfiCond81) CFA_SP SP+0
        CFI (cfiCond81) CFA_XSP16 add(XSP16, 16)
??Subroutine33_0:
        INC     DPTR
        MOVX    A,@DPTR
        MOV     DPH,A
        MOV     DPL,R0
        INC     DPTR
        RET
        CFI EndBlock cfiCond77
        CFI EndBlock cfiCond78
        CFI EndBlock cfiCond79
        CFI EndBlock cfiPicker80
        CFI EndBlock cfiCond81

        RSEG BANKED_CODE:CODE:NOROOT(0)
?Subroutine9:
        CFI Block cfiCond82 Using cfiCommon0
        CFI NoFunction
        CFI Conditional ??CrossCallReturnLabel_18
        CFI R6 load(1, XDATA, add(CFA_XSP16, literal(-12)))
        CFI VB load(1, XDATA, add(CFA_XSP16, literal(-11)))
        CFI V0 load(1, XDATA, add(CFA_XSP16, literal(-10)))
        CFI V1 load(1, XDATA, add(CFA_XSP16, literal(-9)))
        CFI V2 load(1, XDATA, add(CFA_XSP16, literal(-8)))
        CFI V3 load(1, XDATA, add(CFA_XSP16, literal(-7)))
        CFI R7 load(1, XDATA, add(CFA_XSP16, literal(-6)))
        CFI ?RET_LOW load(1, XDATA, add(CFA_XSP16, literal(-5)))
        CFI ?RET_HIGH load(1, XDATA, add(CFA_XSP16, literal(-4)))
        CFI ?BRET_EXT load(1, XDATA, add(CFA_XSP16, literal(-3)))
        CFI DPL0 load(1, XDATA, add(CFA_XSP16, literal(-2)))
        CFI DPH0 load(1, XDATA, add(CFA_XSP16, literal(-1)))
        CFI CFA_SP SP+0
        CFI CFA_XSP16 add(XSP16, 16)
        CFI Block cfiCond83 Using cfiCommon0
        CFI (cfiCond83) NoFunction
        CFI (cfiCond83) Conditional ??CrossCallReturnLabel_19
        CFI (cfiCond83) R6 load(1, XDATA, add(CFA_XSP16, literal(-12)))
        CFI (cfiCond83) VB load(1, XDATA, add(CFA_XSP16, literal(-11)))
        CFI (cfiCond83) V0 load(1, XDATA, add(CFA_XSP16, literal(-10)))
        CFI (cfiCond83) V1 load(1, XDATA, add(CFA_XSP16, literal(-9)))
        CFI (cfiCond83) V2 load(1, XDATA, add(CFA_XSP16, literal(-8)))
        CFI (cfiCond83) V3 load(1, XDATA, add(CFA_XSP16, literal(-7)))
        CFI (cfiCond83) R7 load(1, XDATA, add(CFA_XSP16, literal(-6)))
        CFI (cfiCond83) ?RET_LOW load(1, XDATA, add(CFA_XSP16, literal(-5)))
        CFI (cfiCond83) ?RET_HIGH load(1, XDATA, add(CFA_XSP16, literal(-4)))
        CFI (cfiCond83) ?BRET_EXT load(1, XDATA, add(CFA_XSP16, literal(-3)))
        CFI (cfiCond83) DPL0 load(1, XDATA, add(CFA_XSP16, literal(-2)))
        CFI (cfiCond83) DPH0 load(1, XDATA, add(CFA_XSP16, literal(-1)))
        CFI (cfiCond83) CFA_SP SP+0
        CFI (cfiCond83) CFA_XSP16 add(XSP16, 16)
        CFI Block cfiPicker84 Using cfiCommon1
        CFI (cfiPicker84) NoFunction
        CFI (cfiPicker84) Picker
        LCALL   ??Subroutine28_4 & 0xFFFF
??CrossCallReturnLabel_65:
        ADD     A,#0x20
        LCALL   ?Subroutine31 & 0xFFFF
??CrossCallReturnLabel_88:
        RET
        CFI EndBlock cfiCond82
        CFI EndBlock cfiCond83
        CFI EndBlock cfiPicker84

        RSEG BANKED_CODE:CODE:NOROOT(0)
?Subroutine8:
        CFI Block cfiCond85 Using cfiCommon0
        CFI NoFunction
        CFI Conditional ??CrossCallReturnLabel_16
        CFI R6 load(1, XDATA, add(CFA_XSP16, literal(-12)))
        CFI VB load(1, XDATA, add(CFA_XSP16, literal(-11)))
        CFI V0 load(1, XDATA, add(CFA_XSP16, literal(-10)))
        CFI V1 load(1, XDATA, add(CFA_XSP16, literal(-9)))
        CFI V2 load(1, XDATA, add(CFA_XSP16, literal(-8)))
        CFI V3 load(1, XDATA, add(CFA_XSP16, literal(-7)))
        CFI R7 load(1, XDATA, add(CFA_XSP16, literal(-6)))
        CFI ?RET_LOW load(1, XDATA, add(CFA_XSP16, literal(-5)))
        CFI ?RET_HIGH load(1, XDATA, add(CFA_XSP16, literal(-4)))
        CFI ?BRET_EXT load(1, XDATA, add(CFA_XSP16, literal(-3)))
        CFI DPL0 load(1, XDATA, add(CFA_XSP16, literal(-2)))
        CFI DPH0 load(1, XDATA, add(CFA_XSP16, literal(-1)))
        CFI CFA_SP SP+0
        CFI CFA_XSP16 add(XSP16, 16)
        CFI Block cfiCond86 Using cfiCommon0
        CFI (cfiCond86) NoFunction
        CFI (cfiCond86) Conditional ??CrossCallReturnLabel_17
        CFI (cfiCond86) R6 load(1, XDATA, add(CFA_XSP16, literal(-12)))
        CFI (cfiCond86) VB load(1, XDATA, add(CFA_XSP16, literal(-11)))
        CFI (cfiCond86) V0 load(1, XDATA, add(CFA_XSP16, literal(-10)))
        CFI (cfiCond86) V1 load(1, XDATA, add(CFA_XSP16, literal(-9)))
        CFI (cfiCond86) V2 load(1, XDATA, add(CFA_XSP16, literal(-8)))
        CFI (cfiCond86) V3 load(1, XDATA, add(CFA_XSP16, literal(-7)))
        CFI (cfiCond86) R7 load(1, XDATA, add(CFA_XSP16, literal(-6)))
        CFI (cfiCond86) ?RET_LOW load(1, XDATA, add(CFA_XSP16, literal(-5)))
        CFI (cfiCond86) ?RET_HIGH load(1, XDATA, add(CFA_XSP16, literal(-4)))
        CFI (cfiCond86) ?BRET_EXT load(1, XDATA, add(CFA_XSP16, literal(-3)))
        CFI (cfiCond86) DPL0 load(1, XDATA, add(CFA_XSP16, literal(-2)))
        CFI (cfiCond86) DPH0 load(1, XDATA, add(CFA_XSP16, literal(-1)))
        CFI (cfiCond86) CFA_SP SP+0
        CFI (cfiCond86) CFA_XSP16 add(XSP16, 16)
        CFI Block cfiPicker87 Using cfiCommon1
        CFI (cfiPicker87) NoFunction
        CFI (cfiPicker87) Picker
        LCALL   ??Subroutine28_4 & 0xFFFF
??CrossCallReturnLabel_66:
        ADD     A,#0x1f
        LCALL   ?Subroutine31 & 0xFFFF
??CrossCallReturnLabel_87:
        RET
        CFI EndBlock cfiCond85
        CFI EndBlock cfiCond86
        CFI EndBlock cfiPicker87

        RSEG BANKED_CODE:CODE:NOROOT(0)
?Subroutine7:
        CFI Block cfiCond88 Using cfiCommon0
        CFI NoFunction
        CFI Conditional ??CrossCallReturnLabel_14
        CFI R6 load(1, XDATA, add(CFA_XSP16, literal(-12)))
        CFI VB load(1, XDATA, add(CFA_XSP16, literal(-11)))
        CFI V0 load(1, XDATA, add(CFA_XSP16, literal(-10)))
        CFI V1 load(1, XDATA, add(CFA_XSP16, literal(-9)))
        CFI V2 load(1, XDATA, add(CFA_XSP16, literal(-8)))
        CFI V3 load(1, XDATA, add(CFA_XSP16, literal(-7)))
        CFI R7 load(1, XDATA, add(CFA_XSP16, literal(-6)))
        CFI ?RET_LOW load(1, XDATA, add(CFA_XSP16, literal(-5)))
        CFI ?RET_HIGH load(1, XDATA, add(CFA_XSP16, literal(-4)))
        CFI ?BRET_EXT load(1, XDATA, add(CFA_XSP16, literal(-3)))
        CFI DPL0 load(1, XDATA, add(CFA_XSP16, literal(-2)))
        CFI DPH0 load(1, XDATA, add(CFA_XSP16, literal(-1)))
        CFI CFA_SP SP+0
        CFI CFA_XSP16 add(XSP16, 16)
        CFI Block cfiCond89 Using cfiCommon0
        CFI (cfiCond89) NoFunction
        CFI (cfiCond89) Conditional ??CrossCallReturnLabel_15
        CFI (cfiCond89) R6 load(1, XDATA, add(CFA_XSP16, literal(-12)))
        CFI (cfiCond89) VB load(1, XDATA, add(CFA_XSP16, literal(-11)))
        CFI (cfiCond89) V0 load(1, XDATA, add(CFA_XSP16, literal(-10)))
        CFI (cfiCond89) V1 load(1, XDATA, add(CFA_XSP16, literal(-9)))
        CFI (cfiCond89) V2 load(1, XDATA, add(CFA_XSP16, literal(-8)))
        CFI (cfiCond89) V3 load(1, XDATA, add(CFA_XSP16, literal(-7)))
        CFI (cfiCond89) R7 load(1, XDATA, add(CFA_XSP16, literal(-6)))
        CFI (cfiCond89) ?RET_LOW load(1, XDATA, add(CFA_XSP16, literal(-5)))
        CFI (cfiCond89) ?RET_HIGH load(1, XDATA, add(CFA_XSP16, literal(-4)))
        CFI (cfiCond89) ?BRET_EXT load(1, XDATA, add(CFA_XSP16, literal(-3)))
        CFI (cfiCond89) DPL0 load(1, XDATA, add(CFA_XSP16, literal(-2)))
        CFI (cfiCond89) DPH0 load(1, XDATA, add(CFA_XSP16, literal(-1)))
        CFI (cfiCond89) CFA_SP SP+0
        CFI (cfiCond89) CFA_XSP16 add(XSP16, 16)
        CFI Block cfiPicker90 Using cfiCommon1
        CFI (cfiPicker90) NoFunction
        CFI (cfiPicker90) Picker
        LCALL   ??Subroutine28_4 & 0xFFFF
??CrossCallReturnLabel_67:
        ADD     A,#0x1b
        LCALL   ?Subroutine31 & 0xFFFF
??CrossCallReturnLabel_86:
        RET
        CFI EndBlock cfiCond88
        CFI EndBlock cfiCond89
        CFI EndBlock cfiPicker90

        RSEG BANKED_CODE:CODE:NOROOT(0)
?Subroutine6:
        CFI Block cfiCond91 Using cfiCommon0
        CFI NoFunction
        CFI Conditional ??CrossCallReturnLabel_12
        CFI R6 load(1, XDATA, add(CFA_XSP16, literal(-12)))
        CFI VB load(1, XDATA, add(CFA_XSP16, literal(-11)))
        CFI V0 load(1, XDATA, add(CFA_XSP16, literal(-10)))
        CFI V1 load(1, XDATA, add(CFA_XSP16, literal(-9)))
        CFI V2 load(1, XDATA, add(CFA_XSP16, literal(-8)))
        CFI V3 load(1, XDATA, add(CFA_XSP16, literal(-7)))
        CFI R7 load(1, XDATA, add(CFA_XSP16, literal(-6)))
        CFI ?RET_LOW load(1, XDATA, add(CFA_XSP16, literal(-5)))
        CFI ?RET_HIGH load(1, XDATA, add(CFA_XSP16, literal(-4)))
        CFI ?BRET_EXT load(1, XDATA, add(CFA_XSP16, literal(-3)))
        CFI DPL0 load(1, XDATA, add(CFA_XSP16, literal(-2)))
        CFI DPH0 load(1, XDATA, add(CFA_XSP16, literal(-1)))
        CFI CFA_SP SP+0
        CFI CFA_XSP16 add(XSP16, 16)
        CFI Block cfiCond92 Using cfiCommon0
        CFI (cfiCond92) NoFunction
        CFI (cfiCond92) Conditional ??CrossCallReturnLabel_13
        CFI (cfiCond92) R6 load(1, XDATA, add(CFA_XSP16, literal(-12)))
        CFI (cfiCond92) VB load(1, XDATA, add(CFA_XSP16, literal(-11)))
        CFI (cfiCond92) V0 load(1, XDATA, add(CFA_XSP16, literal(-10)))
        CFI (cfiCond92) V1 load(1, XDATA, add(CFA_XSP16, literal(-9)))
        CFI (cfiCond92) V2 load(1, XDATA, add(CFA_XSP16, literal(-8)))
        CFI (cfiCond92) V3 load(1, XDATA, add(CFA_XSP16, literal(-7)))
        CFI (cfiCond92) R7 load(1, XDATA, add(CFA_XSP16, literal(-6)))
        CFI (cfiCond92) ?RET_LOW load(1, XDATA, add(CFA_XSP16, literal(-5)))
        CFI (cfiCond92) ?RET_HIGH load(1, XDATA, add(CFA_XSP16, literal(-4)))
        CFI (cfiCond92) ?BRET_EXT load(1, XDATA, add(CFA_XSP16, literal(-3)))
        CFI (cfiCond92) DPL0 load(1, XDATA, add(CFA_XSP16, literal(-2)))
        CFI (cfiCond92) DPH0 load(1, XDATA, add(CFA_XSP16, literal(-1)))
        CFI (cfiCond92) CFA_SP SP+0
        CFI (cfiCond92) CFA_XSP16 add(XSP16, 16)
        CFI Block cfiPicker93 Using cfiCommon1
        CFI (cfiPicker93) NoFunction
        CFI (cfiPicker93) Picker
        LCALL   ??Subroutine28_4 & 0xFFFF
??CrossCallReturnLabel_68:
        ADD     A,#0x1a
        LCALL   ?Subroutine31 & 0xFFFF
??CrossCallReturnLabel_85:
        RET
        CFI EndBlock cfiCond91
        CFI EndBlock cfiCond92
        CFI EndBlock cfiPicker93

        RSEG BANKED_CODE:CODE:NOROOT(0)
?Subroutine5:
        CFI Block cfiCond94 Using cfiCommon0
        CFI NoFunction
        CFI Conditional ??CrossCallReturnLabel_10
        CFI R6 load(1, XDATA, add(CFA_XSP16, literal(-12)))
        CFI VB load(1, XDATA, add(CFA_XSP16, literal(-11)))
        CFI V0 load(1, XDATA, add(CFA_XSP16, literal(-10)))
        CFI V1 load(1, XDATA, add(CFA_XSP16, literal(-9)))
        CFI V2 load(1, XDATA, add(CFA_XSP16, literal(-8)))
        CFI V3 load(1, XDATA, add(CFA_XSP16, literal(-7)))
        CFI R7 load(1, XDATA, add(CFA_XSP16, literal(-6)))
        CFI ?RET_LOW load(1, XDATA, add(CFA_XSP16, literal(-5)))
        CFI ?RET_HIGH load(1, XDATA, add(CFA_XSP16, literal(-4)))
        CFI ?BRET_EXT load(1, XDATA, add(CFA_XSP16, literal(-3)))
        CFI DPL0 load(1, XDATA, add(CFA_XSP16, literal(-2)))
        CFI DPH0 load(1, XDATA, add(CFA_XSP16, literal(-1)))
        CFI CFA_SP SP+0
        CFI CFA_XSP16 add(XSP16, 16)
        CFI Block cfiCond95 Using cfiCommon0
        CFI (cfiCond95) NoFunction
        CFI (cfiCond95) Conditional ??CrossCallReturnLabel_11
        CFI (cfiCond95) R6 load(1, XDATA, add(CFA_XSP16, literal(-12)))
        CFI (cfiCond95) VB load(1, XDATA, add(CFA_XSP16, literal(-11)))
        CFI (cfiCond95) V0 load(1, XDATA, add(CFA_XSP16, literal(-10)))
        CFI (cfiCond95) V1 load(1, XDATA, add(CFA_XSP16, literal(-9)))
        CFI (cfiCond95) V2 load(1, XDATA, add(CFA_XSP16, literal(-8)))
        CFI (cfiCond95) V3 load(1, XDATA, add(CFA_XSP16, literal(-7)))
        CFI (cfiCond95) R7 load(1, XDATA, add(CFA_XSP16, literal(-6)))
        CFI (cfiCond95) ?RET_LOW load(1, XDATA, add(CFA_XSP16, literal(-5)))
        CFI (cfiCond95) ?RET_HIGH load(1, XDATA, add(CFA_XSP16, literal(-4)))
        CFI (cfiCond95) ?BRET_EXT load(1, XDATA, add(CFA_XSP16, literal(-3)))
        CFI (cfiCond95) DPL0 load(1, XDATA, add(CFA_XSP16, literal(-2)))
        CFI (cfiCond95) DPH0 load(1, XDATA, add(CFA_XSP16, literal(-1)))
        CFI (cfiCond95) CFA_SP SP+0
        CFI (cfiCond95) CFA_XSP16 add(XSP16, 16)
        CFI Block cfiPicker96 Using cfiCommon1
        CFI (cfiPicker96) NoFunction
        CFI (cfiPicker96) Picker
        LCALL   ??Subroutine28_4 & 0xFFFF
??CrossCallReturnLabel_69:
        ADD     A,#0x19
        LCALL   ?Subroutine31 & 0xFFFF
??CrossCallReturnLabel_84:
        RET
        CFI EndBlock cfiCond94
        CFI EndBlock cfiCond95
        CFI EndBlock cfiPicker96

        RSEG BANKED_CODE:CODE:NOROOT(0)
?Subroutine31:
        CFI Block cfiCond97 Using cfiCommon0
        CFI NoFunction
        CFI Conditional ??CrossCallReturnLabel_89, ??CrossCallReturnLabel_34
        CFI R6 load(1, XDATA, add(CFA_XSP16, literal(-12)))
        CFI VB load(1, XDATA, add(CFA_XSP16, literal(-11)))
        CFI V0 load(1, XDATA, add(CFA_XSP16, literal(-10)))
        CFI V1 load(1, XDATA, add(CFA_XSP16, literal(-9)))
        CFI V2 load(1, XDATA, add(CFA_XSP16, literal(-8)))
        CFI V3 load(1, XDATA, add(CFA_XSP16, literal(-7)))
        CFI R7 load(1, XDATA, add(CFA_XSP16, literal(-6)))
        CFI ?RET_LOW load(1, XDATA, add(CFA_XSP16, literal(-5)))
        CFI ?RET_HIGH load(1, XDATA, add(CFA_XSP16, literal(-4)))
        CFI ?BRET_EXT load(1, XDATA, add(CFA_XSP16, literal(-3)))
        CFI DPL0 load(1, XDATA, add(CFA_XSP16, literal(-2)))
        CFI DPH0 load(1, XDATA, add(CFA_XSP16, literal(-1)))
        CFI CFA_SP SP+0
        CFI CFA_XSP16 add(XSP16, 16)
        CFI Block cfiCond98 Using cfiCommon0
        CFI (cfiCond98) NoFunction
        CFI (cfiCond98) Conditional ??CrossCallReturnLabel_89, ??CrossCallReturnLabel_35
        CFI (cfiCond98) R6 load(1, XDATA, add(CFA_XSP16, literal(-12)))
        CFI (cfiCond98) VB load(1, XDATA, add(CFA_XSP16, literal(-11)))
        CFI (cfiCond98) V0 load(1, XDATA, add(CFA_XSP16, literal(-10)))
        CFI (cfiCond98) V1 load(1, XDATA, add(CFA_XSP16, literal(-9)))
        CFI (cfiCond98) V2 load(1, XDATA, add(CFA_XSP16, literal(-8)))
        CFI (cfiCond98) V3 load(1, XDATA, add(CFA_XSP16, literal(-7)))
        CFI (cfiCond98) R7 load(1, XDATA, add(CFA_XSP16, literal(-6)))
        CFI (cfiCond98) ?RET_LOW load(1, XDATA, add(CFA_XSP16, literal(-5)))
        CFI (cfiCond98) ?RET_HIGH load(1, XDATA, add(CFA_XSP16, literal(-4)))
        CFI (cfiCond98) ?BRET_EXT load(1, XDATA, add(CFA_XSP16, literal(-3)))
        CFI (cfiCond98) DPL0 load(1, XDATA, add(CFA_XSP16, literal(-2)))
        CFI (cfiCond98) DPH0 load(1, XDATA, add(CFA_XSP16, literal(-1)))
        CFI (cfiCond98) CFA_SP SP+0
        CFI (cfiCond98) CFA_XSP16 add(XSP16, 16)
        CFI Block cfiCond99 Using cfiCommon0
        CFI (cfiCond99) NoFunction
        CFI (cfiCond99) Conditional ??CrossCallReturnLabel_88, ??CrossCallReturnLabel_18
        CFI (cfiCond99) R6 load(1, XDATA, add(CFA_XSP16, literal(-12)))
        CFI (cfiCond99) VB load(1, XDATA, add(CFA_XSP16, literal(-11)))
        CFI (cfiCond99) V0 load(1, XDATA, add(CFA_XSP16, literal(-10)))
        CFI (cfiCond99) V1 load(1, XDATA, add(CFA_XSP16, literal(-9)))
        CFI (cfiCond99) V2 load(1, XDATA, add(CFA_XSP16, literal(-8)))
        CFI (cfiCond99) V3 load(1, XDATA, add(CFA_XSP16, literal(-7)))
        CFI (cfiCond99) R7 load(1, XDATA, add(CFA_XSP16, literal(-6)))
        CFI (cfiCond99) ?RET_LOW load(1, XDATA, add(CFA_XSP16, literal(-5)))
        CFI (cfiCond99) ?RET_HIGH load(1, XDATA, add(CFA_XSP16, literal(-4)))
        CFI (cfiCond99) ?BRET_EXT load(1, XDATA, add(CFA_XSP16, literal(-3)))
        CFI (cfiCond99) DPL0 load(1, XDATA, add(CFA_XSP16, literal(-2)))
        CFI (cfiCond99) DPH0 load(1, XDATA, add(CFA_XSP16, literal(-1)))
        CFI (cfiCond99) CFA_SP SP+0
        CFI (cfiCond99) CFA_XSP16 add(XSP16, 16)
        CFI Block cfiCond100 Using cfiCommon0
        CFI (cfiCond100) NoFunction
        CFI (cfiCond100) Conditional ??CrossCallReturnLabel_88, ??CrossCallReturnLabel_19
        CFI (cfiCond100) R6 load(1, XDATA, add(CFA_XSP16, literal(-12)))
        CFI (cfiCond100) VB load(1, XDATA, add(CFA_XSP16, literal(-11)))
        CFI (cfiCond100) V0 load(1, XDATA, add(CFA_XSP16, literal(-10)))
        CFI (cfiCond100) V1 load(1, XDATA, add(CFA_XSP16, literal(-9)))
        CFI (cfiCond100) V2 load(1, XDATA, add(CFA_XSP16, literal(-8)))
        CFI (cfiCond100) V3 load(1, XDATA, add(CFA_XSP16, literal(-7)))
        CFI (cfiCond100) R7 load(1, XDATA, add(CFA_XSP16, literal(-6)))
        CFI (cfiCond100) ?RET_LOW load(1, XDATA, add(CFA_XSP16, literal(-5)))
        CFI (cfiCond100) ?RET_HIGH load(1, XDATA, add(CFA_XSP16, literal(-4)))
        CFI (cfiCond100) ?BRET_EXT load(1, XDATA, add(CFA_XSP16, literal(-3)))
        CFI (cfiCond100) DPL0 load(1, XDATA, add(CFA_XSP16, literal(-2)))
        CFI (cfiCond100) DPH0 load(1, XDATA, add(CFA_XSP16, literal(-1)))
        CFI (cfiCond100) CFA_SP SP+0
        CFI (cfiCond100) CFA_XSP16 add(XSP16, 16)
        CFI Block cfiCond101 Using cfiCommon0
        CFI (cfiCond101) NoFunction
        CFI (cfiCond101) Conditional ??CrossCallReturnLabel_87, ??CrossCallReturnLabel_16
        CFI (cfiCond101) R6 load(1, XDATA, add(CFA_XSP16, literal(-12)))
        CFI (cfiCond101) VB load(1, XDATA, add(CFA_XSP16, literal(-11)))
        CFI (cfiCond101) V0 load(1, XDATA, add(CFA_XSP16, literal(-10)))
        CFI (cfiCond101) V1 load(1, XDATA, add(CFA_XSP16, literal(-9)))
        CFI (cfiCond101) V2 load(1, XDATA, add(CFA_XSP16, literal(-8)))
        CFI (cfiCond101) V3 load(1, XDATA, add(CFA_XSP16, literal(-7)))
        CFI (cfiCond101) R7 load(1, XDATA, add(CFA_XSP16, literal(-6)))
        CFI (cfiCond101) ?RET_LOW load(1, XDATA, add(CFA_XSP16, literal(-5)))
        CFI (cfiCond101) ?RET_HIGH load(1, XDATA, add(CFA_XSP16, literal(-4)))
        CFI (cfiCond101) ?BRET_EXT load(1, XDATA, add(CFA_XSP16, literal(-3)))
        CFI (cfiCond101) DPL0 load(1, XDATA, add(CFA_XSP16, literal(-2)))
        CFI (cfiCond101) DPH0 load(1, XDATA, add(CFA_XSP16, literal(-1)))
        CFI (cfiCond101) CFA_SP SP+0
        CFI (cfiCond101) CFA_XSP16 add(XSP16, 16)
        CFI Block cfiCond102 Using cfiCommon0
        CFI (cfiCond102) NoFunction
        CFI (cfiCond102) Conditional ??CrossCallReturnLabel_87, ??CrossCallReturnLabel_17
        CFI (cfiCond102) R6 load(1, XDATA, add(CFA_XSP16, literal(-12)))
        CFI (cfiCond102) VB load(1, XDATA, add(CFA_XSP16, literal(-11)))
        CFI (cfiCond102) V0 load(1, XDATA, add(CFA_XSP16, literal(-10)))
        CFI (cfiCond102) V1 load(1, XDATA, add(CFA_XSP16, literal(-9)))
        CFI (cfiCond102) V2 load(1, XDATA, add(CFA_XSP16, literal(-8)))
        CFI (cfiCond102) V3 load(1, XDATA, add(CFA_XSP16, literal(-7)))
        CFI (cfiCond102) R7 load(1, XDATA, add(CFA_XSP16, literal(-6)))
        CFI (cfiCond102) ?RET_LOW load(1, XDATA, add(CFA_XSP16, literal(-5)))
        CFI (cfiCond102) ?RET_HIGH load(1, XDATA, add(CFA_XSP16, literal(-4)))
        CFI (cfiCond102) ?BRET_EXT load(1, XDATA, add(CFA_XSP16, literal(-3)))
        CFI (cfiCond102) DPL0 load(1, XDATA, add(CFA_XSP16, literal(-2)))
        CFI (cfiCond102) DPH0 load(1, XDATA, add(CFA_XSP16, literal(-1)))
        CFI (cfiCond102) CFA_SP SP+0
        CFI (cfiCond102) CFA_XSP16 add(XSP16, 16)
        CFI Block cfiCond103 Using cfiCommon0
        CFI (cfiCond103) NoFunction
        CFI (cfiCond103) Conditional ??CrossCallReturnLabel_86, ??CrossCallReturnLabel_14
        CFI (cfiCond103) R6 load(1, XDATA, add(CFA_XSP16, literal(-12)))
        CFI (cfiCond103) VB load(1, XDATA, add(CFA_XSP16, literal(-11)))
        CFI (cfiCond103) V0 load(1, XDATA, add(CFA_XSP16, literal(-10)))
        CFI (cfiCond103) V1 load(1, XDATA, add(CFA_XSP16, literal(-9)))
        CFI (cfiCond103) V2 load(1, XDATA, add(CFA_XSP16, literal(-8)))
        CFI (cfiCond103) V3 load(1, XDATA, add(CFA_XSP16, literal(-7)))
        CFI (cfiCond103) R7 load(1, XDATA, add(CFA_XSP16, literal(-6)))
        CFI (cfiCond103) ?RET_LOW load(1, XDATA, add(CFA_XSP16, literal(-5)))
        CFI (cfiCond103) ?RET_HIGH load(1, XDATA, add(CFA_XSP16, literal(-4)))
        CFI (cfiCond103) ?BRET_EXT load(1, XDATA, add(CFA_XSP16, literal(-3)))
        CFI (cfiCond103) DPL0 load(1, XDATA, add(CFA_XSP16, literal(-2)))
        CFI (cfiCond103) DPH0 load(1, XDATA, add(CFA_XSP16, literal(-1)))
        CFI (cfiCond103) CFA_SP SP+0
        CFI (cfiCond103) CFA_XSP16 add(XSP16, 16)
        CFI Block cfiCond104 Using cfiCommon0
        CFI (cfiCond104) NoFunction
        CFI (cfiCond104) Conditional ??CrossCallReturnLabel_86, ??CrossCallReturnLabel_15
        CFI (cfiCond104) R6 load(1, XDATA, add(CFA_XSP16, literal(-12)))
        CFI (cfiCond104) VB load(1, XDATA, add(CFA_XSP16, literal(-11)))
        CFI (cfiCond104) V0 load(1, XDATA, add(CFA_XSP16, literal(-10)))
        CFI (cfiCond104) V1 load(1, XDATA, add(CFA_XSP16, literal(-9)))
        CFI (cfiCond104) V2 load(1, XDATA, add(CFA_XSP16, literal(-8)))
        CFI (cfiCond104) V3 load(1, XDATA, add(CFA_XSP16, literal(-7)))
        CFI (cfiCond104) R7 load(1, XDATA, add(CFA_XSP16, literal(-6)))
        CFI (cfiCond104) ?RET_LOW load(1, XDATA, add(CFA_XSP16, literal(-5)))
        CFI (cfiCond104) ?RET_HIGH load(1, XDATA, add(CFA_XSP16, literal(-4)))
        CFI (cfiCond104) ?BRET_EXT load(1, XDATA, add(CFA_XSP16, literal(-3)))
        CFI (cfiCond104) DPL0 load(1, XDATA, add(CFA_XSP16, literal(-2)))
        CFI (cfiCond104) DPH0 load(1, XDATA, add(CFA_XSP16, literal(-1)))
        CFI (cfiCond104) CFA_SP SP+0
        CFI (cfiCond104) CFA_XSP16 add(XSP16, 16)
        CFI Block cfiCond105 Using cfiCommon0
        CFI (cfiCond105) NoFunction
        CFI (cfiCond105) Conditional ??CrossCallReturnLabel_85, ??CrossCallReturnLabel_12
        CFI (cfiCond105) R6 load(1, XDATA, add(CFA_XSP16, literal(-12)))
        CFI (cfiCond105) VB load(1, XDATA, add(CFA_XSP16, literal(-11)))
        CFI (cfiCond105) V0 load(1, XDATA, add(CFA_XSP16, literal(-10)))
        CFI (cfiCond105) V1 load(1, XDATA, add(CFA_XSP16, literal(-9)))
        CFI (cfiCond105) V2 load(1, XDATA, add(CFA_XSP16, literal(-8)))
        CFI (cfiCond105) V3 load(1, XDATA, add(CFA_XSP16, literal(-7)))
        CFI (cfiCond105) R7 load(1, XDATA, add(CFA_XSP16, literal(-6)))
        CFI (cfiCond105) ?RET_LOW load(1, XDATA, add(CFA_XSP16, literal(-5)))
        CFI (cfiCond105) ?RET_HIGH load(1, XDATA, add(CFA_XSP16, literal(-4)))
        CFI (cfiCond105) ?BRET_EXT load(1, XDATA, add(CFA_XSP16, literal(-3)))
        CFI (cfiCond105) DPL0 load(1, XDATA, add(CFA_XSP16, literal(-2)))
        CFI (cfiCond105) DPH0 load(1, XDATA, add(CFA_XSP16, literal(-1)))
        CFI (cfiCond105) CFA_SP SP+0
        CFI (cfiCond105) CFA_XSP16 add(XSP16, 16)
        CFI Block cfiCond106 Using cfiCommon0
        CFI (cfiCond106) NoFunction
        CFI (cfiCond106) Conditional ??CrossCallReturnLabel_85, ??CrossCallReturnLabel_13
        CFI (cfiCond106) R6 load(1, XDATA, add(CFA_XSP16, literal(-12)))
        CFI (cfiCond106) VB load(1, XDATA, add(CFA_XSP16, literal(-11)))
        CFI (cfiCond106) V0 load(1, XDATA, add(CFA_XSP16, literal(-10)))
        CFI (cfiCond106) V1 load(1, XDATA, add(CFA_XSP16, literal(-9)))
        CFI (cfiCond106) V2 load(1, XDATA, add(CFA_XSP16, literal(-8)))
        CFI (cfiCond106) V3 load(1, XDATA, add(CFA_XSP16, literal(-7)))
        CFI (cfiCond106) R7 load(1, XDATA, add(CFA_XSP16, literal(-6)))
        CFI (cfiCond106) ?RET_LOW load(1, XDATA, add(CFA_XSP16, literal(-5)))
        CFI (cfiCond106) ?RET_HIGH load(1, XDATA, add(CFA_XSP16, literal(-4)))
        CFI (cfiCond106) ?BRET_EXT load(1, XDATA, add(CFA_XSP16, literal(-3)))
        CFI (cfiCond106) DPL0 load(1, XDATA, add(CFA_XSP16, literal(-2)))
        CFI (cfiCond106) DPH0 load(1, XDATA, add(CFA_XSP16, literal(-1)))
        CFI (cfiCond106) CFA_SP SP+0
        CFI (cfiCond106) CFA_XSP16 add(XSP16, 16)
        CFI Block cfiCond107 Using cfiCommon0
        CFI (cfiCond107) NoFunction
        CFI (cfiCond107) Conditional ??CrossCallReturnLabel_84, ??CrossCallReturnLabel_10
        CFI (cfiCond107) R6 load(1, XDATA, add(CFA_XSP16, literal(-12)))
        CFI (cfiCond107) VB load(1, XDATA, add(CFA_XSP16, literal(-11)))
        CFI (cfiCond107) V0 load(1, XDATA, add(CFA_XSP16, literal(-10)))
        CFI (cfiCond107) V1 load(1, XDATA, add(CFA_XSP16, literal(-9)))
        CFI (cfiCond107) V2 load(1, XDATA, add(CFA_XSP16, literal(-8)))
        CFI (cfiCond107) V3 load(1, XDATA, add(CFA_XSP16, literal(-7)))
        CFI (cfiCond107) R7 load(1, XDATA, add(CFA_XSP16, literal(-6)))
        CFI (cfiCond107) ?RET_LOW load(1, XDATA, add(CFA_XSP16, literal(-5)))
        CFI (cfiCond107) ?RET_HIGH load(1, XDATA, add(CFA_XSP16, literal(-4)))
        CFI (cfiCond107) ?BRET_EXT load(1, XDATA, add(CFA_XSP16, literal(-3)))
        CFI (cfiCond107) DPL0 load(1, XDATA, add(CFA_XSP16, literal(-2)))
        CFI (cfiCond107) DPH0 load(1, XDATA, add(CFA_XSP16, literal(-1)))
        CFI (cfiCond107) CFA_SP SP+0
        CFI (cfiCond107) CFA_XSP16 add(XSP16, 16)
        CFI Block cfiCond108 Using cfiCommon0
        CFI (cfiCond108) NoFunction
        CFI (cfiCond108) Conditional ??CrossCallReturnLabel_84, ??CrossCallReturnLabel_11
        CFI (cfiCond108) R6 load(1, XDATA, add(CFA_XSP16, literal(-12)))
        CFI (cfiCond108) VB load(1, XDATA, add(CFA_XSP16, literal(-11)))
        CFI (cfiCond108) V0 load(1, XDATA, add(CFA_XSP16, literal(-10)))
        CFI (cfiCond108) V1 load(1, XDATA, add(CFA_XSP16, literal(-9)))
        CFI (cfiCond108) V2 load(1, XDATA, add(CFA_XSP16, literal(-8)))
        CFI (cfiCond108) V3 load(1, XDATA, add(CFA_XSP16, literal(-7)))
        CFI (cfiCond108) R7 load(1, XDATA, add(CFA_XSP16, literal(-6)))
        CFI (cfiCond108) ?RET_LOW load(1, XDATA, add(CFA_XSP16, literal(-5)))
        CFI (cfiCond108) ?RET_HIGH load(1, XDATA, add(CFA_XSP16, literal(-4)))
        CFI (cfiCond108) ?BRET_EXT load(1, XDATA, add(CFA_XSP16, literal(-3)))
        CFI (cfiCond108) DPL0 load(1, XDATA, add(CFA_XSP16, literal(-2)))
        CFI (cfiCond108) DPH0 load(1, XDATA, add(CFA_XSP16, literal(-1)))
        CFI (cfiCond108) CFA_SP SP+0
        CFI (cfiCond108) CFA_XSP16 add(XSP16, 16)
        CFI Block cfiCond109 Using cfiCommon0
        CFI (cfiCond109) NoFunction
        CFI (cfiCond109) Conditional ??CrossCallReturnLabel_83, ??CrossCallReturnLabel_8
        CFI (cfiCond109) R6 load(1, XDATA, add(CFA_XSP16, literal(-12)))
        CFI (cfiCond109) VB load(1, XDATA, add(CFA_XSP16, literal(-11)))
        CFI (cfiCond109) V0 load(1, XDATA, add(CFA_XSP16, literal(-10)))
        CFI (cfiCond109) V1 load(1, XDATA, add(CFA_XSP16, literal(-9)))
        CFI (cfiCond109) V2 load(1, XDATA, add(CFA_XSP16, literal(-8)))
        CFI (cfiCond109) V3 load(1, XDATA, add(CFA_XSP16, literal(-7)))
        CFI (cfiCond109) R7 load(1, XDATA, add(CFA_XSP16, literal(-6)))
        CFI (cfiCond109) ?RET_LOW load(1, XDATA, add(CFA_XSP16, literal(-5)))
        CFI (cfiCond109) ?RET_HIGH load(1, XDATA, add(CFA_XSP16, literal(-4)))
        CFI (cfiCond109) ?BRET_EXT load(1, XDATA, add(CFA_XSP16, literal(-3)))
        CFI (cfiCond109) DPL0 load(1, XDATA, add(CFA_XSP16, literal(-2)))
        CFI (cfiCond109) DPH0 load(1, XDATA, add(CFA_XSP16, literal(-1)))
        CFI (cfiCond109) CFA_SP SP+0
        CFI (cfiCond109) CFA_XSP16 add(XSP16, 16)
        CFI Block cfiCond110 Using cfiCommon0
        CFI (cfiCond110) NoFunction
        CFI (cfiCond110) Conditional ??CrossCallReturnLabel_83, ??CrossCallReturnLabel_9
        CFI (cfiCond110) R6 load(1, XDATA, add(CFA_XSP16, literal(-12)))
        CFI (cfiCond110) VB load(1, XDATA, add(CFA_XSP16, literal(-11)))
        CFI (cfiCond110) V0 load(1, XDATA, add(CFA_XSP16, literal(-10)))
        CFI (cfiCond110) V1 load(1, XDATA, add(CFA_XSP16, literal(-9)))
        CFI (cfiCond110) V2 load(1, XDATA, add(CFA_XSP16, literal(-8)))
        CFI (cfiCond110) V3 load(1, XDATA, add(CFA_XSP16, literal(-7)))
        CFI (cfiCond110) R7 load(1, XDATA, add(CFA_XSP16, literal(-6)))
        CFI (cfiCond110) ?RET_LOW load(1, XDATA, add(CFA_XSP16, literal(-5)))
        CFI (cfiCond110) ?RET_HIGH load(1, XDATA, add(CFA_XSP16, literal(-4)))
        CFI (cfiCond110) ?BRET_EXT load(1, XDATA, add(CFA_XSP16, literal(-3)))
        CFI (cfiCond110) DPL0 load(1, XDATA, add(CFA_XSP16, literal(-2)))
        CFI (cfiCond110) DPH0 load(1, XDATA, add(CFA_XSP16, literal(-1)))
        CFI (cfiCond110) CFA_SP SP+0
        CFI (cfiCond110) CFA_XSP16 add(XSP16, 16)
        CFI Block cfiCond111 Using cfiCommon0
        CFI (cfiCond111) NoFunction
        CFI (cfiCond111) Conditional ??CrossCallReturnLabel_82, ??CrossCallReturnLabel_6
        CFI (cfiCond111) R6 load(1, XDATA, add(CFA_XSP16, literal(-12)))
        CFI (cfiCond111) VB load(1, XDATA, add(CFA_XSP16, literal(-11)))
        CFI (cfiCond111) V0 load(1, XDATA, add(CFA_XSP16, literal(-10)))
        CFI (cfiCond111) V1 load(1, XDATA, add(CFA_XSP16, literal(-9)))
        CFI (cfiCond111) V2 load(1, XDATA, add(CFA_XSP16, literal(-8)))
        CFI (cfiCond111) V3 load(1, XDATA, add(CFA_XSP16, literal(-7)))
        CFI (cfiCond111) R7 load(1, XDATA, add(CFA_XSP16, literal(-6)))
        CFI (cfiCond111) ?RET_LOW load(1, XDATA, add(CFA_XSP16, literal(-5)))
        CFI (cfiCond111) ?RET_HIGH load(1, XDATA, add(CFA_XSP16, literal(-4)))
        CFI (cfiCond111) ?BRET_EXT load(1, XDATA, add(CFA_XSP16, literal(-3)))
        CFI (cfiCond111) DPL0 load(1, XDATA, add(CFA_XSP16, literal(-2)))
        CFI (cfiCond111) DPH0 load(1, XDATA, add(CFA_XSP16, literal(-1)))
        CFI (cfiCond111) CFA_SP SP+0
        CFI (cfiCond111) CFA_XSP16 add(XSP16, 16)
        CFI Block cfiCond112 Using cfiCommon0
        CFI (cfiCond112) NoFunction
        CFI (cfiCond112) Conditional ??CrossCallReturnLabel_82, ??CrossCallReturnLabel_7
        CFI (cfiCond112) R6 load(1, XDATA, add(CFA_XSP16, literal(-12)))
        CFI (cfiCond112) VB load(1, XDATA, add(CFA_XSP16, literal(-11)))
        CFI (cfiCond112) V0 load(1, XDATA, add(CFA_XSP16, literal(-10)))
        CFI (cfiCond112) V1 load(1, XDATA, add(CFA_XSP16, literal(-9)))
        CFI (cfiCond112) V2 load(1, XDATA, add(CFA_XSP16, literal(-8)))
        CFI (cfiCond112) V3 load(1, XDATA, add(CFA_XSP16, literal(-7)))
        CFI (cfiCond112) R7 load(1, XDATA, add(CFA_XSP16, literal(-6)))
        CFI (cfiCond112) ?RET_LOW load(1, XDATA, add(CFA_XSP16, literal(-5)))
        CFI (cfiCond112) ?RET_HIGH load(1, XDATA, add(CFA_XSP16, literal(-4)))
        CFI (cfiCond112) ?BRET_EXT load(1, XDATA, add(CFA_XSP16, literal(-3)))
        CFI (cfiCond112) DPL0 load(1, XDATA, add(CFA_XSP16, literal(-2)))
        CFI (cfiCond112) DPH0 load(1, XDATA, add(CFA_XSP16, literal(-1)))
        CFI (cfiCond112) CFA_SP SP+0
        CFI (cfiCond112) CFA_XSP16 add(XSP16, 16)
        CFI Block cfiCond113 Using cfiCommon0
        CFI (cfiCond113) NoFunction
        CFI (cfiCond113) Conditional ??CrossCallReturnLabel_81, ??CrossCallReturnLabel_4
        CFI (cfiCond113) R6 load(1, XDATA, add(CFA_XSP16, literal(-12)))
        CFI (cfiCond113) VB load(1, XDATA, add(CFA_XSP16, literal(-11)))
        CFI (cfiCond113) V0 load(1, XDATA, add(CFA_XSP16, literal(-10)))
        CFI (cfiCond113) V1 load(1, XDATA, add(CFA_XSP16, literal(-9)))
        CFI (cfiCond113) V2 load(1, XDATA, add(CFA_XSP16, literal(-8)))
        CFI (cfiCond113) V3 load(1, XDATA, add(CFA_XSP16, literal(-7)))
        CFI (cfiCond113) R7 load(1, XDATA, add(CFA_XSP16, literal(-6)))
        CFI (cfiCond113) ?RET_LOW load(1, XDATA, add(CFA_XSP16, literal(-5)))
        CFI (cfiCond113) ?RET_HIGH load(1, XDATA, add(CFA_XSP16, literal(-4)))
        CFI (cfiCond113) ?BRET_EXT load(1, XDATA, add(CFA_XSP16, literal(-3)))
        CFI (cfiCond113) DPL0 load(1, XDATA, add(CFA_XSP16, literal(-2)))
        CFI (cfiCond113) DPH0 load(1, XDATA, add(CFA_XSP16, literal(-1)))
        CFI (cfiCond113) CFA_SP SP+0
        CFI (cfiCond113) CFA_XSP16 add(XSP16, 16)
        CFI Block cfiCond114 Using cfiCommon0
        CFI (cfiCond114) NoFunction
        CFI (cfiCond114) Conditional ??CrossCallReturnLabel_81, ??CrossCallReturnLabel_5
        CFI (cfiCond114) R6 load(1, XDATA, add(CFA_XSP16, literal(-12)))
        CFI (cfiCond114) VB load(1, XDATA, add(CFA_XSP16, literal(-11)))
        CFI (cfiCond114) V0 load(1, XDATA, add(CFA_XSP16, literal(-10)))
        CFI (cfiCond114) V1 load(1, XDATA, add(CFA_XSP16, literal(-9)))
        CFI (cfiCond114) V2 load(1, XDATA, add(CFA_XSP16, literal(-8)))
        CFI (cfiCond114) V3 load(1, XDATA, add(CFA_XSP16, literal(-7)))
        CFI (cfiCond114) R7 load(1, XDATA, add(CFA_XSP16, literal(-6)))
        CFI (cfiCond114) ?RET_LOW load(1, XDATA, add(CFA_XSP16, literal(-5)))
        CFI (cfiCond114) ?RET_HIGH load(1, XDATA, add(CFA_XSP16, literal(-4)))
        CFI (cfiCond114) ?BRET_EXT load(1, XDATA, add(CFA_XSP16, literal(-3)))
        CFI (cfiCond114) DPL0 load(1, XDATA, add(CFA_XSP16, literal(-2)))
        CFI (cfiCond114) DPH0 load(1, XDATA, add(CFA_XSP16, literal(-1)))
        CFI (cfiCond114) CFA_SP SP+0
        CFI (cfiCond114) CFA_XSP16 add(XSP16, 16)
        CFI Block cfiCond115 Using cfiCommon0
        CFI (cfiCond115) NoFunction
        CFI (cfiCond115) Conditional ??CrossCallReturnLabel_80, ??CrossCallReturnLabel_2
        CFI (cfiCond115) R6 load(1, XDATA, add(CFA_XSP16, literal(-12)))
        CFI (cfiCond115) VB load(1, XDATA, add(CFA_XSP16, literal(-11)))
        CFI (cfiCond115) V0 load(1, XDATA, add(CFA_XSP16, literal(-10)))
        CFI (cfiCond115) V1 load(1, XDATA, add(CFA_XSP16, literal(-9)))
        CFI (cfiCond115) V2 load(1, XDATA, add(CFA_XSP16, literal(-8)))
        CFI (cfiCond115) V3 load(1, XDATA, add(CFA_XSP16, literal(-7)))
        CFI (cfiCond115) R7 load(1, XDATA, add(CFA_XSP16, literal(-6)))
        CFI (cfiCond115) ?RET_LOW load(1, XDATA, add(CFA_XSP16, literal(-5)))
        CFI (cfiCond115) ?RET_HIGH load(1, XDATA, add(CFA_XSP16, literal(-4)))
        CFI (cfiCond115) ?BRET_EXT load(1, XDATA, add(CFA_XSP16, literal(-3)))
        CFI (cfiCond115) DPL0 load(1, XDATA, add(CFA_XSP16, literal(-2)))
        CFI (cfiCond115) DPH0 load(1, XDATA, add(CFA_XSP16, literal(-1)))
        CFI (cfiCond115) CFA_SP SP+0
        CFI (cfiCond115) CFA_XSP16 add(XSP16, 16)
        CFI Block cfiCond116 Using cfiCommon0
        CFI (cfiCond116) NoFunction
        CFI (cfiCond116) Conditional ??CrossCallReturnLabel_80, ??CrossCallReturnLabel_3
        CFI (cfiCond116) R6 load(1, XDATA, add(CFA_XSP16, literal(-12)))
        CFI (cfiCond116) VB load(1, XDATA, add(CFA_XSP16, literal(-11)))
        CFI (cfiCond116) V0 load(1, XDATA, add(CFA_XSP16, literal(-10)))
        CFI (cfiCond116) V1 load(1, XDATA, add(CFA_XSP16, literal(-9)))
        CFI (cfiCond116) V2 load(1, XDATA, add(CFA_XSP16, literal(-8)))
        CFI (cfiCond116) V3 load(1, XDATA, add(CFA_XSP16, literal(-7)))
        CFI (cfiCond116) R7 load(1, XDATA, add(CFA_XSP16, literal(-6)))
        CFI (cfiCond116) ?RET_LOW load(1, XDATA, add(CFA_XSP16, literal(-5)))
        CFI (cfiCond116) ?RET_HIGH load(1, XDATA, add(CFA_XSP16, literal(-4)))
        CFI (cfiCond116) ?BRET_EXT load(1, XDATA, add(CFA_XSP16, literal(-3)))
        CFI (cfiCond116) DPL0 load(1, XDATA, add(CFA_XSP16, literal(-2)))
        CFI (cfiCond116) DPH0 load(1, XDATA, add(CFA_XSP16, literal(-1)))
        CFI (cfiCond116) CFA_SP SP+0
        CFI (cfiCond116) CFA_XSP16 add(XSP16, 16)
        CFI Block cfiCond117 Using cfiCommon0
        CFI (cfiCond117) NoFunction
        CFI (cfiCond117) Conditional ??CrossCallReturnLabel_79, ??CrossCallReturnLabel_0
        CFI (cfiCond117) R6 load(1, XDATA, add(CFA_XSP16, literal(-12)))
        CFI (cfiCond117) VB load(1, XDATA, add(CFA_XSP16, literal(-11)))
        CFI (cfiCond117) V0 load(1, XDATA, add(CFA_XSP16, literal(-10)))
        CFI (cfiCond117) V1 load(1, XDATA, add(CFA_XSP16, literal(-9)))
        CFI (cfiCond117) V2 load(1, XDATA, add(CFA_XSP16, literal(-8)))
        CFI (cfiCond117) V3 load(1, XDATA, add(CFA_XSP16, literal(-7)))
        CFI (cfiCond117) R7 load(1, XDATA, add(CFA_XSP16, literal(-6)))
        CFI (cfiCond117) ?RET_LOW load(1, XDATA, add(CFA_XSP16, literal(-5)))
        CFI (cfiCond117) ?RET_HIGH load(1, XDATA, add(CFA_XSP16, literal(-4)))
        CFI (cfiCond117) ?BRET_EXT load(1, XDATA, add(CFA_XSP16, literal(-3)))
        CFI (cfiCond117) DPL0 load(1, XDATA, add(CFA_XSP16, literal(-2)))
        CFI (cfiCond117) DPH0 load(1, XDATA, add(CFA_XSP16, literal(-1)))
        CFI (cfiCond117) CFA_SP SP+0
        CFI (cfiCond117) CFA_XSP16 add(XSP16, 16)
        CFI Block cfiCond118 Using cfiCommon0
        CFI (cfiCond118) NoFunction
        CFI (cfiCond118) Conditional ??CrossCallReturnLabel_79, ??CrossCallReturnLabel_1
        CFI (cfiCond118) R6 load(1, XDATA, add(CFA_XSP16, literal(-12)))
        CFI (cfiCond118) VB load(1, XDATA, add(CFA_XSP16, literal(-11)))
        CFI (cfiCond118) V0 load(1, XDATA, add(CFA_XSP16, literal(-10)))
        CFI (cfiCond118) V1 load(1, XDATA, add(CFA_XSP16, literal(-9)))
        CFI (cfiCond118) V2 load(1, XDATA, add(CFA_XSP16, literal(-8)))
        CFI (cfiCond118) V3 load(1, XDATA, add(CFA_XSP16, literal(-7)))
        CFI (cfiCond118) R7 load(1, XDATA, add(CFA_XSP16, literal(-6)))
        CFI (cfiCond118) ?RET_LOW load(1, XDATA, add(CFA_XSP16, literal(-5)))
        CFI (cfiCond118) ?RET_HIGH load(1, XDATA, add(CFA_XSP16, literal(-4)))
        CFI (cfiCond118) ?BRET_EXT load(1, XDATA, add(CFA_XSP16, literal(-3)))
        CFI (cfiCond118) DPL0 load(1, XDATA, add(CFA_XSP16, literal(-2)))
        CFI (cfiCond118) DPH0 load(1, XDATA, add(CFA_XSP16, literal(-1)))
        CFI (cfiCond118) CFA_SP SP+0
        CFI (cfiCond118) CFA_XSP16 add(XSP16, 16)
        CFI Block cfiPicker119 Using cfiCommon1
        CFI (cfiPicker119) NoFunction
        CFI (cfiPicker119) Picker
        LCALL   ?Subroutine38 & 0xFFFF
??CrossCallReturnLabel_99:
        RET
        CFI EndBlock cfiCond97
        CFI EndBlock cfiCond98
        CFI EndBlock cfiCond99
        CFI EndBlock cfiCond100
        CFI EndBlock cfiCond101
        CFI EndBlock cfiCond102
        CFI EndBlock cfiCond103
        CFI EndBlock cfiCond104
        CFI EndBlock cfiCond105
        CFI EndBlock cfiCond106
        CFI EndBlock cfiCond107
        CFI EndBlock cfiCond108
        CFI EndBlock cfiCond109
        CFI EndBlock cfiCond110
        CFI EndBlock cfiCond111
        CFI EndBlock cfiCond112
        CFI EndBlock cfiCond113
        CFI EndBlock cfiCond114
        CFI EndBlock cfiCond115
        CFI EndBlock cfiCond116
        CFI EndBlock cfiCond117
        CFI EndBlock cfiCond118
        CFI EndBlock cfiPicker119

        RSEG BANKED_CODE:CODE:NOROOT(0)
?Subroutine38:
        CFI Block cfiCond120 Using cfiCommon0
        CFI NoFunction
        CFI Conditional ??CrossCallReturnLabel_99, ??CrossCallReturnLabel_89, ??CrossCallReturnLabel_34
        CFI R6 load(1, XDATA, add(CFA_XSP16, literal(-12)))
        CFI VB load(1, XDATA, add(CFA_XSP16, literal(-11)))
        CFI V0 load(1, XDATA, add(CFA_XSP16, literal(-10)))
        CFI V1 load(1, XDATA, add(CFA_XSP16, literal(-9)))
        CFI V2 load(1, XDATA, add(CFA_XSP16, literal(-8)))
        CFI V3 load(1, XDATA, add(CFA_XSP16, literal(-7)))
        CFI R7 load(1, XDATA, add(CFA_XSP16, literal(-6)))
        CFI ?RET_LOW load(1, XDATA, add(CFA_XSP16, literal(-5)))
        CFI ?RET_HIGH load(1, XDATA, add(CFA_XSP16, literal(-4)))
        CFI ?BRET_EXT load(1, XDATA, add(CFA_XSP16, literal(-3)))
        CFI DPL0 load(1, XDATA, add(CFA_XSP16, literal(-2)))
        CFI DPH0 load(1, XDATA, add(CFA_XSP16, literal(-1)))
        CFI CFA_SP SP+0
        CFI CFA_XSP16 add(XSP16, 16)
        CFI Block cfiCond121 Using cfiCommon0
        CFI (cfiCond121) NoFunction
        CFI (cfiCond121) Conditional ??CrossCallReturnLabel_99, ??CrossCallReturnLabel_89, ??CrossCallReturnLabel_35
        CFI (cfiCond121) R6 load(1, XDATA, add(CFA_XSP16, literal(-12)))
        CFI (cfiCond121) VB load(1, XDATA, add(CFA_XSP16, literal(-11)))
        CFI (cfiCond121) V0 load(1, XDATA, add(CFA_XSP16, literal(-10)))
        CFI (cfiCond121) V1 load(1, XDATA, add(CFA_XSP16, literal(-9)))
        CFI (cfiCond121) V2 load(1, XDATA, add(CFA_XSP16, literal(-8)))
        CFI (cfiCond121) V3 load(1, XDATA, add(CFA_XSP16, literal(-7)))
        CFI (cfiCond121) R7 load(1, XDATA, add(CFA_XSP16, literal(-6)))
        CFI (cfiCond121) ?RET_LOW load(1, XDATA, add(CFA_XSP16, literal(-5)))
        CFI (cfiCond121) ?RET_HIGH load(1, XDATA, add(CFA_XSP16, literal(-4)))
        CFI (cfiCond121) ?BRET_EXT load(1, XDATA, add(CFA_XSP16, literal(-3)))
        CFI (cfiCond121) DPL0 load(1, XDATA, add(CFA_XSP16, literal(-2)))
        CFI (cfiCond121) DPH0 load(1, XDATA, add(CFA_XSP16, literal(-1)))
        CFI (cfiCond121) CFA_SP SP+0
        CFI (cfiCond121) CFA_XSP16 add(XSP16, 16)
        CFI Block cfiCond122 Using cfiCommon0
        CFI (cfiCond122) NoFunction
        CFI (cfiCond122) Conditional ??CrossCallReturnLabel_99, ??CrossCallReturnLabel_88, ??CrossCallReturnLabel_18
        CFI (cfiCond122) R6 load(1, XDATA, add(CFA_XSP16, literal(-12)))
        CFI (cfiCond122) VB load(1, XDATA, add(CFA_XSP16, literal(-11)))
        CFI (cfiCond122) V0 load(1, XDATA, add(CFA_XSP16, literal(-10)))
        CFI (cfiCond122) V1 load(1, XDATA, add(CFA_XSP16, literal(-9)))
        CFI (cfiCond122) V2 load(1, XDATA, add(CFA_XSP16, literal(-8)))
        CFI (cfiCond122) V3 load(1, XDATA, add(CFA_XSP16, literal(-7)))
        CFI (cfiCond122) R7 load(1, XDATA, add(CFA_XSP16, literal(-6)))
        CFI (cfiCond122) ?RET_LOW load(1, XDATA, add(CFA_XSP16, literal(-5)))
        CFI (cfiCond122) ?RET_HIGH load(1, XDATA, add(CFA_XSP16, literal(-4)))
        CFI (cfiCond122) ?BRET_EXT load(1, XDATA, add(CFA_XSP16, literal(-3)))
        CFI (cfiCond122) DPL0 load(1, XDATA, add(CFA_XSP16, literal(-2)))
        CFI (cfiCond122) DPH0 load(1, XDATA, add(CFA_XSP16, literal(-1)))
        CFI (cfiCond122) CFA_SP SP+0
        CFI (cfiCond122) CFA_XSP16 add(XSP16, 16)
        CFI Block cfiCond123 Using cfiCommon0
        CFI (cfiCond123) NoFunction
        CFI (cfiCond123) Conditional ??CrossCallReturnLabel_99, ??CrossCallReturnLabel_88, ??CrossCallReturnLabel_19
        CFI (cfiCond123) R6 load(1, XDATA, add(CFA_XSP16, literal(-12)))
        CFI (cfiCond123) VB load(1, XDATA, add(CFA_XSP16, literal(-11)))
        CFI (cfiCond123) V0 load(1, XDATA, add(CFA_XSP16, literal(-10)))
        CFI (cfiCond123) V1 load(1, XDATA, add(CFA_XSP16, literal(-9)))
        CFI (cfiCond123) V2 load(1, XDATA, add(CFA_XSP16, literal(-8)))
        CFI (cfiCond123) V3 load(1, XDATA, add(CFA_XSP16, literal(-7)))
        CFI (cfiCond123) R7 load(1, XDATA, add(CFA_XSP16, literal(-6)))
        CFI (cfiCond123) ?RET_LOW load(1, XDATA, add(CFA_XSP16, literal(-5)))
        CFI (cfiCond123) ?RET_HIGH load(1, XDATA, add(CFA_XSP16, literal(-4)))
        CFI (cfiCond123) ?BRET_EXT load(1, XDATA, add(CFA_XSP16, literal(-3)))
        CFI (cfiCond123) DPL0 load(1, XDATA, add(CFA_XSP16, literal(-2)))
        CFI (cfiCond123) DPH0 load(1, XDATA, add(CFA_XSP16, literal(-1)))
        CFI (cfiCond123) CFA_SP SP+0
        CFI (cfiCond123) CFA_XSP16 add(XSP16, 16)
        CFI Block cfiCond124 Using cfiCommon0
        CFI (cfiCond124) NoFunction
        CFI (cfiCond124) Conditional ??CrossCallReturnLabel_99, ??CrossCallReturnLabel_87, ??CrossCallReturnLabel_16
        CFI (cfiCond124) R6 load(1, XDATA, add(CFA_XSP16, literal(-12)))
        CFI (cfiCond124) VB load(1, XDATA, add(CFA_XSP16, literal(-11)))
        CFI (cfiCond124) V0 load(1, XDATA, add(CFA_XSP16, literal(-10)))
        CFI (cfiCond124) V1 load(1, XDATA, add(CFA_XSP16, literal(-9)))
        CFI (cfiCond124) V2 load(1, XDATA, add(CFA_XSP16, literal(-8)))
        CFI (cfiCond124) V3 load(1, XDATA, add(CFA_XSP16, literal(-7)))
        CFI (cfiCond124) R7 load(1, XDATA, add(CFA_XSP16, literal(-6)))
        CFI (cfiCond124) ?RET_LOW load(1, XDATA, add(CFA_XSP16, literal(-5)))
        CFI (cfiCond124) ?RET_HIGH load(1, XDATA, add(CFA_XSP16, literal(-4)))
        CFI (cfiCond124) ?BRET_EXT load(1, XDATA, add(CFA_XSP16, literal(-3)))
        CFI (cfiCond124) DPL0 load(1, XDATA, add(CFA_XSP16, literal(-2)))
        CFI (cfiCond124) DPH0 load(1, XDATA, add(CFA_XSP16, literal(-1)))
        CFI (cfiCond124) CFA_SP SP+0
        CFI (cfiCond124) CFA_XSP16 add(XSP16, 16)
        CFI Block cfiCond125 Using cfiCommon0
        CFI (cfiCond125) NoFunction
        CFI (cfiCond125) Conditional ??CrossCallReturnLabel_99, ??CrossCallReturnLabel_87, ??CrossCallReturnLabel_17
        CFI (cfiCond125) R6 load(1, XDATA, add(CFA_XSP16, literal(-12)))
        CFI (cfiCond125) VB load(1, XDATA, add(CFA_XSP16, literal(-11)))
        CFI (cfiCond125) V0 load(1, XDATA, add(CFA_XSP16, literal(-10)))
        CFI (cfiCond125) V1 load(1, XDATA, add(CFA_XSP16, literal(-9)))
        CFI (cfiCond125) V2 load(1, XDATA, add(CFA_XSP16, literal(-8)))
        CFI (cfiCond125) V3 load(1, XDATA, add(CFA_XSP16, literal(-7)))
        CFI (cfiCond125) R7 load(1, XDATA, add(CFA_XSP16, literal(-6)))
        CFI (cfiCond125) ?RET_LOW load(1, XDATA, add(CFA_XSP16, literal(-5)))
        CFI (cfiCond125) ?RET_HIGH load(1, XDATA, add(CFA_XSP16, literal(-4)))
        CFI (cfiCond125) ?BRET_EXT load(1, XDATA, add(CFA_XSP16, literal(-3)))
        CFI (cfiCond125) DPL0 load(1, XDATA, add(CFA_XSP16, literal(-2)))
        CFI (cfiCond125) DPH0 load(1, XDATA, add(CFA_XSP16, literal(-1)))
        CFI (cfiCond125) CFA_SP SP+0
        CFI (cfiCond125) CFA_XSP16 add(XSP16, 16)
        CFI Block cfiCond126 Using cfiCommon0
        CFI (cfiCond126) NoFunction
        CFI (cfiCond126) Conditional ??CrossCallReturnLabel_99, ??CrossCallReturnLabel_86, ??CrossCallReturnLabel_14
        CFI (cfiCond126) R6 load(1, XDATA, add(CFA_XSP16, literal(-12)))
        CFI (cfiCond126) VB load(1, XDATA, add(CFA_XSP16, literal(-11)))
        CFI (cfiCond126) V0 load(1, XDATA, add(CFA_XSP16, literal(-10)))
        CFI (cfiCond126) V1 load(1, XDATA, add(CFA_XSP16, literal(-9)))
        CFI (cfiCond126) V2 load(1, XDATA, add(CFA_XSP16, literal(-8)))
        CFI (cfiCond126) V3 load(1, XDATA, add(CFA_XSP16, literal(-7)))
        CFI (cfiCond126) R7 load(1, XDATA, add(CFA_XSP16, literal(-6)))
        CFI (cfiCond126) ?RET_LOW load(1, XDATA, add(CFA_XSP16, literal(-5)))
        CFI (cfiCond126) ?RET_HIGH load(1, XDATA, add(CFA_XSP16, literal(-4)))
        CFI (cfiCond126) ?BRET_EXT load(1, XDATA, add(CFA_XSP16, literal(-3)))
        CFI (cfiCond126) DPL0 load(1, XDATA, add(CFA_XSP16, literal(-2)))
        CFI (cfiCond126) DPH0 load(1, XDATA, add(CFA_XSP16, literal(-1)))
        CFI (cfiCond126) CFA_SP SP+0
        CFI (cfiCond126) CFA_XSP16 add(XSP16, 16)
        CFI Block cfiCond127 Using cfiCommon0
        CFI (cfiCond127) NoFunction
        CFI (cfiCond127) Conditional ??CrossCallReturnLabel_99, ??CrossCallReturnLabel_86, ??CrossCallReturnLabel_15
        CFI (cfiCond127) R6 load(1, XDATA, add(CFA_XSP16, literal(-12)))
        CFI (cfiCond127) VB load(1, XDATA, add(CFA_XSP16, literal(-11)))
        CFI (cfiCond127) V0 load(1, XDATA, add(CFA_XSP16, literal(-10)))
        CFI (cfiCond127) V1 load(1, XDATA, add(CFA_XSP16, literal(-9)))
        CFI (cfiCond127) V2 load(1, XDATA, add(CFA_XSP16, literal(-8)))
        CFI (cfiCond127) V3 load(1, XDATA, add(CFA_XSP16, literal(-7)))
        CFI (cfiCond127) R7 load(1, XDATA, add(CFA_XSP16, literal(-6)))
        CFI (cfiCond127) ?RET_LOW load(1, XDATA, add(CFA_XSP16, literal(-5)))
        CFI (cfiCond127) ?RET_HIGH load(1, XDATA, add(CFA_XSP16, literal(-4)))
        CFI (cfiCond127) ?BRET_EXT load(1, XDATA, add(CFA_XSP16, literal(-3)))
        CFI (cfiCond127) DPL0 load(1, XDATA, add(CFA_XSP16, literal(-2)))
        CFI (cfiCond127) DPH0 load(1, XDATA, add(CFA_XSP16, literal(-1)))
        CFI (cfiCond127) CFA_SP SP+0
        CFI (cfiCond127) CFA_XSP16 add(XSP16, 16)
        CFI Block cfiCond128 Using cfiCommon0
        CFI (cfiCond128) NoFunction
        CFI (cfiCond128) Conditional ??CrossCallReturnLabel_99, ??CrossCallReturnLabel_85, ??CrossCallReturnLabel_12
        CFI (cfiCond128) R6 load(1, XDATA, add(CFA_XSP16, literal(-12)))
        CFI (cfiCond128) VB load(1, XDATA, add(CFA_XSP16, literal(-11)))
        CFI (cfiCond128) V0 load(1, XDATA, add(CFA_XSP16, literal(-10)))
        CFI (cfiCond128) V1 load(1, XDATA, add(CFA_XSP16, literal(-9)))
        CFI (cfiCond128) V2 load(1, XDATA, add(CFA_XSP16, literal(-8)))
        CFI (cfiCond128) V3 load(1, XDATA, add(CFA_XSP16, literal(-7)))
        CFI (cfiCond128) R7 load(1, XDATA, add(CFA_XSP16, literal(-6)))
        CFI (cfiCond128) ?RET_LOW load(1, XDATA, add(CFA_XSP16, literal(-5)))
        CFI (cfiCond128) ?RET_HIGH load(1, XDATA, add(CFA_XSP16, literal(-4)))
        CFI (cfiCond128) ?BRET_EXT load(1, XDATA, add(CFA_XSP16, literal(-3)))
        CFI (cfiCond128) DPL0 load(1, XDATA, add(CFA_XSP16, literal(-2)))
        CFI (cfiCond128) DPH0 load(1, XDATA, add(CFA_XSP16, literal(-1)))
        CFI (cfiCond128) CFA_SP SP+0
        CFI (cfiCond128) CFA_XSP16 add(XSP16, 16)
        CFI Block cfiCond129 Using cfiCommon0
        CFI (cfiCond129) NoFunction
        CFI (cfiCond129) Conditional ??CrossCallReturnLabel_99, ??CrossCallReturnLabel_85, ??CrossCallReturnLabel_13
        CFI (cfiCond129) R6 load(1, XDATA, add(CFA_XSP16, literal(-12)))
        CFI (cfiCond129) VB load(1, XDATA, add(CFA_XSP16, literal(-11)))
        CFI (cfiCond129) V0 load(1, XDATA, add(CFA_XSP16, literal(-10)))
        CFI (cfiCond129) V1 load(1, XDATA, add(CFA_XSP16, literal(-9)))
        CFI (cfiCond129) V2 load(1, XDATA, add(CFA_XSP16, literal(-8)))
        CFI (cfiCond129) V3 load(1, XDATA, add(CFA_XSP16, literal(-7)))
        CFI (cfiCond129) R7 load(1, XDATA, add(CFA_XSP16, literal(-6)))
        CFI (cfiCond129) ?RET_LOW load(1, XDATA, add(CFA_XSP16, literal(-5)))
        CFI (cfiCond129) ?RET_HIGH load(1, XDATA, add(CFA_XSP16, literal(-4)))
        CFI (cfiCond129) ?BRET_EXT load(1, XDATA, add(CFA_XSP16, literal(-3)))
        CFI (cfiCond129) DPL0 load(1, XDATA, add(CFA_XSP16, literal(-2)))
        CFI (cfiCond129) DPH0 load(1, XDATA, add(CFA_XSP16, literal(-1)))
        CFI (cfiCond129) CFA_SP SP+0
        CFI (cfiCond129) CFA_XSP16 add(XSP16, 16)
        CFI Block cfiCond130 Using cfiCommon0
        CFI (cfiCond130) NoFunction
        CFI (cfiCond130) Conditional ??CrossCallReturnLabel_99, ??CrossCallReturnLabel_84, ??CrossCallReturnLabel_10
        CFI (cfiCond130) R6 load(1, XDATA, add(CFA_XSP16, literal(-12)))
        CFI (cfiCond130) VB load(1, XDATA, add(CFA_XSP16, literal(-11)))
        CFI (cfiCond130) V0 load(1, XDATA, add(CFA_XSP16, literal(-10)))
        CFI (cfiCond130) V1 load(1, XDATA, add(CFA_XSP16, literal(-9)))
        CFI (cfiCond130) V2 load(1, XDATA, add(CFA_XSP16, literal(-8)))
        CFI (cfiCond130) V3 load(1, XDATA, add(CFA_XSP16, literal(-7)))
        CFI (cfiCond130) R7 load(1, XDATA, add(CFA_XSP16, literal(-6)))
        CFI (cfiCond130) ?RET_LOW load(1, XDATA, add(CFA_XSP16, literal(-5)))
        CFI (cfiCond130) ?RET_HIGH load(1, XDATA, add(CFA_XSP16, literal(-4)))
        CFI (cfiCond130) ?BRET_EXT load(1, XDATA, add(CFA_XSP16, literal(-3)))
        CFI (cfiCond130) DPL0 load(1, XDATA, add(CFA_XSP16, literal(-2)))
        CFI (cfiCond130) DPH0 load(1, XDATA, add(CFA_XSP16, literal(-1)))
        CFI (cfiCond130) CFA_SP SP+0
        CFI (cfiCond130) CFA_XSP16 add(XSP16, 16)
        CFI Block cfiCond131 Using cfiCommon0
        CFI (cfiCond131) NoFunction
        CFI (cfiCond131) Conditional ??CrossCallReturnLabel_99, ??CrossCallReturnLabel_84, ??CrossCallReturnLabel_11
        CFI (cfiCond131) R6 load(1, XDATA, add(CFA_XSP16, literal(-12)))
        CFI (cfiCond131) VB load(1, XDATA, add(CFA_XSP16, literal(-11)))
        CFI (cfiCond131) V0 load(1, XDATA, add(CFA_XSP16, literal(-10)))
        CFI (cfiCond131) V1 load(1, XDATA, add(CFA_XSP16, literal(-9)))
        CFI (cfiCond131) V2 load(1, XDATA, add(CFA_XSP16, literal(-8)))
        CFI (cfiCond131) V3 load(1, XDATA, add(CFA_XSP16, literal(-7)))
        CFI (cfiCond131) R7 load(1, XDATA, add(CFA_XSP16, literal(-6)))
        CFI (cfiCond131) ?RET_LOW load(1, XDATA, add(CFA_XSP16, literal(-5)))
        CFI (cfiCond131) ?RET_HIGH load(1, XDATA, add(CFA_XSP16, literal(-4)))
        CFI (cfiCond131) ?BRET_EXT load(1, XDATA, add(CFA_XSP16, literal(-3)))
        CFI (cfiCond131) DPL0 load(1, XDATA, add(CFA_XSP16, literal(-2)))
        CFI (cfiCond131) DPH0 load(1, XDATA, add(CFA_XSP16, literal(-1)))
        CFI (cfiCond131) CFA_SP SP+0
        CFI (cfiCond131) CFA_XSP16 add(XSP16, 16)
        CFI Block cfiCond132 Using cfiCommon0
        CFI (cfiCond132) NoFunction
        CFI (cfiCond132) Conditional ??CrossCallReturnLabel_99, ??CrossCallReturnLabel_83, ??CrossCallReturnLabel_8
        CFI (cfiCond132) R6 load(1, XDATA, add(CFA_XSP16, literal(-12)))
        CFI (cfiCond132) VB load(1, XDATA, add(CFA_XSP16, literal(-11)))
        CFI (cfiCond132) V0 load(1, XDATA, add(CFA_XSP16, literal(-10)))
        CFI (cfiCond132) V1 load(1, XDATA, add(CFA_XSP16, literal(-9)))
        CFI (cfiCond132) V2 load(1, XDATA, add(CFA_XSP16, literal(-8)))
        CFI (cfiCond132) V3 load(1, XDATA, add(CFA_XSP16, literal(-7)))
        CFI (cfiCond132) R7 load(1, XDATA, add(CFA_XSP16, literal(-6)))
        CFI (cfiCond132) ?RET_LOW load(1, XDATA, add(CFA_XSP16, literal(-5)))
        CFI (cfiCond132) ?RET_HIGH load(1, XDATA, add(CFA_XSP16, literal(-4)))
        CFI (cfiCond132) ?BRET_EXT load(1, XDATA, add(CFA_XSP16, literal(-3)))
        CFI (cfiCond132) DPL0 load(1, XDATA, add(CFA_XSP16, literal(-2)))
        CFI (cfiCond132) DPH0 load(1, XDATA, add(CFA_XSP16, literal(-1)))
        CFI (cfiCond132) CFA_SP SP+0
        CFI (cfiCond132) CFA_XSP16 add(XSP16, 16)
        CFI Block cfiCond133 Using cfiCommon0
        CFI (cfiCond133) NoFunction
        CFI (cfiCond133) Conditional ??CrossCallReturnLabel_99, ??CrossCallReturnLabel_83, ??CrossCallReturnLabel_9
        CFI (cfiCond133) R6 load(1, XDATA, add(CFA_XSP16, literal(-12)))
        CFI (cfiCond133) VB load(1, XDATA, add(CFA_XSP16, literal(-11)))
        CFI (cfiCond133) V0 load(1, XDATA, add(CFA_XSP16, literal(-10)))
        CFI (cfiCond133) V1 load(1, XDATA, add(CFA_XSP16, literal(-9)))
        CFI (cfiCond133) V2 load(1, XDATA, add(CFA_XSP16, literal(-8)))
        CFI (cfiCond133) V3 load(1, XDATA, add(CFA_XSP16, literal(-7)))
        CFI (cfiCond133) R7 load(1, XDATA, add(CFA_XSP16, literal(-6)))
        CFI (cfiCond133) ?RET_LOW load(1, XDATA, add(CFA_XSP16, literal(-5)))
        CFI (cfiCond133) ?RET_HIGH load(1, XDATA, add(CFA_XSP16, literal(-4)))
        CFI (cfiCond133) ?BRET_EXT load(1, XDATA, add(CFA_XSP16, literal(-3)))
        CFI (cfiCond133) DPL0 load(1, XDATA, add(CFA_XSP16, literal(-2)))
        CFI (cfiCond133) DPH0 load(1, XDATA, add(CFA_XSP16, literal(-1)))
        CFI (cfiCond133) CFA_SP SP+0
        CFI (cfiCond133) CFA_XSP16 add(XSP16, 16)
        CFI Block cfiCond134 Using cfiCommon0
        CFI (cfiCond134) NoFunction
        CFI (cfiCond134) Conditional ??CrossCallReturnLabel_99, ??CrossCallReturnLabel_82, ??CrossCallReturnLabel_6
        CFI (cfiCond134) R6 load(1, XDATA, add(CFA_XSP16, literal(-12)))
        CFI (cfiCond134) VB load(1, XDATA, add(CFA_XSP16, literal(-11)))
        CFI (cfiCond134) V0 load(1, XDATA, add(CFA_XSP16, literal(-10)))
        CFI (cfiCond134) V1 load(1, XDATA, add(CFA_XSP16, literal(-9)))
        CFI (cfiCond134) V2 load(1, XDATA, add(CFA_XSP16, literal(-8)))
        CFI (cfiCond134) V3 load(1, XDATA, add(CFA_XSP16, literal(-7)))
        CFI (cfiCond134) R7 load(1, XDATA, add(CFA_XSP16, literal(-6)))
        CFI (cfiCond134) ?RET_LOW load(1, XDATA, add(CFA_XSP16, literal(-5)))
        CFI (cfiCond134) ?RET_HIGH load(1, XDATA, add(CFA_XSP16, literal(-4)))
        CFI (cfiCond134) ?BRET_EXT load(1, XDATA, add(CFA_XSP16, literal(-3)))
        CFI (cfiCond134) DPL0 load(1, XDATA, add(CFA_XSP16, literal(-2)))
        CFI (cfiCond134) DPH0 load(1, XDATA, add(CFA_XSP16, literal(-1)))
        CFI (cfiCond134) CFA_SP SP+0
        CFI (cfiCond134) CFA_XSP16 add(XSP16, 16)
        CFI Block cfiCond135 Using cfiCommon0
        CFI (cfiCond135) NoFunction
        CFI (cfiCond135) Conditional ??CrossCallReturnLabel_99, ??CrossCallReturnLabel_82, ??CrossCallReturnLabel_7
        CFI (cfiCond135) R6 load(1, XDATA, add(CFA_XSP16, literal(-12)))
        CFI (cfiCond135) VB load(1, XDATA, add(CFA_XSP16, literal(-11)))
        CFI (cfiCond135) V0 load(1, XDATA, add(CFA_XSP16, literal(-10)))
        CFI (cfiCond135) V1 load(1, XDATA, add(CFA_XSP16, literal(-9)))
        CFI (cfiCond135) V2 load(1, XDATA, add(CFA_XSP16, literal(-8)))
        CFI (cfiCond135) V3 load(1, XDATA, add(CFA_XSP16, literal(-7)))
        CFI (cfiCond135) R7 load(1, XDATA, add(CFA_XSP16, literal(-6)))
        CFI (cfiCond135) ?RET_LOW load(1, XDATA, add(CFA_XSP16, literal(-5)))
        CFI (cfiCond135) ?RET_HIGH load(1, XDATA, add(CFA_XSP16, literal(-4)))
        CFI (cfiCond135) ?BRET_EXT load(1, XDATA, add(CFA_XSP16, literal(-3)))
        CFI (cfiCond135) DPL0 load(1, XDATA, add(CFA_XSP16, literal(-2)))
        CFI (cfiCond135) DPH0 load(1, XDATA, add(CFA_XSP16, literal(-1)))
        CFI (cfiCond135) CFA_SP SP+0
        CFI (cfiCond135) CFA_XSP16 add(XSP16, 16)
        CFI Block cfiCond136 Using cfiCommon0
        CFI (cfiCond136) NoFunction
        CFI (cfiCond136) Conditional ??CrossCallReturnLabel_99, ??CrossCallReturnLabel_81, ??CrossCallReturnLabel_4
        CFI (cfiCond136) R6 load(1, XDATA, add(CFA_XSP16, literal(-12)))
        CFI (cfiCond136) VB load(1, XDATA, add(CFA_XSP16, literal(-11)))
        CFI (cfiCond136) V0 load(1, XDATA, add(CFA_XSP16, literal(-10)))
        CFI (cfiCond136) V1 load(1, XDATA, add(CFA_XSP16, literal(-9)))
        CFI (cfiCond136) V2 load(1, XDATA, add(CFA_XSP16, literal(-8)))
        CFI (cfiCond136) V3 load(1, XDATA, add(CFA_XSP16, literal(-7)))
        CFI (cfiCond136) R7 load(1, XDATA, add(CFA_XSP16, literal(-6)))
        CFI (cfiCond136) ?RET_LOW load(1, XDATA, add(CFA_XSP16, literal(-5)))
        CFI (cfiCond136) ?RET_HIGH load(1, XDATA, add(CFA_XSP16, literal(-4)))
        CFI (cfiCond136) ?BRET_EXT load(1, XDATA, add(CFA_XSP16, literal(-3)))
        CFI (cfiCond136) DPL0 load(1, XDATA, add(CFA_XSP16, literal(-2)))
        CFI (cfiCond136) DPH0 load(1, XDATA, add(CFA_XSP16, literal(-1)))
        CFI (cfiCond136) CFA_SP SP+0
        CFI (cfiCond136) CFA_XSP16 add(XSP16, 16)
        CFI Block cfiCond137 Using cfiCommon0
        CFI (cfiCond137) NoFunction
        CFI (cfiCond137) Conditional ??CrossCallReturnLabel_99, ??CrossCallReturnLabel_81, ??CrossCallReturnLabel_5
        CFI (cfiCond137) R6 load(1, XDATA, add(CFA_XSP16, literal(-12)))
        CFI (cfiCond137) VB load(1, XDATA, add(CFA_XSP16, literal(-11)))
        CFI (cfiCond137) V0 load(1, XDATA, add(CFA_XSP16, literal(-10)))
        CFI (cfiCond137) V1 load(1, XDATA, add(CFA_XSP16, literal(-9)))
        CFI (cfiCond137) V2 load(1, XDATA, add(CFA_XSP16, literal(-8)))
        CFI (cfiCond137) V3 load(1, XDATA, add(CFA_XSP16, literal(-7)))
        CFI (cfiCond137) R7 load(1, XDATA, add(CFA_XSP16, literal(-6)))
        CFI (cfiCond137) ?RET_LOW load(1, XDATA, add(CFA_XSP16, literal(-5)))
        CFI (cfiCond137) ?RET_HIGH load(1, XDATA, add(CFA_XSP16, literal(-4)))
        CFI (cfiCond137) ?BRET_EXT load(1, XDATA, add(CFA_XSP16, literal(-3)))
        CFI (cfiCond137) DPL0 load(1, XDATA, add(CFA_XSP16, literal(-2)))
        CFI (cfiCond137) DPH0 load(1, XDATA, add(CFA_XSP16, literal(-1)))
        CFI (cfiCond137) CFA_SP SP+0
        CFI (cfiCond137) CFA_XSP16 add(XSP16, 16)
        CFI Block cfiCond138 Using cfiCommon0
        CFI (cfiCond138) NoFunction
        CFI (cfiCond138) Conditional ??CrossCallReturnLabel_99, ??CrossCallReturnLabel_80, ??CrossCallReturnLabel_2
        CFI (cfiCond138) R6 load(1, XDATA, add(CFA_XSP16, literal(-12)))
        CFI (cfiCond138) VB load(1, XDATA, add(CFA_XSP16, literal(-11)))
        CFI (cfiCond138) V0 load(1, XDATA, add(CFA_XSP16, literal(-10)))
        CFI (cfiCond138) V1 load(1, XDATA, add(CFA_XSP16, literal(-9)))
        CFI (cfiCond138) V2 load(1, XDATA, add(CFA_XSP16, literal(-8)))
        CFI (cfiCond138) V3 load(1, XDATA, add(CFA_XSP16, literal(-7)))
        CFI (cfiCond138) R7 load(1, XDATA, add(CFA_XSP16, literal(-6)))
        CFI (cfiCond138) ?RET_LOW load(1, XDATA, add(CFA_XSP16, literal(-5)))
        CFI (cfiCond138) ?RET_HIGH load(1, XDATA, add(CFA_XSP16, literal(-4)))
        CFI (cfiCond138) ?BRET_EXT load(1, XDATA, add(CFA_XSP16, literal(-3)))
        CFI (cfiCond138) DPL0 load(1, XDATA, add(CFA_XSP16, literal(-2)))
        CFI (cfiCond138) DPH0 load(1, XDATA, add(CFA_XSP16, literal(-1)))
        CFI (cfiCond138) CFA_SP SP+0
        CFI (cfiCond138) CFA_XSP16 add(XSP16, 16)
        CFI Block cfiCond139 Using cfiCommon0
        CFI (cfiCond139) NoFunction
        CFI (cfiCond139) Conditional ??CrossCallReturnLabel_99, ??CrossCallReturnLabel_80, ??CrossCallReturnLabel_3
        CFI (cfiCond139) R6 load(1, XDATA, add(CFA_XSP16, literal(-12)))
        CFI (cfiCond139) VB load(1, XDATA, add(CFA_XSP16, literal(-11)))
        CFI (cfiCond139) V0 load(1, XDATA, add(CFA_XSP16, literal(-10)))
        CFI (cfiCond139) V1 load(1, XDATA, add(CFA_XSP16, literal(-9)))
        CFI (cfiCond139) V2 load(1, XDATA, add(CFA_XSP16, literal(-8)))
        CFI (cfiCond139) V3 load(1, XDATA, add(CFA_XSP16, literal(-7)))
        CFI (cfiCond139) R7 load(1, XDATA, add(CFA_XSP16, literal(-6)))
        CFI (cfiCond139) ?RET_LOW load(1, XDATA, add(CFA_XSP16, literal(-5)))
        CFI (cfiCond139) ?RET_HIGH load(1, XDATA, add(CFA_XSP16, literal(-4)))
        CFI (cfiCond139) ?BRET_EXT load(1, XDATA, add(CFA_XSP16, literal(-3)))
        CFI (cfiCond139) DPL0 load(1, XDATA, add(CFA_XSP16, literal(-2)))
        CFI (cfiCond139) DPH0 load(1, XDATA, add(CFA_XSP16, literal(-1)))
        CFI (cfiCond139) CFA_SP SP+0
        CFI (cfiCond139) CFA_XSP16 add(XSP16, 16)
        CFI Block cfiCond140 Using cfiCommon0
        CFI (cfiCond140) NoFunction
        CFI (cfiCond140) Conditional ??CrossCallReturnLabel_99, ??CrossCallReturnLabel_79, ??CrossCallReturnLabel_0
        CFI (cfiCond140) R6 load(1, XDATA, add(CFA_XSP16, literal(-12)))
        CFI (cfiCond140) VB load(1, XDATA, add(CFA_XSP16, literal(-11)))
        CFI (cfiCond140) V0 load(1, XDATA, add(CFA_XSP16, literal(-10)))
        CFI (cfiCond140) V1 load(1, XDATA, add(CFA_XSP16, literal(-9)))
        CFI (cfiCond140) V2 load(1, XDATA, add(CFA_XSP16, literal(-8)))
        CFI (cfiCond140) V3 load(1, XDATA, add(CFA_XSP16, literal(-7)))
        CFI (cfiCond140) R7 load(1, XDATA, add(CFA_XSP16, literal(-6)))
        CFI (cfiCond140) ?RET_LOW load(1, XDATA, add(CFA_XSP16, literal(-5)))
        CFI (cfiCond140) ?RET_HIGH load(1, XDATA, add(CFA_XSP16, literal(-4)))
        CFI (cfiCond140) ?BRET_EXT load(1, XDATA, add(CFA_XSP16, literal(-3)))
        CFI (cfiCond140) DPL0 load(1, XDATA, add(CFA_XSP16, literal(-2)))
        CFI (cfiCond140) DPH0 load(1, XDATA, add(CFA_XSP16, literal(-1)))
        CFI (cfiCond140) CFA_SP SP+0
        CFI (cfiCond140) CFA_XSP16 add(XSP16, 16)
        CFI Block cfiCond141 Using cfiCommon0
        CFI (cfiCond141) NoFunction
        CFI (cfiCond141) Conditional ??CrossCallReturnLabel_99, ??CrossCallReturnLabel_79, ??CrossCallReturnLabel_1
        CFI (cfiCond141) R6 load(1, XDATA, add(CFA_XSP16, literal(-12)))
        CFI (cfiCond141) VB load(1, XDATA, add(CFA_XSP16, literal(-11)))
        CFI (cfiCond141) V0 load(1, XDATA, add(CFA_XSP16, literal(-10)))
        CFI (cfiCond141) V1 load(1, XDATA, add(CFA_XSP16, literal(-9)))
        CFI (cfiCond141) V2 load(1, XDATA, add(CFA_XSP16, literal(-8)))
        CFI (cfiCond141) V3 load(1, XDATA, add(CFA_XSP16, literal(-7)))
        CFI (cfiCond141) R7 load(1, XDATA, add(CFA_XSP16, literal(-6)))
        CFI (cfiCond141) ?RET_LOW load(1, XDATA, add(CFA_XSP16, literal(-5)))
        CFI (cfiCond141) ?RET_HIGH load(1, XDATA, add(CFA_XSP16, literal(-4)))
        CFI (cfiCond141) ?BRET_EXT load(1, XDATA, add(CFA_XSP16, literal(-3)))
        CFI (cfiCond141) DPL0 load(1, XDATA, add(CFA_XSP16, literal(-2)))
        CFI (cfiCond141) DPH0 load(1, XDATA, add(CFA_XSP16, literal(-1)))
        CFI (cfiCond141) CFA_SP SP+0
        CFI (cfiCond141) CFA_XSP16 add(XSP16, 16)
        CFI Block cfiCond142 Using cfiCommon0
        CFI (cfiCond142) NoFunction
        CFI (cfiCond142) Conditional ??CrossCallReturnLabel_100, ??CrossCallReturnLabel_135, ??CrossCallReturnLabel_76, ??CrossCallReturnLabel_0
        CFI (cfiCond142) R6 load(1, XDATA, add(CFA_XSP16, literal(-12)))
        CFI (cfiCond142) VB load(1, XDATA, add(CFA_XSP16, literal(-11)))
        CFI (cfiCond142) V0 load(1, XDATA, add(CFA_XSP16, literal(-10)))
        CFI (cfiCond142) V1 load(1, XDATA, add(CFA_XSP16, literal(-9)))
        CFI (cfiCond142) V2 load(1, XDATA, add(CFA_XSP16, literal(-8)))
        CFI (cfiCond142) V3 load(1, XDATA, add(CFA_XSP16, literal(-7)))
        CFI (cfiCond142) R7 load(1, XDATA, add(CFA_XSP16, literal(-6)))
        CFI (cfiCond142) ?RET_LOW load(1, XDATA, add(CFA_XSP16, literal(-5)))
        CFI (cfiCond142) ?RET_HIGH load(1, XDATA, add(CFA_XSP16, literal(-4)))
        CFI (cfiCond142) ?BRET_EXT load(1, XDATA, add(CFA_XSP16, literal(-3)))
        CFI (cfiCond142) DPL0 load(1, XDATA, add(CFA_XSP16, literal(-2)))
        CFI (cfiCond142) DPH0 load(1, XDATA, add(CFA_XSP16, literal(-1)))
        CFI (cfiCond142) CFA_SP SP+0
        CFI (cfiCond142) CFA_XSP16 add(XSP16, 16)
        CFI Block cfiCond143 Using cfiCommon0
        CFI (cfiCond143) NoFunction
        CFI (cfiCond143) Conditional ??CrossCallReturnLabel_100, ??CrossCallReturnLabel_135, ??CrossCallReturnLabel_76, ??CrossCallReturnLabel_1
        CFI (cfiCond143) R6 load(1, XDATA, add(CFA_XSP16, literal(-12)))
        CFI (cfiCond143) VB load(1, XDATA, add(CFA_XSP16, literal(-11)))
        CFI (cfiCond143) V0 load(1, XDATA, add(CFA_XSP16, literal(-10)))
        CFI (cfiCond143) V1 load(1, XDATA, add(CFA_XSP16, literal(-9)))
        CFI (cfiCond143) V2 load(1, XDATA, add(CFA_XSP16, literal(-8)))
        CFI (cfiCond143) V3 load(1, XDATA, add(CFA_XSP16, literal(-7)))
        CFI (cfiCond143) R7 load(1, XDATA, add(CFA_XSP16, literal(-6)))
        CFI (cfiCond143) ?RET_LOW load(1, XDATA, add(CFA_XSP16, literal(-5)))
        CFI (cfiCond143) ?RET_HIGH load(1, XDATA, add(CFA_XSP16, literal(-4)))
        CFI (cfiCond143) ?BRET_EXT load(1, XDATA, add(CFA_XSP16, literal(-3)))
        CFI (cfiCond143) DPL0 load(1, XDATA, add(CFA_XSP16, literal(-2)))
        CFI (cfiCond143) DPH0 load(1, XDATA, add(CFA_XSP16, literal(-1)))
        CFI (cfiCond143) CFA_SP SP+0
        CFI (cfiCond143) CFA_XSP16 add(XSP16, 16)
        CFI Block cfiCond144 Using cfiCommon0
        CFI (cfiCond144) NoFunction
        CFI (cfiCond144) Conditional ??CrossCallReturnLabel_100, ??CrossCallReturnLabel_135, ??CrossCallReturnLabel_77, ??CrossCallReturnLabel_0
        CFI (cfiCond144) R6 load(1, XDATA, add(CFA_XSP16, literal(-12)))
        CFI (cfiCond144) VB load(1, XDATA, add(CFA_XSP16, literal(-11)))
        CFI (cfiCond144) V0 load(1, XDATA, add(CFA_XSP16, literal(-10)))
        CFI (cfiCond144) V1 load(1, XDATA, add(CFA_XSP16, literal(-9)))
        CFI (cfiCond144) V2 load(1, XDATA, add(CFA_XSP16, literal(-8)))
        CFI (cfiCond144) V3 load(1, XDATA, add(CFA_XSP16, literal(-7)))
        CFI (cfiCond144) R7 load(1, XDATA, add(CFA_XSP16, literal(-6)))
        CFI (cfiCond144) ?RET_LOW load(1, XDATA, add(CFA_XSP16, literal(-5)))
        CFI (cfiCond144) ?RET_HIGH load(1, XDATA, add(CFA_XSP16, literal(-4)))
        CFI (cfiCond144) ?BRET_EXT load(1, XDATA, add(CFA_XSP16, literal(-3)))
        CFI (cfiCond144) DPL0 load(1, XDATA, add(CFA_XSP16, literal(-2)))
        CFI (cfiCond144) DPH0 load(1, XDATA, add(CFA_XSP16, literal(-1)))
        CFI (cfiCond144) CFA_SP SP+0
        CFI (cfiCond144) CFA_XSP16 add(XSP16, 16)
        CFI Block cfiCond145 Using cfiCommon0
        CFI (cfiCond145) NoFunction
        CFI (cfiCond145) Conditional ??CrossCallReturnLabel_100, ??CrossCallReturnLabel_135, ??CrossCallReturnLabel_77, ??CrossCallReturnLabel_1
        CFI (cfiCond145) R6 load(1, XDATA, add(CFA_XSP16, literal(-12)))
        CFI (cfiCond145) VB load(1, XDATA, add(CFA_XSP16, literal(-11)))
        CFI (cfiCond145) V0 load(1, XDATA, add(CFA_XSP16, literal(-10)))
        CFI (cfiCond145) V1 load(1, XDATA, add(CFA_XSP16, literal(-9)))
        CFI (cfiCond145) V2 load(1, XDATA, add(CFA_XSP16, literal(-8)))
        CFI (cfiCond145) V3 load(1, XDATA, add(CFA_XSP16, literal(-7)))
        CFI (cfiCond145) R7 load(1, XDATA, add(CFA_XSP16, literal(-6)))
        CFI (cfiCond145) ?RET_LOW load(1, XDATA, add(CFA_XSP16, literal(-5)))
        CFI (cfiCond145) ?RET_HIGH load(1, XDATA, add(CFA_XSP16, literal(-4)))
        CFI (cfiCond145) ?BRET_EXT load(1, XDATA, add(CFA_XSP16, literal(-3)))
        CFI (cfiCond145) DPL0 load(1, XDATA, add(CFA_XSP16, literal(-2)))
        CFI (cfiCond145) DPH0 load(1, XDATA, add(CFA_XSP16, literal(-1)))
        CFI (cfiCond145) CFA_SP SP+0
        CFI (cfiCond145) CFA_XSP16 add(XSP16, 16)
        CFI Block cfiCond146 Using cfiCommon0
        CFI (cfiCond146) NoFunction
        CFI (cfiCond146) Conditional ??CrossCallReturnLabel_100, ??CrossCallReturnLabel_135, ??CrossCallReturnLabel_78, ??CrossCallReturnLabel_0
        CFI (cfiCond146) R6 load(1, XDATA, add(CFA_XSP16, literal(-12)))
        CFI (cfiCond146) VB load(1, XDATA, add(CFA_XSP16, literal(-11)))
        CFI (cfiCond146) V0 load(1, XDATA, add(CFA_XSP16, literal(-10)))
        CFI (cfiCond146) V1 load(1, XDATA, add(CFA_XSP16, literal(-9)))
        CFI (cfiCond146) V2 load(1, XDATA, add(CFA_XSP16, literal(-8)))
        CFI (cfiCond146) V3 load(1, XDATA, add(CFA_XSP16, literal(-7)))
        CFI (cfiCond146) R7 load(1, XDATA, add(CFA_XSP16, literal(-6)))
        CFI (cfiCond146) ?RET_LOW load(1, XDATA, add(CFA_XSP16, literal(-5)))
        CFI (cfiCond146) ?RET_HIGH load(1, XDATA, add(CFA_XSP16, literal(-4)))
        CFI (cfiCond146) ?BRET_EXT load(1, XDATA, add(CFA_XSP16, literal(-3)))
        CFI (cfiCond146) DPL0 load(1, XDATA, add(CFA_XSP16, literal(-2)))
        CFI (cfiCond146) DPH0 load(1, XDATA, add(CFA_XSP16, literal(-1)))
        CFI (cfiCond146) CFA_SP SP+0
        CFI (cfiCond146) CFA_XSP16 add(XSP16, 16)
        CFI Block cfiCond147 Using cfiCommon0
        CFI (cfiCond147) NoFunction
        CFI (cfiCond147) Conditional ??CrossCallReturnLabel_100, ??CrossCallReturnLabel_135, ??CrossCallReturnLabel_78, ??CrossCallReturnLabel_1
        CFI (cfiCond147) R6 load(1, XDATA, add(CFA_XSP16, literal(-12)))
        CFI (cfiCond147) VB load(1, XDATA, add(CFA_XSP16, literal(-11)))
        CFI (cfiCond147) V0 load(1, XDATA, add(CFA_XSP16, literal(-10)))
        CFI (cfiCond147) V1 load(1, XDATA, add(CFA_XSP16, literal(-9)))
        CFI (cfiCond147) V2 load(1, XDATA, add(CFA_XSP16, literal(-8)))
        CFI (cfiCond147) V3 load(1, XDATA, add(CFA_XSP16, literal(-7)))
        CFI (cfiCond147) R7 load(1, XDATA, add(CFA_XSP16, literal(-6)))
        CFI (cfiCond147) ?RET_LOW load(1, XDATA, add(CFA_XSP16, literal(-5)))
        CFI (cfiCond147) ?RET_HIGH load(1, XDATA, add(CFA_XSP16, literal(-4)))
        CFI (cfiCond147) ?BRET_EXT load(1, XDATA, add(CFA_XSP16, literal(-3)))
        CFI (cfiCond147) DPL0 load(1, XDATA, add(CFA_XSP16, literal(-2)))
        CFI (cfiCond147) DPH0 load(1, XDATA, add(CFA_XSP16, literal(-1)))
        CFI (cfiCond147) CFA_SP SP+0
        CFI (cfiCond147) CFA_XSP16 add(XSP16, 16)
        CFI Block cfiCond148 Using cfiCommon0
        CFI (cfiCond148) NoFunction
        CFI (cfiCond148) Conditional ??CrossCallReturnLabel_100, ??CrossCallReturnLabel_134, ??CrossCallReturnLabel_74, ??CrossCallReturnLabel_0
        CFI (cfiCond148) R6 load(1, XDATA, add(CFA_XSP16, literal(-12)))
        CFI (cfiCond148) VB load(1, XDATA, add(CFA_XSP16, literal(-11)))
        CFI (cfiCond148) V0 load(1, XDATA, add(CFA_XSP16, literal(-10)))
        CFI (cfiCond148) V1 load(1, XDATA, add(CFA_XSP16, literal(-9)))
        CFI (cfiCond148) V2 load(1, XDATA, add(CFA_XSP16, literal(-8)))
        CFI (cfiCond148) V3 load(1, XDATA, add(CFA_XSP16, literal(-7)))
        CFI (cfiCond148) R7 load(1, XDATA, add(CFA_XSP16, literal(-6)))
        CFI (cfiCond148) ?RET_LOW load(1, XDATA, add(CFA_XSP16, literal(-5)))
        CFI (cfiCond148) ?RET_HIGH load(1, XDATA, add(CFA_XSP16, literal(-4)))
        CFI (cfiCond148) ?BRET_EXT load(1, XDATA, add(CFA_XSP16, literal(-3)))
        CFI (cfiCond148) DPL0 load(1, XDATA, add(CFA_XSP16, literal(-2)))
        CFI (cfiCond148) DPH0 load(1, XDATA, add(CFA_XSP16, literal(-1)))
        CFI (cfiCond148) CFA_SP SP+0
        CFI (cfiCond148) CFA_XSP16 add(XSP16, 16)
        CFI Block cfiCond149 Using cfiCommon0
        CFI (cfiCond149) NoFunction
        CFI (cfiCond149) Conditional ??CrossCallReturnLabel_100, ??CrossCallReturnLabel_134, ??CrossCallReturnLabel_74, ??CrossCallReturnLabel_1
        CFI (cfiCond149) R6 load(1, XDATA, add(CFA_XSP16, literal(-12)))
        CFI (cfiCond149) VB load(1, XDATA, add(CFA_XSP16, literal(-11)))
        CFI (cfiCond149) V0 load(1, XDATA, add(CFA_XSP16, literal(-10)))
        CFI (cfiCond149) V1 load(1, XDATA, add(CFA_XSP16, literal(-9)))
        CFI (cfiCond149) V2 load(1, XDATA, add(CFA_XSP16, literal(-8)))
        CFI (cfiCond149) V3 load(1, XDATA, add(CFA_XSP16, literal(-7)))
        CFI (cfiCond149) R7 load(1, XDATA, add(CFA_XSP16, literal(-6)))
        CFI (cfiCond149) ?RET_LOW load(1, XDATA, add(CFA_XSP16, literal(-5)))
        CFI (cfiCond149) ?RET_HIGH load(1, XDATA, add(CFA_XSP16, literal(-4)))
        CFI (cfiCond149) ?BRET_EXT load(1, XDATA, add(CFA_XSP16, literal(-3)))
        CFI (cfiCond149) DPL0 load(1, XDATA, add(CFA_XSP16, literal(-2)))
        CFI (cfiCond149) DPH0 load(1, XDATA, add(CFA_XSP16, literal(-1)))
        CFI (cfiCond149) CFA_SP SP+0
        CFI (cfiCond149) CFA_XSP16 add(XSP16, 16)
        CFI Block cfiCond150 Using cfiCommon0
        CFI (cfiCond150) NoFunction
        CFI (cfiCond150) Conditional ??CrossCallReturnLabel_100, ??CrossCallReturnLabel_134, ??CrossCallReturnLabel_75, ??CrossCallReturnLabel_0
        CFI (cfiCond150) R6 load(1, XDATA, add(CFA_XSP16, literal(-12)))
        CFI (cfiCond150) VB load(1, XDATA, add(CFA_XSP16, literal(-11)))
        CFI (cfiCond150) V0 load(1, XDATA, add(CFA_XSP16, literal(-10)))
        CFI (cfiCond150) V1 load(1, XDATA, add(CFA_XSP16, literal(-9)))
        CFI (cfiCond150) V2 load(1, XDATA, add(CFA_XSP16, literal(-8)))
        CFI (cfiCond150) V3 load(1, XDATA, add(CFA_XSP16, literal(-7)))
        CFI (cfiCond150) R7 load(1, XDATA, add(CFA_XSP16, literal(-6)))
        CFI (cfiCond150) ?RET_LOW load(1, XDATA, add(CFA_XSP16, literal(-5)))
        CFI (cfiCond150) ?RET_HIGH load(1, XDATA, add(CFA_XSP16, literal(-4)))
        CFI (cfiCond150) ?BRET_EXT load(1, XDATA, add(CFA_XSP16, literal(-3)))
        CFI (cfiCond150) DPL0 load(1, XDATA, add(CFA_XSP16, literal(-2)))
        CFI (cfiCond150) DPH0 load(1, XDATA, add(CFA_XSP16, literal(-1)))
        CFI (cfiCond150) CFA_SP SP+0
        CFI (cfiCond150) CFA_XSP16 add(XSP16, 16)
        CFI Block cfiCond151 Using cfiCommon0
        CFI (cfiCond151) NoFunction
        CFI (cfiCond151) Conditional ??CrossCallReturnLabel_100, ??CrossCallReturnLabel_134, ??CrossCallReturnLabel_75, ??CrossCallReturnLabel_1
        CFI (cfiCond151) R6 load(1, XDATA, add(CFA_XSP16, literal(-12)))
        CFI (cfiCond151) VB load(1, XDATA, add(CFA_XSP16, literal(-11)))
        CFI (cfiCond151) V0 load(1, XDATA, add(CFA_XSP16, literal(-10)))
        CFI (cfiCond151) V1 load(1, XDATA, add(CFA_XSP16, literal(-9)))
        CFI (cfiCond151) V2 load(1, XDATA, add(CFA_XSP16, literal(-8)))
        CFI (cfiCond151) V3 load(1, XDATA, add(CFA_XSP16, literal(-7)))
        CFI (cfiCond151) R7 load(1, XDATA, add(CFA_XSP16, literal(-6)))
        CFI (cfiCond151) ?RET_LOW load(1, XDATA, add(CFA_XSP16, literal(-5)))
        CFI (cfiCond151) ?RET_HIGH load(1, XDATA, add(CFA_XSP16, literal(-4)))
        CFI (cfiCond151) ?BRET_EXT load(1, XDATA, add(CFA_XSP16, literal(-3)))
        CFI (cfiCond151) DPL0 load(1, XDATA, add(CFA_XSP16, literal(-2)))
        CFI (cfiCond151) DPH0 load(1, XDATA, add(CFA_XSP16, literal(-1)))
        CFI (cfiCond151) CFA_SP SP+0
        CFI (cfiCond151) CFA_XSP16 add(XSP16, 16)
        CFI Block cfiPicker152 Using cfiCommon1
        CFI (cfiPicker152) NoFunction
        CFI (cfiPicker152) Picker
        MOV     R2,A
        INC     DPTR
        MOVX    A,@DPTR
        ADDC    A,#0x0
        MOV     R3,A
        MOV     DPL,R2
        MOV     DPH,R3
        MOVX    A,@DPTR
        RET
        CFI EndBlock cfiCond120
        CFI EndBlock cfiCond121
        CFI EndBlock cfiCond122
        CFI EndBlock cfiCond123
        CFI EndBlock cfiCond124
        CFI EndBlock cfiCond125
        CFI EndBlock cfiCond126
        CFI EndBlock cfiCond127
        CFI EndBlock cfiCond128
        CFI EndBlock cfiCond129
        CFI EndBlock cfiCond130
        CFI EndBlock cfiCond131
        CFI EndBlock cfiCond132
        CFI EndBlock cfiCond133
        CFI EndBlock cfiCond134
        CFI EndBlock cfiCond135
        CFI EndBlock cfiCond136
        CFI EndBlock cfiCond137
        CFI EndBlock cfiCond138
        CFI EndBlock cfiCond139
        CFI EndBlock cfiCond140
        CFI EndBlock cfiCond141
        CFI EndBlock cfiCond142
        CFI EndBlock cfiCond143
        CFI EndBlock cfiCond144
        CFI EndBlock cfiCond145
        CFI EndBlock cfiCond146
        CFI EndBlock cfiCond147
        CFI EndBlock cfiCond148
        CFI EndBlock cfiCond149
        CFI EndBlock cfiCond150
        CFI EndBlock cfiCond151
        CFI EndBlock cfiPicker152

        RSEG BANKED_CODE:CODE:NOROOT(0)
?Subroutine28:
        CFI Block cfiCond153 Using cfiCommon0
        CFI NoFunction
        CFI Conditional ??CrossCallReturnLabel_57, ??CrossCallReturnLabel_0
        CFI R6 load(1, XDATA, add(CFA_XSP16, literal(-12)))
        CFI VB load(1, XDATA, add(CFA_XSP16, literal(-11)))
        CFI V0 load(1, XDATA, add(CFA_XSP16, literal(-10)))
        CFI V1 load(1, XDATA, add(CFA_XSP16, literal(-9)))
        CFI V2 load(1, XDATA, add(CFA_XSP16, literal(-8)))
        CFI V3 load(1, XDATA, add(CFA_XSP16, literal(-7)))
        CFI R7 load(1, XDATA, add(CFA_XSP16, literal(-6)))
        CFI ?RET_LOW load(1, XDATA, add(CFA_XSP16, literal(-5)))
        CFI ?RET_HIGH load(1, XDATA, add(CFA_XSP16, literal(-4)))
        CFI ?BRET_EXT load(1, XDATA, add(CFA_XSP16, literal(-3)))
        CFI DPL0 load(1, XDATA, add(CFA_XSP16, literal(-2)))
        CFI DPH0 load(1, XDATA, add(CFA_XSP16, literal(-1)))
        CFI CFA_SP SP+0
        CFI CFA_XSP16 add(XSP16, 16)
        CFI Block cfiCond154 Using cfiCommon0
        CFI (cfiCond154) NoFunction
        CFI (cfiCond154) Conditional ??CrossCallReturnLabel_57, ??CrossCallReturnLabel_1
        CFI (cfiCond154) R6 load(1, XDATA, add(CFA_XSP16, literal(-12)))
        CFI (cfiCond154) VB load(1, XDATA, add(CFA_XSP16, literal(-11)))
        CFI (cfiCond154) V0 load(1, XDATA, add(CFA_XSP16, literal(-10)))
        CFI (cfiCond154) V1 load(1, XDATA, add(CFA_XSP16, literal(-9)))
        CFI (cfiCond154) V2 load(1, XDATA, add(CFA_XSP16, literal(-8)))
        CFI (cfiCond154) V3 load(1, XDATA, add(CFA_XSP16, literal(-7)))
        CFI (cfiCond154) R7 load(1, XDATA, add(CFA_XSP16, literal(-6)))
        CFI (cfiCond154) ?RET_LOW load(1, XDATA, add(CFA_XSP16, literal(-5)))
        CFI (cfiCond154) ?RET_HIGH load(1, XDATA, add(CFA_XSP16, literal(-4)))
        CFI (cfiCond154) ?BRET_EXT load(1, XDATA, add(CFA_XSP16, literal(-3)))
        CFI (cfiCond154) DPL0 load(1, XDATA, add(CFA_XSP16, literal(-2)))
        CFI (cfiCond154) DPH0 load(1, XDATA, add(CFA_XSP16, literal(-1)))
        CFI (cfiCond154) CFA_SP SP+0
        CFI (cfiCond154) CFA_XSP16 add(XSP16, 16)
        CFI Block cfiCond155 Using cfiCommon0
        CFI (cfiCond155) NoFunction
        CFI (cfiCond155) Conditional ??CrossCallReturnLabel_58, ??CrossCallReturnLabel_0
        CFI (cfiCond155) R6 load(1, XDATA, add(CFA_XSP16, literal(-12)))
        CFI (cfiCond155) VB load(1, XDATA, add(CFA_XSP16, literal(-11)))
        CFI (cfiCond155) V0 load(1, XDATA, add(CFA_XSP16, literal(-10)))
        CFI (cfiCond155) V1 load(1, XDATA, add(CFA_XSP16, literal(-9)))
        CFI (cfiCond155) V2 load(1, XDATA, add(CFA_XSP16, literal(-8)))
        CFI (cfiCond155) V3 load(1, XDATA, add(CFA_XSP16, literal(-7)))
        CFI (cfiCond155) R7 load(1, XDATA, add(CFA_XSP16, literal(-6)))
        CFI (cfiCond155) ?RET_LOW load(1, XDATA, add(CFA_XSP16, literal(-5)))
        CFI (cfiCond155) ?RET_HIGH load(1, XDATA, add(CFA_XSP16, literal(-4)))
        CFI (cfiCond155) ?BRET_EXT load(1, XDATA, add(CFA_XSP16, literal(-3)))
        CFI (cfiCond155) DPL0 load(1, XDATA, add(CFA_XSP16, literal(-2)))
        CFI (cfiCond155) DPH0 load(1, XDATA, add(CFA_XSP16, literal(-1)))
        CFI (cfiCond155) CFA_SP SP+0
        CFI (cfiCond155) CFA_XSP16 add(XSP16, 16)
        CFI Block cfiCond156 Using cfiCommon0
        CFI (cfiCond156) NoFunction
        CFI (cfiCond156) Conditional ??CrossCallReturnLabel_58, ??CrossCallReturnLabel_1
        CFI (cfiCond156) R6 load(1, XDATA, add(CFA_XSP16, literal(-12)))
        CFI (cfiCond156) VB load(1, XDATA, add(CFA_XSP16, literal(-11)))
        CFI (cfiCond156) V0 load(1, XDATA, add(CFA_XSP16, literal(-10)))
        CFI (cfiCond156) V1 load(1, XDATA, add(CFA_XSP16, literal(-9)))
        CFI (cfiCond156) V2 load(1, XDATA, add(CFA_XSP16, literal(-8)))
        CFI (cfiCond156) V3 load(1, XDATA, add(CFA_XSP16, literal(-7)))
        CFI (cfiCond156) R7 load(1, XDATA, add(CFA_XSP16, literal(-6)))
        CFI (cfiCond156) ?RET_LOW load(1, XDATA, add(CFA_XSP16, literal(-5)))
        CFI (cfiCond156) ?RET_HIGH load(1, XDATA, add(CFA_XSP16, literal(-4)))
        CFI (cfiCond156) ?BRET_EXT load(1, XDATA, add(CFA_XSP16, literal(-3)))
        CFI (cfiCond156) DPL0 load(1, XDATA, add(CFA_XSP16, literal(-2)))
        CFI (cfiCond156) DPH0 load(1, XDATA, add(CFA_XSP16, literal(-1)))
        CFI (cfiCond156) CFA_SP SP+0
        CFI (cfiCond156) CFA_XSP16 add(XSP16, 16)
        CFI Block cfiPicker157 Using cfiCommon1
        CFI (cfiPicker157) NoFunction
        CFI (cfiPicker157) Picker
        INC     DPTR
        INC     DPTR
        CFI Block cfiCond158 Using cfiCommon0
        CFI (cfiCond158) NoFunction
        CFI (cfiCond158) Conditional ??CrossCallReturnLabel_59, ??CrossCallReturnLabel_0
        CFI (cfiCond158) R6 load(1, XDATA, add(CFA_XSP16, literal(-12)))
        CFI (cfiCond158) VB load(1, XDATA, add(CFA_XSP16, literal(-11)))
        CFI (cfiCond158) V0 load(1, XDATA, add(CFA_XSP16, literal(-10)))
        CFI (cfiCond158) V1 load(1, XDATA, add(CFA_XSP16, literal(-9)))
        CFI (cfiCond158) V2 load(1, XDATA, add(CFA_XSP16, literal(-8)))
        CFI (cfiCond158) V3 load(1, XDATA, add(CFA_XSP16, literal(-7)))
        CFI (cfiCond158) R7 load(1, XDATA, add(CFA_XSP16, literal(-6)))
        CFI (cfiCond158) ?RET_LOW load(1, XDATA, add(CFA_XSP16, literal(-5)))
        CFI (cfiCond158) ?RET_HIGH load(1, XDATA, add(CFA_XSP16, literal(-4)))
        CFI (cfiCond158) ?BRET_EXT load(1, XDATA, add(CFA_XSP16, literal(-3)))
        CFI (cfiCond158) DPL0 load(1, XDATA, add(CFA_XSP16, literal(-2)))
        CFI (cfiCond158) DPH0 load(1, XDATA, add(CFA_XSP16, literal(-1)))
        CFI (cfiCond158) CFA_SP SP+0
        CFI (cfiCond158) CFA_XSP16 add(XSP16, 16)
        CFI Block cfiCond159 Using cfiCommon0
        CFI (cfiCond159) NoFunction
        CFI (cfiCond159) Conditional ??CrossCallReturnLabel_59, ??CrossCallReturnLabel_1
        CFI (cfiCond159) R6 load(1, XDATA, add(CFA_XSP16, literal(-12)))
        CFI (cfiCond159) VB load(1, XDATA, add(CFA_XSP16, literal(-11)))
        CFI (cfiCond159) V0 load(1, XDATA, add(CFA_XSP16, literal(-10)))
        CFI (cfiCond159) V1 load(1, XDATA, add(CFA_XSP16, literal(-9)))
        CFI (cfiCond159) V2 load(1, XDATA, add(CFA_XSP16, literal(-8)))
        CFI (cfiCond159) V3 load(1, XDATA, add(CFA_XSP16, literal(-7)))
        CFI (cfiCond159) R7 load(1, XDATA, add(CFA_XSP16, literal(-6)))
        CFI (cfiCond159) ?RET_LOW load(1, XDATA, add(CFA_XSP16, literal(-5)))
        CFI (cfiCond159) ?RET_HIGH load(1, XDATA, add(CFA_XSP16, literal(-4)))
        CFI (cfiCond159) ?BRET_EXT load(1, XDATA, add(CFA_XSP16, literal(-3)))
        CFI (cfiCond159) DPL0 load(1, XDATA, add(CFA_XSP16, literal(-2)))
        CFI (cfiCond159) DPH0 load(1, XDATA, add(CFA_XSP16, literal(-1)))
        CFI (cfiCond159) CFA_SP SP+0
        CFI (cfiCond159) CFA_XSP16 add(XSP16, 16)
??Subroutine28_0:
        INC     DPTR
        CFI Block cfiCond160 Using cfiCommon0
        CFI (cfiCond160) NoFunction
        CFI (cfiCond160) Conditional ??CrossCallReturnLabel_60, ??CrossCallReturnLabel_0
        CFI (cfiCond160) R6 load(1, XDATA, add(CFA_XSP16, literal(-12)))
        CFI (cfiCond160) VB load(1, XDATA, add(CFA_XSP16, literal(-11)))
        CFI (cfiCond160) V0 load(1, XDATA, add(CFA_XSP16, literal(-10)))
        CFI (cfiCond160) V1 load(1, XDATA, add(CFA_XSP16, literal(-9)))
        CFI (cfiCond160) V2 load(1, XDATA, add(CFA_XSP16, literal(-8)))
        CFI (cfiCond160) V3 load(1, XDATA, add(CFA_XSP16, literal(-7)))
        CFI (cfiCond160) R7 load(1, XDATA, add(CFA_XSP16, literal(-6)))
        CFI (cfiCond160) ?RET_LOW load(1, XDATA, add(CFA_XSP16, literal(-5)))
        CFI (cfiCond160) ?RET_HIGH load(1, XDATA, add(CFA_XSP16, literal(-4)))
        CFI (cfiCond160) ?BRET_EXT load(1, XDATA, add(CFA_XSP16, literal(-3)))
        CFI (cfiCond160) DPL0 load(1, XDATA, add(CFA_XSP16, literal(-2)))
        CFI (cfiCond160) DPH0 load(1, XDATA, add(CFA_XSP16, literal(-1)))
        CFI (cfiCond160) CFA_SP SP+0
        CFI (cfiCond160) CFA_XSP16 add(XSP16, 16)
        CFI Block cfiCond161 Using cfiCommon0
        CFI (cfiCond161) NoFunction
        CFI (cfiCond161) Conditional ??CrossCallReturnLabel_60, ??CrossCallReturnLabel_1
        CFI (cfiCond161) R6 load(1, XDATA, add(CFA_XSP16, literal(-12)))
        CFI (cfiCond161) VB load(1, XDATA, add(CFA_XSP16, literal(-11)))
        CFI (cfiCond161) V0 load(1, XDATA, add(CFA_XSP16, literal(-10)))
        CFI (cfiCond161) V1 load(1, XDATA, add(CFA_XSP16, literal(-9)))
        CFI (cfiCond161) V2 load(1, XDATA, add(CFA_XSP16, literal(-8)))
        CFI (cfiCond161) V3 load(1, XDATA, add(CFA_XSP16, literal(-7)))
        CFI (cfiCond161) R7 load(1, XDATA, add(CFA_XSP16, literal(-6)))
        CFI (cfiCond161) ?RET_LOW load(1, XDATA, add(CFA_XSP16, literal(-5)))
        CFI (cfiCond161) ?RET_HIGH load(1, XDATA, add(CFA_XSP16, literal(-4)))
        CFI (cfiCond161) ?BRET_EXT load(1, XDATA, add(CFA_XSP16, literal(-3)))
        CFI (cfiCond161) DPL0 load(1, XDATA, add(CFA_XSP16, literal(-2)))
        CFI (cfiCond161) DPH0 load(1, XDATA, add(CFA_XSP16, literal(-1)))
        CFI (cfiCond161) CFA_SP SP+0
        CFI (cfiCond161) CFA_XSP16 add(XSP16, 16)
??Subroutine28_1:
        INC     DPTR
        CFI Block cfiCond162 Using cfiCommon0
        CFI (cfiCond162) NoFunction
        CFI (cfiCond162) Conditional ??CrossCallReturnLabel_61, ??CrossCallReturnLabel_0
        CFI (cfiCond162) R6 load(1, XDATA, add(CFA_XSP16, literal(-12)))
        CFI (cfiCond162) VB load(1, XDATA, add(CFA_XSP16, literal(-11)))
        CFI (cfiCond162) V0 load(1, XDATA, add(CFA_XSP16, literal(-10)))
        CFI (cfiCond162) V1 load(1, XDATA, add(CFA_XSP16, literal(-9)))
        CFI (cfiCond162) V2 load(1, XDATA, add(CFA_XSP16, literal(-8)))
        CFI (cfiCond162) V3 load(1, XDATA, add(CFA_XSP16, literal(-7)))
        CFI (cfiCond162) R7 load(1, XDATA, add(CFA_XSP16, literal(-6)))
        CFI (cfiCond162) ?RET_LOW load(1, XDATA, add(CFA_XSP16, literal(-5)))
        CFI (cfiCond162) ?RET_HIGH load(1, XDATA, add(CFA_XSP16, literal(-4)))
        CFI (cfiCond162) ?BRET_EXT load(1, XDATA, add(CFA_XSP16, literal(-3)))
        CFI (cfiCond162) DPL0 load(1, XDATA, add(CFA_XSP16, literal(-2)))
        CFI (cfiCond162) DPH0 load(1, XDATA, add(CFA_XSP16, literal(-1)))
        CFI (cfiCond162) CFA_SP SP+0
        CFI (cfiCond162) CFA_XSP16 add(XSP16, 16)
        CFI Block cfiCond163 Using cfiCommon0
        CFI (cfiCond163) NoFunction
        CFI (cfiCond163) Conditional ??CrossCallReturnLabel_61, ??CrossCallReturnLabel_1
        CFI (cfiCond163) R6 load(1, XDATA, add(CFA_XSP16, literal(-12)))
        CFI (cfiCond163) VB load(1, XDATA, add(CFA_XSP16, literal(-11)))
        CFI (cfiCond163) V0 load(1, XDATA, add(CFA_XSP16, literal(-10)))
        CFI (cfiCond163) V1 load(1, XDATA, add(CFA_XSP16, literal(-9)))
        CFI (cfiCond163) V2 load(1, XDATA, add(CFA_XSP16, literal(-8)))
        CFI (cfiCond163) V3 load(1, XDATA, add(CFA_XSP16, literal(-7)))
        CFI (cfiCond163) R7 load(1, XDATA, add(CFA_XSP16, literal(-6)))
        CFI (cfiCond163) ?RET_LOW load(1, XDATA, add(CFA_XSP16, literal(-5)))
        CFI (cfiCond163) ?RET_HIGH load(1, XDATA, add(CFA_XSP16, literal(-4)))
        CFI (cfiCond163) ?BRET_EXT load(1, XDATA, add(CFA_XSP16, literal(-3)))
        CFI (cfiCond163) DPL0 load(1, XDATA, add(CFA_XSP16, literal(-2)))
        CFI (cfiCond163) DPH0 load(1, XDATA, add(CFA_XSP16, literal(-1)))
        CFI (cfiCond163) CFA_SP SP+0
        CFI (cfiCond163) CFA_XSP16 add(XSP16, 16)
??Subroutine28_2:
        INC     DPTR
        CFI Block cfiCond164 Using cfiCommon0
        CFI (cfiCond164) NoFunction
        CFI (cfiCond164) Conditional ??CrossCallReturnLabel_62, ??CrossCallReturnLabel_0
        CFI (cfiCond164) R6 load(1, XDATA, add(CFA_XSP16, literal(-12)))
        CFI (cfiCond164) VB load(1, XDATA, add(CFA_XSP16, literal(-11)))
        CFI (cfiCond164) V0 load(1, XDATA, add(CFA_XSP16, literal(-10)))
        CFI (cfiCond164) V1 load(1, XDATA, add(CFA_XSP16, literal(-9)))
        CFI (cfiCond164) V2 load(1, XDATA, add(CFA_XSP16, literal(-8)))
        CFI (cfiCond164) V3 load(1, XDATA, add(CFA_XSP16, literal(-7)))
        CFI (cfiCond164) R7 load(1, XDATA, add(CFA_XSP16, literal(-6)))
        CFI (cfiCond164) ?RET_LOW load(1, XDATA, add(CFA_XSP16, literal(-5)))
        CFI (cfiCond164) ?RET_HIGH load(1, XDATA, add(CFA_XSP16, literal(-4)))
        CFI (cfiCond164) ?BRET_EXT load(1, XDATA, add(CFA_XSP16, literal(-3)))
        CFI (cfiCond164) DPL0 load(1, XDATA, add(CFA_XSP16, literal(-2)))
        CFI (cfiCond164) DPH0 load(1, XDATA, add(CFA_XSP16, literal(-1)))
        CFI (cfiCond164) CFA_SP SP+0
        CFI (cfiCond164) CFA_XSP16 add(XSP16, 16)
        CFI Block cfiCond165 Using cfiCommon0
        CFI (cfiCond165) NoFunction
        CFI (cfiCond165) Conditional ??CrossCallReturnLabel_62, ??CrossCallReturnLabel_1
        CFI (cfiCond165) R6 load(1, XDATA, add(CFA_XSP16, literal(-12)))
        CFI (cfiCond165) VB load(1, XDATA, add(CFA_XSP16, literal(-11)))
        CFI (cfiCond165) V0 load(1, XDATA, add(CFA_XSP16, literal(-10)))
        CFI (cfiCond165) V1 load(1, XDATA, add(CFA_XSP16, literal(-9)))
        CFI (cfiCond165) V2 load(1, XDATA, add(CFA_XSP16, literal(-8)))
        CFI (cfiCond165) V3 load(1, XDATA, add(CFA_XSP16, literal(-7)))
        CFI (cfiCond165) R7 load(1, XDATA, add(CFA_XSP16, literal(-6)))
        CFI (cfiCond165) ?RET_LOW load(1, XDATA, add(CFA_XSP16, literal(-5)))
        CFI (cfiCond165) ?RET_HIGH load(1, XDATA, add(CFA_XSP16, literal(-4)))
        CFI (cfiCond165) ?BRET_EXT load(1, XDATA, add(CFA_XSP16, literal(-3)))
        CFI (cfiCond165) DPL0 load(1, XDATA, add(CFA_XSP16, literal(-2)))
        CFI (cfiCond165) DPH0 load(1, XDATA, add(CFA_XSP16, literal(-1)))
        CFI (cfiCond165) CFA_SP SP+0
        CFI (cfiCond165) CFA_XSP16 add(XSP16, 16)
??Subroutine28_3:
        INC     DPTR
        INC     DPTR
        INC     DPTR
        INC     DPTR
        CFI Block cfiCond166 Using cfiCommon0
        CFI (cfiCond166) NoFunction
        CFI (cfiCond166) Conditional ??CrossCallReturnLabel_63, ??CrossCallReturnLabel_24
        CFI (cfiCond166) R6 load(1, XDATA, add(CFA_XSP16, literal(-12)))
        CFI (cfiCond166) VB load(1, XDATA, add(CFA_XSP16, literal(-11)))
        CFI (cfiCond166) V0 load(1, XDATA, add(CFA_XSP16, literal(-10)))
        CFI (cfiCond166) V1 load(1, XDATA, add(CFA_XSP16, literal(-9)))
        CFI (cfiCond166) V2 load(1, XDATA, add(CFA_XSP16, literal(-8)))
        CFI (cfiCond166) V3 load(1, XDATA, add(CFA_XSP16, literal(-7)))
        CFI (cfiCond166) R7 load(1, XDATA, add(CFA_XSP16, literal(-6)))
        CFI (cfiCond166) ?RET_LOW load(1, XDATA, add(CFA_XSP16, literal(-5)))
        CFI (cfiCond166) ?RET_HIGH load(1, XDATA, add(CFA_XSP16, literal(-4)))
        CFI (cfiCond166) ?BRET_EXT load(1, XDATA, add(CFA_XSP16, literal(-3)))
        CFI (cfiCond166) DPL0 load(1, XDATA, add(CFA_XSP16, literal(-2)))
        CFI (cfiCond166) DPH0 load(1, XDATA, add(CFA_XSP16, literal(-1)))
        CFI (cfiCond166) CFA_SP SP+0
        CFI (cfiCond166) CFA_XSP16 add(XSP16, 16)
        CFI Block cfiCond167 Using cfiCommon0
        CFI (cfiCond167) NoFunction
        CFI (cfiCond167) Conditional ??CrossCallReturnLabel_63, ??CrossCallReturnLabel_25
        CFI (cfiCond167) R6 load(1, XDATA, add(CFA_XSP16, literal(-12)))
        CFI (cfiCond167) VB load(1, XDATA, add(CFA_XSP16, literal(-11)))
        CFI (cfiCond167) V0 load(1, XDATA, add(CFA_XSP16, literal(-10)))
        CFI (cfiCond167) V1 load(1, XDATA, add(CFA_XSP16, literal(-9)))
        CFI (cfiCond167) V2 load(1, XDATA, add(CFA_XSP16, literal(-8)))
        CFI (cfiCond167) V3 load(1, XDATA, add(CFA_XSP16, literal(-7)))
        CFI (cfiCond167) R7 load(1, XDATA, add(CFA_XSP16, literal(-6)))
        CFI (cfiCond167) ?RET_LOW load(1, XDATA, add(CFA_XSP16, literal(-5)))
        CFI (cfiCond167) ?RET_HIGH load(1, XDATA, add(CFA_XSP16, literal(-4)))
        CFI (cfiCond167) ?BRET_EXT load(1, XDATA, add(CFA_XSP16, literal(-3)))
        CFI (cfiCond167) DPL0 load(1, XDATA, add(CFA_XSP16, literal(-2)))
        CFI (cfiCond167) DPH0 load(1, XDATA, add(CFA_XSP16, literal(-1)))
        CFI (cfiCond167) CFA_SP SP+0
        CFI (cfiCond167) CFA_XSP16 add(XSP16, 16)
        CFI Block cfiCond168 Using cfiCommon0
        CFI (cfiCond168) NoFunction
        CFI (cfiCond168) Conditional ??CrossCallReturnLabel_63, ??CrossCallReturnLabel_26
        CFI (cfiCond168) R6 load(1, XDATA, add(CFA_XSP16, literal(-12)))
        CFI (cfiCond168) VB load(1, XDATA, add(CFA_XSP16, literal(-11)))
        CFI (cfiCond168) V0 load(1, XDATA, add(CFA_XSP16, literal(-10)))
        CFI (cfiCond168) V1 load(1, XDATA, add(CFA_XSP16, literal(-9)))
        CFI (cfiCond168) V2 load(1, XDATA, add(CFA_XSP16, literal(-8)))
        CFI (cfiCond168) V3 load(1, XDATA, add(CFA_XSP16, literal(-7)))
        CFI (cfiCond168) R7 load(1, XDATA, add(CFA_XSP16, literal(-6)))
        CFI (cfiCond168) ?RET_LOW load(1, XDATA, add(CFA_XSP16, literal(-5)))
        CFI (cfiCond168) ?RET_HIGH load(1, XDATA, add(CFA_XSP16, literal(-4)))
        CFI (cfiCond168) ?BRET_EXT load(1, XDATA, add(CFA_XSP16, literal(-3)))
        CFI (cfiCond168) DPL0 load(1, XDATA, add(CFA_XSP16, literal(-2)))
        CFI (cfiCond168) DPH0 load(1, XDATA, add(CFA_XSP16, literal(-1)))
        CFI (cfiCond168) CFA_SP SP+0
        CFI (cfiCond168) CFA_XSP16 add(XSP16, 16)
        CFI Block cfiCond169 Using cfiCommon0
        CFI (cfiCond169) NoFunction
        CFI (cfiCond169) Conditional ??CrossCallReturnLabel_64, ??CrossCallReturnLabel_20
        CFI (cfiCond169) R6 load(1, XDATA, add(CFA_XSP16, literal(-12)))
        CFI (cfiCond169) VB load(1, XDATA, add(CFA_XSP16, literal(-11)))
        CFI (cfiCond169) V0 load(1, XDATA, add(CFA_XSP16, literal(-10)))
        CFI (cfiCond169) V1 load(1, XDATA, add(CFA_XSP16, literal(-9)))
        CFI (cfiCond169) V2 load(1, XDATA, add(CFA_XSP16, literal(-8)))
        CFI (cfiCond169) V3 load(1, XDATA, add(CFA_XSP16, literal(-7)))
        CFI (cfiCond169) R7 load(1, XDATA, add(CFA_XSP16, literal(-6)))
        CFI (cfiCond169) ?RET_LOW load(1, XDATA, add(CFA_XSP16, literal(-5)))
        CFI (cfiCond169) ?RET_HIGH load(1, XDATA, add(CFA_XSP16, literal(-4)))
        CFI (cfiCond169) ?BRET_EXT load(1, XDATA, add(CFA_XSP16, literal(-3)))
        CFI (cfiCond169) DPL0 load(1, XDATA, add(CFA_XSP16, literal(-2)))
        CFI (cfiCond169) DPH0 load(1, XDATA, add(CFA_XSP16, literal(-1)))
        CFI (cfiCond169) CFA_SP SP+0
        CFI (cfiCond169) CFA_XSP16 add(XSP16, 16)
        CFI Block cfiCond170 Using cfiCommon0
        CFI (cfiCond170) NoFunction
        CFI (cfiCond170) Conditional ??CrossCallReturnLabel_64, ??CrossCallReturnLabel_21
        CFI (cfiCond170) R6 load(1, XDATA, add(CFA_XSP16, literal(-12)))
        CFI (cfiCond170) VB load(1, XDATA, add(CFA_XSP16, literal(-11)))
        CFI (cfiCond170) V0 load(1, XDATA, add(CFA_XSP16, literal(-10)))
        CFI (cfiCond170) V1 load(1, XDATA, add(CFA_XSP16, literal(-9)))
        CFI (cfiCond170) V2 load(1, XDATA, add(CFA_XSP16, literal(-8)))
        CFI (cfiCond170) V3 load(1, XDATA, add(CFA_XSP16, literal(-7)))
        CFI (cfiCond170) R7 load(1, XDATA, add(CFA_XSP16, literal(-6)))
        CFI (cfiCond170) ?RET_LOW load(1, XDATA, add(CFA_XSP16, literal(-5)))
        CFI (cfiCond170) ?RET_HIGH load(1, XDATA, add(CFA_XSP16, literal(-4)))
        CFI (cfiCond170) ?BRET_EXT load(1, XDATA, add(CFA_XSP16, literal(-3)))
        CFI (cfiCond170) DPL0 load(1, XDATA, add(CFA_XSP16, literal(-2)))
        CFI (cfiCond170) DPH0 load(1, XDATA, add(CFA_XSP16, literal(-1)))
        CFI (cfiCond170) CFA_SP SP+0
        CFI (cfiCond170) CFA_XSP16 add(XSP16, 16)
        CFI Block cfiCond171 Using cfiCommon0
        CFI (cfiCond171) NoFunction
        CFI (cfiCond171) Conditional ??CrossCallReturnLabel_65, ??CrossCallReturnLabel_18
        CFI (cfiCond171) R6 load(1, XDATA, add(CFA_XSP16, literal(-12)))
        CFI (cfiCond171) VB load(1, XDATA, add(CFA_XSP16, literal(-11)))
        CFI (cfiCond171) V0 load(1, XDATA, add(CFA_XSP16, literal(-10)))
        CFI (cfiCond171) V1 load(1, XDATA, add(CFA_XSP16, literal(-9)))
        CFI (cfiCond171) V2 load(1, XDATA, add(CFA_XSP16, literal(-8)))
        CFI (cfiCond171) V3 load(1, XDATA, add(CFA_XSP16, literal(-7)))
        CFI (cfiCond171) R7 load(1, XDATA, add(CFA_XSP16, literal(-6)))
        CFI (cfiCond171) ?RET_LOW load(1, XDATA, add(CFA_XSP16, literal(-5)))
        CFI (cfiCond171) ?RET_HIGH load(1, XDATA, add(CFA_XSP16, literal(-4)))
        CFI (cfiCond171) ?BRET_EXT load(1, XDATA, add(CFA_XSP16, literal(-3)))
        CFI (cfiCond171) DPL0 load(1, XDATA, add(CFA_XSP16, literal(-2)))
        CFI (cfiCond171) DPH0 load(1, XDATA, add(CFA_XSP16, literal(-1)))
        CFI (cfiCond171) CFA_SP SP+0
        CFI (cfiCond171) CFA_XSP16 add(XSP16, 16)
        CFI Block cfiCond172 Using cfiCommon0
        CFI (cfiCond172) NoFunction
        CFI (cfiCond172) Conditional ??CrossCallReturnLabel_65, ??CrossCallReturnLabel_19
        CFI (cfiCond172) R6 load(1, XDATA, add(CFA_XSP16, literal(-12)))
        CFI (cfiCond172) VB load(1, XDATA, add(CFA_XSP16, literal(-11)))
        CFI (cfiCond172) V0 load(1, XDATA, add(CFA_XSP16, literal(-10)))
        CFI (cfiCond172) V1 load(1, XDATA, add(CFA_XSP16, literal(-9)))
        CFI (cfiCond172) V2 load(1, XDATA, add(CFA_XSP16, literal(-8)))
        CFI (cfiCond172) V3 load(1, XDATA, add(CFA_XSP16, literal(-7)))
        CFI (cfiCond172) R7 load(1, XDATA, add(CFA_XSP16, literal(-6)))
        CFI (cfiCond172) ?RET_LOW load(1, XDATA, add(CFA_XSP16, literal(-5)))
        CFI (cfiCond172) ?RET_HIGH load(1, XDATA, add(CFA_XSP16, literal(-4)))
        CFI (cfiCond172) ?BRET_EXT load(1, XDATA, add(CFA_XSP16, literal(-3)))
        CFI (cfiCond172) DPL0 load(1, XDATA, add(CFA_XSP16, literal(-2)))
        CFI (cfiCond172) DPH0 load(1, XDATA, add(CFA_XSP16, literal(-1)))
        CFI (cfiCond172) CFA_SP SP+0
        CFI (cfiCond172) CFA_XSP16 add(XSP16, 16)
        CFI Block cfiCond173 Using cfiCommon0
        CFI (cfiCond173) NoFunction
        CFI (cfiCond173) Conditional ??CrossCallReturnLabel_66, ??CrossCallReturnLabel_16
        CFI (cfiCond173) R6 load(1, XDATA, add(CFA_XSP16, literal(-12)))
        CFI (cfiCond173) VB load(1, XDATA, add(CFA_XSP16, literal(-11)))
        CFI (cfiCond173) V0 load(1, XDATA, add(CFA_XSP16, literal(-10)))
        CFI (cfiCond173) V1 load(1, XDATA, add(CFA_XSP16, literal(-9)))
        CFI (cfiCond173) V2 load(1, XDATA, add(CFA_XSP16, literal(-8)))
        CFI (cfiCond173) V3 load(1, XDATA, add(CFA_XSP16, literal(-7)))
        CFI (cfiCond173) R7 load(1, XDATA, add(CFA_XSP16, literal(-6)))
        CFI (cfiCond173) ?RET_LOW load(1, XDATA, add(CFA_XSP16, literal(-5)))
        CFI (cfiCond173) ?RET_HIGH load(1, XDATA, add(CFA_XSP16, literal(-4)))
        CFI (cfiCond173) ?BRET_EXT load(1, XDATA, add(CFA_XSP16, literal(-3)))
        CFI (cfiCond173) DPL0 load(1, XDATA, add(CFA_XSP16, literal(-2)))
        CFI (cfiCond173) DPH0 load(1, XDATA, add(CFA_XSP16, literal(-1)))
        CFI (cfiCond173) CFA_SP SP+0
        CFI (cfiCond173) CFA_XSP16 add(XSP16, 16)
        CFI Block cfiCond174 Using cfiCommon0
        CFI (cfiCond174) NoFunction
        CFI (cfiCond174) Conditional ??CrossCallReturnLabel_66, ??CrossCallReturnLabel_17
        CFI (cfiCond174) R6 load(1, XDATA, add(CFA_XSP16, literal(-12)))
        CFI (cfiCond174) VB load(1, XDATA, add(CFA_XSP16, literal(-11)))
        CFI (cfiCond174) V0 load(1, XDATA, add(CFA_XSP16, literal(-10)))
        CFI (cfiCond174) V1 load(1, XDATA, add(CFA_XSP16, literal(-9)))
        CFI (cfiCond174) V2 load(1, XDATA, add(CFA_XSP16, literal(-8)))
        CFI (cfiCond174) V3 load(1, XDATA, add(CFA_XSP16, literal(-7)))
        CFI (cfiCond174) R7 load(1, XDATA, add(CFA_XSP16, literal(-6)))
        CFI (cfiCond174) ?RET_LOW load(1, XDATA, add(CFA_XSP16, literal(-5)))
        CFI (cfiCond174) ?RET_HIGH load(1, XDATA, add(CFA_XSP16, literal(-4)))
        CFI (cfiCond174) ?BRET_EXT load(1, XDATA, add(CFA_XSP16, literal(-3)))
        CFI (cfiCond174) DPL0 load(1, XDATA, add(CFA_XSP16, literal(-2)))
        CFI (cfiCond174) DPH0 load(1, XDATA, add(CFA_XSP16, literal(-1)))
        CFI (cfiCond174) CFA_SP SP+0
        CFI (cfiCond174) CFA_XSP16 add(XSP16, 16)
        CFI Block cfiCond175 Using cfiCommon0
        CFI (cfiCond175) NoFunction
        CFI (cfiCond175) Conditional ??CrossCallReturnLabel_67, ??CrossCallReturnLabel_14
        CFI (cfiCond175) R6 load(1, XDATA, add(CFA_XSP16, literal(-12)))
        CFI (cfiCond175) VB load(1, XDATA, add(CFA_XSP16, literal(-11)))
        CFI (cfiCond175) V0 load(1, XDATA, add(CFA_XSP16, literal(-10)))
        CFI (cfiCond175) V1 load(1, XDATA, add(CFA_XSP16, literal(-9)))
        CFI (cfiCond175) V2 load(1, XDATA, add(CFA_XSP16, literal(-8)))
        CFI (cfiCond175) V3 load(1, XDATA, add(CFA_XSP16, literal(-7)))
        CFI (cfiCond175) R7 load(1, XDATA, add(CFA_XSP16, literal(-6)))
        CFI (cfiCond175) ?RET_LOW load(1, XDATA, add(CFA_XSP16, literal(-5)))
        CFI (cfiCond175) ?RET_HIGH load(1, XDATA, add(CFA_XSP16, literal(-4)))
        CFI (cfiCond175) ?BRET_EXT load(1, XDATA, add(CFA_XSP16, literal(-3)))
        CFI (cfiCond175) DPL0 load(1, XDATA, add(CFA_XSP16, literal(-2)))
        CFI (cfiCond175) DPH0 load(1, XDATA, add(CFA_XSP16, literal(-1)))
        CFI (cfiCond175) CFA_SP SP+0
        CFI (cfiCond175) CFA_XSP16 add(XSP16, 16)
        CFI Block cfiCond176 Using cfiCommon0
        CFI (cfiCond176) NoFunction
        CFI (cfiCond176) Conditional ??CrossCallReturnLabel_67, ??CrossCallReturnLabel_15
        CFI (cfiCond176) R6 load(1, XDATA, add(CFA_XSP16, literal(-12)))
        CFI (cfiCond176) VB load(1, XDATA, add(CFA_XSP16, literal(-11)))
        CFI (cfiCond176) V0 load(1, XDATA, add(CFA_XSP16, literal(-10)))
        CFI (cfiCond176) V1 load(1, XDATA, add(CFA_XSP16, literal(-9)))
        CFI (cfiCond176) V2 load(1, XDATA, add(CFA_XSP16, literal(-8)))
        CFI (cfiCond176) V3 load(1, XDATA, add(CFA_XSP16, literal(-7)))
        CFI (cfiCond176) R7 load(1, XDATA, add(CFA_XSP16, literal(-6)))
        CFI (cfiCond176) ?RET_LOW load(1, XDATA, add(CFA_XSP16, literal(-5)))
        CFI (cfiCond176) ?RET_HIGH load(1, XDATA, add(CFA_XSP16, literal(-4)))
        CFI (cfiCond176) ?BRET_EXT load(1, XDATA, add(CFA_XSP16, literal(-3)))
        CFI (cfiCond176) DPL0 load(1, XDATA, add(CFA_XSP16, literal(-2)))
        CFI (cfiCond176) DPH0 load(1, XDATA, add(CFA_XSP16, literal(-1)))
        CFI (cfiCond176) CFA_SP SP+0
        CFI (cfiCond176) CFA_XSP16 add(XSP16, 16)
        CFI Block cfiCond177 Using cfiCommon0
        CFI (cfiCond177) NoFunction
        CFI (cfiCond177) Conditional ??CrossCallReturnLabel_68, ??CrossCallReturnLabel_12
        CFI (cfiCond177) R6 load(1, XDATA, add(CFA_XSP16, literal(-12)))
        CFI (cfiCond177) VB load(1, XDATA, add(CFA_XSP16, literal(-11)))
        CFI (cfiCond177) V0 load(1, XDATA, add(CFA_XSP16, literal(-10)))
        CFI (cfiCond177) V1 load(1, XDATA, add(CFA_XSP16, literal(-9)))
        CFI (cfiCond177) V2 load(1, XDATA, add(CFA_XSP16, literal(-8)))
        CFI (cfiCond177) V3 load(1, XDATA, add(CFA_XSP16, literal(-7)))
        CFI (cfiCond177) R7 load(1, XDATA, add(CFA_XSP16, literal(-6)))
        CFI (cfiCond177) ?RET_LOW load(1, XDATA, add(CFA_XSP16, literal(-5)))
        CFI (cfiCond177) ?RET_HIGH load(1, XDATA, add(CFA_XSP16, literal(-4)))
        CFI (cfiCond177) ?BRET_EXT load(1, XDATA, add(CFA_XSP16, literal(-3)))
        CFI (cfiCond177) DPL0 load(1, XDATA, add(CFA_XSP16, literal(-2)))
        CFI (cfiCond177) DPH0 load(1, XDATA, add(CFA_XSP16, literal(-1)))
        CFI (cfiCond177) CFA_SP SP+0
        CFI (cfiCond177) CFA_XSP16 add(XSP16, 16)
        CFI Block cfiCond178 Using cfiCommon0
        CFI (cfiCond178) NoFunction
        CFI (cfiCond178) Conditional ??CrossCallReturnLabel_68, ??CrossCallReturnLabel_13
        CFI (cfiCond178) R6 load(1, XDATA, add(CFA_XSP16, literal(-12)))
        CFI (cfiCond178) VB load(1, XDATA, add(CFA_XSP16, literal(-11)))
        CFI (cfiCond178) V0 load(1, XDATA, add(CFA_XSP16, literal(-10)))
        CFI (cfiCond178) V1 load(1, XDATA, add(CFA_XSP16, literal(-9)))
        CFI (cfiCond178) V2 load(1, XDATA, add(CFA_XSP16, literal(-8)))
        CFI (cfiCond178) V3 load(1, XDATA, add(CFA_XSP16, literal(-7)))
        CFI (cfiCond178) R7 load(1, XDATA, add(CFA_XSP16, literal(-6)))
        CFI (cfiCond178) ?RET_LOW load(1, XDATA, add(CFA_XSP16, literal(-5)))
        CFI (cfiCond178) ?RET_HIGH load(1, XDATA, add(CFA_XSP16, literal(-4)))
        CFI (cfiCond178) ?BRET_EXT load(1, XDATA, add(CFA_XSP16, literal(-3)))
        CFI (cfiCond178) DPL0 load(1, XDATA, add(CFA_XSP16, literal(-2)))
        CFI (cfiCond178) DPH0 load(1, XDATA, add(CFA_XSP16, literal(-1)))
        CFI (cfiCond178) CFA_SP SP+0
        CFI (cfiCond178) CFA_XSP16 add(XSP16, 16)
        CFI Block cfiCond179 Using cfiCommon0
        CFI (cfiCond179) NoFunction
        CFI (cfiCond179) Conditional ??CrossCallReturnLabel_69, ??CrossCallReturnLabel_10
        CFI (cfiCond179) R6 load(1, XDATA, add(CFA_XSP16, literal(-12)))
        CFI (cfiCond179) VB load(1, XDATA, add(CFA_XSP16, literal(-11)))
        CFI (cfiCond179) V0 load(1, XDATA, add(CFA_XSP16, literal(-10)))
        CFI (cfiCond179) V1 load(1, XDATA, add(CFA_XSP16, literal(-9)))
        CFI (cfiCond179) V2 load(1, XDATA, add(CFA_XSP16, literal(-8)))
        CFI (cfiCond179) V3 load(1, XDATA, add(CFA_XSP16, literal(-7)))
        CFI (cfiCond179) R7 load(1, XDATA, add(CFA_XSP16, literal(-6)))
        CFI (cfiCond179) ?RET_LOW load(1, XDATA, add(CFA_XSP16, literal(-5)))
        CFI (cfiCond179) ?RET_HIGH load(1, XDATA, add(CFA_XSP16, literal(-4)))
        CFI (cfiCond179) ?BRET_EXT load(1, XDATA, add(CFA_XSP16, literal(-3)))
        CFI (cfiCond179) DPL0 load(1, XDATA, add(CFA_XSP16, literal(-2)))
        CFI (cfiCond179) DPH0 load(1, XDATA, add(CFA_XSP16, literal(-1)))
        CFI (cfiCond179) CFA_SP SP+0
        CFI (cfiCond179) CFA_XSP16 add(XSP16, 16)
        CFI Block cfiCond180 Using cfiCommon0
        CFI (cfiCond180) NoFunction
        CFI (cfiCond180) Conditional ??CrossCallReturnLabel_69, ??CrossCallReturnLabel_11
        CFI (cfiCond180) R6 load(1, XDATA, add(CFA_XSP16, literal(-12)))
        CFI (cfiCond180) VB load(1, XDATA, add(CFA_XSP16, literal(-11)))
        CFI (cfiCond180) V0 load(1, XDATA, add(CFA_XSP16, literal(-10)))
        CFI (cfiCond180) V1 load(1, XDATA, add(CFA_XSP16, literal(-9)))
        CFI (cfiCond180) V2 load(1, XDATA, add(CFA_XSP16, literal(-8)))
        CFI (cfiCond180) V3 load(1, XDATA, add(CFA_XSP16, literal(-7)))
        CFI (cfiCond180) R7 load(1, XDATA, add(CFA_XSP16, literal(-6)))
        CFI (cfiCond180) ?RET_LOW load(1, XDATA, add(CFA_XSP16, literal(-5)))
        CFI (cfiCond180) ?RET_HIGH load(1, XDATA, add(CFA_XSP16, literal(-4)))
        CFI (cfiCond180) ?BRET_EXT load(1, XDATA, add(CFA_XSP16, literal(-3)))
        CFI (cfiCond180) DPL0 load(1, XDATA, add(CFA_XSP16, literal(-2)))
        CFI (cfiCond180) DPH0 load(1, XDATA, add(CFA_XSP16, literal(-1)))
        CFI (cfiCond180) CFA_SP SP+0
        CFI (cfiCond180) CFA_XSP16 add(XSP16, 16)
        CFI Block cfiCond181 Using cfiCommon0
        CFI (cfiCond181) NoFunction
        CFI (cfiCond181) Conditional ??CrossCallReturnLabel_70, ??CrossCallReturnLabel_8
        CFI (cfiCond181) R6 load(1, XDATA, add(CFA_XSP16, literal(-12)))
        CFI (cfiCond181) VB load(1, XDATA, add(CFA_XSP16, literal(-11)))
        CFI (cfiCond181) V0 load(1, XDATA, add(CFA_XSP16, literal(-10)))
        CFI (cfiCond181) V1 load(1, XDATA, add(CFA_XSP16, literal(-9)))
        CFI (cfiCond181) V2 load(1, XDATA, add(CFA_XSP16, literal(-8)))
        CFI (cfiCond181) V3 load(1, XDATA, add(CFA_XSP16, literal(-7)))
        CFI (cfiCond181) R7 load(1, XDATA, add(CFA_XSP16, literal(-6)))
        CFI (cfiCond181) ?RET_LOW load(1, XDATA, add(CFA_XSP16, literal(-5)))
        CFI (cfiCond181) ?RET_HIGH load(1, XDATA, add(CFA_XSP16, literal(-4)))
        CFI (cfiCond181) ?BRET_EXT load(1, XDATA, add(CFA_XSP16, literal(-3)))
        CFI (cfiCond181) DPL0 load(1, XDATA, add(CFA_XSP16, literal(-2)))
        CFI (cfiCond181) DPH0 load(1, XDATA, add(CFA_XSP16, literal(-1)))
        CFI (cfiCond181) CFA_SP SP+0
        CFI (cfiCond181) CFA_XSP16 add(XSP16, 16)
        CFI Block cfiCond182 Using cfiCommon0
        CFI (cfiCond182) NoFunction
        CFI (cfiCond182) Conditional ??CrossCallReturnLabel_70, ??CrossCallReturnLabel_9
        CFI (cfiCond182) R6 load(1, XDATA, add(CFA_XSP16, literal(-12)))
        CFI (cfiCond182) VB load(1, XDATA, add(CFA_XSP16, literal(-11)))
        CFI (cfiCond182) V0 load(1, XDATA, add(CFA_XSP16, literal(-10)))
        CFI (cfiCond182) V1 load(1, XDATA, add(CFA_XSP16, literal(-9)))
        CFI (cfiCond182) V2 load(1, XDATA, add(CFA_XSP16, literal(-8)))
        CFI (cfiCond182) V3 load(1, XDATA, add(CFA_XSP16, literal(-7)))
        CFI (cfiCond182) R7 load(1, XDATA, add(CFA_XSP16, literal(-6)))
        CFI (cfiCond182) ?RET_LOW load(1, XDATA, add(CFA_XSP16, literal(-5)))
        CFI (cfiCond182) ?RET_HIGH load(1, XDATA, add(CFA_XSP16, literal(-4)))
        CFI (cfiCond182) ?BRET_EXT load(1, XDATA, add(CFA_XSP16, literal(-3)))
        CFI (cfiCond182) DPL0 load(1, XDATA, add(CFA_XSP16, literal(-2)))
        CFI (cfiCond182) DPH0 load(1, XDATA, add(CFA_XSP16, literal(-1)))
        CFI (cfiCond182) CFA_SP SP+0
        CFI (cfiCond182) CFA_XSP16 add(XSP16, 16)
        CFI Block cfiCond183 Using cfiCommon0
        CFI (cfiCond183) NoFunction
        CFI (cfiCond183) Conditional ??CrossCallReturnLabel_71, ??CrossCallReturnLabel_6
        CFI (cfiCond183) R6 load(1, XDATA, add(CFA_XSP16, literal(-12)))
        CFI (cfiCond183) VB load(1, XDATA, add(CFA_XSP16, literal(-11)))
        CFI (cfiCond183) V0 load(1, XDATA, add(CFA_XSP16, literal(-10)))
        CFI (cfiCond183) V1 load(1, XDATA, add(CFA_XSP16, literal(-9)))
        CFI (cfiCond183) V2 load(1, XDATA, add(CFA_XSP16, literal(-8)))
        CFI (cfiCond183) V3 load(1, XDATA, add(CFA_XSP16, literal(-7)))
        CFI (cfiCond183) R7 load(1, XDATA, add(CFA_XSP16, literal(-6)))
        CFI (cfiCond183) ?RET_LOW load(1, XDATA, add(CFA_XSP16, literal(-5)))
        CFI (cfiCond183) ?RET_HIGH load(1, XDATA, add(CFA_XSP16, literal(-4)))
        CFI (cfiCond183) ?BRET_EXT load(1, XDATA, add(CFA_XSP16, literal(-3)))
        CFI (cfiCond183) DPL0 load(1, XDATA, add(CFA_XSP16, literal(-2)))
        CFI (cfiCond183) DPH0 load(1, XDATA, add(CFA_XSP16, literal(-1)))
        CFI (cfiCond183) CFA_SP SP+0
        CFI (cfiCond183) CFA_XSP16 add(XSP16, 16)
        CFI Block cfiCond184 Using cfiCommon0
        CFI (cfiCond184) NoFunction
        CFI (cfiCond184) Conditional ??CrossCallReturnLabel_71, ??CrossCallReturnLabel_7
        CFI (cfiCond184) R6 load(1, XDATA, add(CFA_XSP16, literal(-12)))
        CFI (cfiCond184) VB load(1, XDATA, add(CFA_XSP16, literal(-11)))
        CFI (cfiCond184) V0 load(1, XDATA, add(CFA_XSP16, literal(-10)))
        CFI (cfiCond184) V1 load(1, XDATA, add(CFA_XSP16, literal(-9)))
        CFI (cfiCond184) V2 load(1, XDATA, add(CFA_XSP16, literal(-8)))
        CFI (cfiCond184) V3 load(1, XDATA, add(CFA_XSP16, literal(-7)))
        CFI (cfiCond184) R7 load(1, XDATA, add(CFA_XSP16, literal(-6)))
        CFI (cfiCond184) ?RET_LOW load(1, XDATA, add(CFA_XSP16, literal(-5)))
        CFI (cfiCond184) ?RET_HIGH load(1, XDATA, add(CFA_XSP16, literal(-4)))
        CFI (cfiCond184) ?BRET_EXT load(1, XDATA, add(CFA_XSP16, literal(-3)))
        CFI (cfiCond184) DPL0 load(1, XDATA, add(CFA_XSP16, literal(-2)))
        CFI (cfiCond184) DPH0 load(1, XDATA, add(CFA_XSP16, literal(-1)))
        CFI (cfiCond184) CFA_SP SP+0
        CFI (cfiCond184) CFA_XSP16 add(XSP16, 16)
        CFI Block cfiCond185 Using cfiCommon0
        CFI (cfiCond185) NoFunction
        CFI (cfiCond185) Conditional ??CrossCallReturnLabel_72, ??CrossCallReturnLabel_4
        CFI (cfiCond185) R6 load(1, XDATA, add(CFA_XSP16, literal(-12)))
        CFI (cfiCond185) VB load(1, XDATA, add(CFA_XSP16, literal(-11)))
        CFI (cfiCond185) V0 load(1, XDATA, add(CFA_XSP16, literal(-10)))
        CFI (cfiCond185) V1 load(1, XDATA, add(CFA_XSP16, literal(-9)))
        CFI (cfiCond185) V2 load(1, XDATA, add(CFA_XSP16, literal(-8)))
        CFI (cfiCond185) V3 load(1, XDATA, add(CFA_XSP16, literal(-7)))
        CFI (cfiCond185) R7 load(1, XDATA, add(CFA_XSP16, literal(-6)))
        CFI (cfiCond185) ?RET_LOW load(1, XDATA, add(CFA_XSP16, literal(-5)))
        CFI (cfiCond185) ?RET_HIGH load(1, XDATA, add(CFA_XSP16, literal(-4)))
        CFI (cfiCond185) ?BRET_EXT load(1, XDATA, add(CFA_XSP16, literal(-3)))
        CFI (cfiCond185) DPL0 load(1, XDATA, add(CFA_XSP16, literal(-2)))
        CFI (cfiCond185) DPH0 load(1, XDATA, add(CFA_XSP16, literal(-1)))
        CFI (cfiCond185) CFA_SP SP+0
        CFI (cfiCond185) CFA_XSP16 add(XSP16, 16)
        CFI Block cfiCond186 Using cfiCommon0
        CFI (cfiCond186) NoFunction
        CFI (cfiCond186) Conditional ??CrossCallReturnLabel_72, ??CrossCallReturnLabel_5
        CFI (cfiCond186) R6 load(1, XDATA, add(CFA_XSP16, literal(-12)))
        CFI (cfiCond186) VB load(1, XDATA, add(CFA_XSP16, literal(-11)))
        CFI (cfiCond186) V0 load(1, XDATA, add(CFA_XSP16, literal(-10)))
        CFI (cfiCond186) V1 load(1, XDATA, add(CFA_XSP16, literal(-9)))
        CFI (cfiCond186) V2 load(1, XDATA, add(CFA_XSP16, literal(-8)))
        CFI (cfiCond186) V3 load(1, XDATA, add(CFA_XSP16, literal(-7)))
        CFI (cfiCond186) R7 load(1, XDATA, add(CFA_XSP16, literal(-6)))
        CFI (cfiCond186) ?RET_LOW load(1, XDATA, add(CFA_XSP16, literal(-5)))
        CFI (cfiCond186) ?RET_HIGH load(1, XDATA, add(CFA_XSP16, literal(-4)))
        CFI (cfiCond186) ?BRET_EXT load(1, XDATA, add(CFA_XSP16, literal(-3)))
        CFI (cfiCond186) DPL0 load(1, XDATA, add(CFA_XSP16, literal(-2)))
        CFI (cfiCond186) DPH0 load(1, XDATA, add(CFA_XSP16, literal(-1)))
        CFI (cfiCond186) CFA_SP SP+0
        CFI (cfiCond186) CFA_XSP16 add(XSP16, 16)
        CFI Block cfiCond187 Using cfiCommon0
        CFI (cfiCond187) NoFunction
        CFI (cfiCond187) Conditional ??CrossCallReturnLabel_73, ??CrossCallReturnLabel_2
        CFI (cfiCond187) R6 load(1, XDATA, add(CFA_XSP16, literal(-12)))
        CFI (cfiCond187) VB load(1, XDATA, add(CFA_XSP16, literal(-11)))
        CFI (cfiCond187) V0 load(1, XDATA, add(CFA_XSP16, literal(-10)))
        CFI (cfiCond187) V1 load(1, XDATA, add(CFA_XSP16, literal(-9)))
        CFI (cfiCond187) V2 load(1, XDATA, add(CFA_XSP16, literal(-8)))
        CFI (cfiCond187) V3 load(1, XDATA, add(CFA_XSP16, literal(-7)))
        CFI (cfiCond187) R7 load(1, XDATA, add(CFA_XSP16, literal(-6)))
        CFI (cfiCond187) ?RET_LOW load(1, XDATA, add(CFA_XSP16, literal(-5)))
        CFI (cfiCond187) ?RET_HIGH load(1, XDATA, add(CFA_XSP16, literal(-4)))
        CFI (cfiCond187) ?BRET_EXT load(1, XDATA, add(CFA_XSP16, literal(-3)))
        CFI (cfiCond187) DPL0 load(1, XDATA, add(CFA_XSP16, literal(-2)))
        CFI (cfiCond187) DPH0 load(1, XDATA, add(CFA_XSP16, literal(-1)))
        CFI (cfiCond187) CFA_SP SP+0
        CFI (cfiCond187) CFA_XSP16 add(XSP16, 16)
        CFI Block cfiCond188 Using cfiCommon0
        CFI (cfiCond188) NoFunction
        CFI (cfiCond188) Conditional ??CrossCallReturnLabel_73, ??CrossCallReturnLabel_3
        CFI (cfiCond188) R6 load(1, XDATA, add(CFA_XSP16, literal(-12)))
        CFI (cfiCond188) VB load(1, XDATA, add(CFA_XSP16, literal(-11)))
        CFI (cfiCond188) V0 load(1, XDATA, add(CFA_XSP16, literal(-10)))
        CFI (cfiCond188) V1 load(1, XDATA, add(CFA_XSP16, literal(-9)))
        CFI (cfiCond188) V2 load(1, XDATA, add(CFA_XSP16, literal(-8)))
        CFI (cfiCond188) V3 load(1, XDATA, add(CFA_XSP16, literal(-7)))
        CFI (cfiCond188) R7 load(1, XDATA, add(CFA_XSP16, literal(-6)))
        CFI (cfiCond188) ?RET_LOW load(1, XDATA, add(CFA_XSP16, literal(-5)))
        CFI (cfiCond188) ?RET_HIGH load(1, XDATA, add(CFA_XSP16, literal(-4)))
        CFI (cfiCond188) ?BRET_EXT load(1, XDATA, add(CFA_XSP16, literal(-3)))
        CFI (cfiCond188) DPL0 load(1, XDATA, add(CFA_XSP16, literal(-2)))
        CFI (cfiCond188) DPH0 load(1, XDATA, add(CFA_XSP16, literal(-1)))
        CFI (cfiCond188) CFA_SP SP+0
        CFI (cfiCond188) CFA_XSP16 add(XSP16, 16)
??Subroutine28_4:
        MOVX    @DPTR,A
        MOV     DPL,R4
        MOV     DPH,R5
        MOVX    A,@DPTR
        RET
        CFI EndBlock cfiCond153
        CFI EndBlock cfiCond154
        CFI EndBlock cfiCond155
        CFI EndBlock cfiCond156
        CFI EndBlock cfiPicker157
        CFI EndBlock cfiCond158
        CFI EndBlock cfiCond159
        CFI EndBlock cfiCond160
        CFI EndBlock cfiCond161
        CFI EndBlock cfiCond162
        CFI EndBlock cfiCond163
        CFI EndBlock cfiCond164
        CFI EndBlock cfiCond165
        CFI EndBlock cfiCond166
        CFI EndBlock cfiCond167
        CFI EndBlock cfiCond168
        CFI EndBlock cfiCond169
        CFI EndBlock cfiCond170
        CFI EndBlock cfiCond171
        CFI EndBlock cfiCond172
        CFI EndBlock cfiCond173
        CFI EndBlock cfiCond174
        CFI EndBlock cfiCond175
        CFI EndBlock cfiCond176
        CFI EndBlock cfiCond177
        CFI EndBlock cfiCond178
        CFI EndBlock cfiCond179
        CFI EndBlock cfiCond180
        CFI EndBlock cfiCond181
        CFI EndBlock cfiCond182
        CFI EndBlock cfiCond183
        CFI EndBlock cfiCond184
        CFI EndBlock cfiCond185
        CFI EndBlock cfiCond186
        CFI EndBlock cfiCond187
        CFI EndBlock cfiCond188

        RSEG BANKED_CODE:CODE:NOROOT(0)
?Subroutine4:
        CFI Block cfiCond189 Using cfiCommon0
        CFI NoFunction
        CFI Conditional ??CrossCallReturnLabel_8
        CFI R6 load(1, XDATA, add(CFA_XSP16, literal(-12)))
        CFI VB load(1, XDATA, add(CFA_XSP16, literal(-11)))
        CFI V0 load(1, XDATA, add(CFA_XSP16, literal(-10)))
        CFI V1 load(1, XDATA, add(CFA_XSP16, literal(-9)))
        CFI V2 load(1, XDATA, add(CFA_XSP16, literal(-8)))
        CFI V3 load(1, XDATA, add(CFA_XSP16, literal(-7)))
        CFI R7 load(1, XDATA, add(CFA_XSP16, literal(-6)))
        CFI ?RET_LOW load(1, XDATA, add(CFA_XSP16, literal(-5)))
        CFI ?RET_HIGH load(1, XDATA, add(CFA_XSP16, literal(-4)))
        CFI ?BRET_EXT load(1, XDATA, add(CFA_XSP16, literal(-3)))
        CFI DPL0 load(1, XDATA, add(CFA_XSP16, literal(-2)))
        CFI DPH0 load(1, XDATA, add(CFA_XSP16, literal(-1)))
        CFI CFA_SP SP+0
        CFI CFA_XSP16 add(XSP16, 16)
        CFI Block cfiCond190 Using cfiCommon0
        CFI (cfiCond190) NoFunction
        CFI (cfiCond190) Conditional ??CrossCallReturnLabel_9
        CFI (cfiCond190) R6 load(1, XDATA, add(CFA_XSP16, literal(-12)))
        CFI (cfiCond190) VB load(1, XDATA, add(CFA_XSP16, literal(-11)))
        CFI (cfiCond190) V0 load(1, XDATA, add(CFA_XSP16, literal(-10)))
        CFI (cfiCond190) V1 load(1, XDATA, add(CFA_XSP16, literal(-9)))
        CFI (cfiCond190) V2 load(1, XDATA, add(CFA_XSP16, literal(-8)))
        CFI (cfiCond190) V3 load(1, XDATA, add(CFA_XSP16, literal(-7)))
        CFI (cfiCond190) R7 load(1, XDATA, add(CFA_XSP16, literal(-6)))
        CFI (cfiCond190) ?RET_LOW load(1, XDATA, add(CFA_XSP16, literal(-5)))
        CFI (cfiCond190) ?RET_HIGH load(1, XDATA, add(CFA_XSP16, literal(-4)))
        CFI (cfiCond190) ?BRET_EXT load(1, XDATA, add(CFA_XSP16, literal(-3)))
        CFI (cfiCond190) DPL0 load(1, XDATA, add(CFA_XSP16, literal(-2)))
        CFI (cfiCond190) DPH0 load(1, XDATA, add(CFA_XSP16, literal(-1)))
        CFI (cfiCond190) CFA_SP SP+0
        CFI (cfiCond190) CFA_XSP16 add(XSP16, 16)
        CFI Block cfiPicker191 Using cfiCommon1
        CFI (cfiPicker191) NoFunction
        CFI (cfiPicker191) Picker
        LCALL   ??Subroutine28_4 & 0xFFFF
??CrossCallReturnLabel_70:
        ADD     A,#0x15
        LCALL   ?Subroutine31 & 0xFFFF
??CrossCallReturnLabel_83:
        RET
        CFI EndBlock cfiCond189
        CFI EndBlock cfiCond190
        CFI EndBlock cfiPicker191

        RSEG BANKED_CODE:CODE:NOROOT(0)
?Subroutine3:
        CFI Block cfiCond192 Using cfiCommon0
        CFI NoFunction
        CFI Conditional ??CrossCallReturnLabel_6
        CFI R6 load(1, XDATA, add(CFA_XSP16, literal(-12)))
        CFI VB load(1, XDATA, add(CFA_XSP16, literal(-11)))
        CFI V0 load(1, XDATA, add(CFA_XSP16, literal(-10)))
        CFI V1 load(1, XDATA, add(CFA_XSP16, literal(-9)))
        CFI V2 load(1, XDATA, add(CFA_XSP16, literal(-8)))
        CFI V3 load(1, XDATA, add(CFA_XSP16, literal(-7)))
        CFI R7 load(1, XDATA, add(CFA_XSP16, literal(-6)))
        CFI ?RET_LOW load(1, XDATA, add(CFA_XSP16, literal(-5)))
        CFI ?RET_HIGH load(1, XDATA, add(CFA_XSP16, literal(-4)))
        CFI ?BRET_EXT load(1, XDATA, add(CFA_XSP16, literal(-3)))
        CFI DPL0 load(1, XDATA, add(CFA_XSP16, literal(-2)))
        CFI DPH0 load(1, XDATA, add(CFA_XSP16, literal(-1)))
        CFI CFA_SP SP+0
        CFI CFA_XSP16 add(XSP16, 16)
        CFI Block cfiCond193 Using cfiCommon0
        CFI (cfiCond193) NoFunction
        CFI (cfiCond193) Conditional ??CrossCallReturnLabel_7
        CFI (cfiCond193) R6 load(1, XDATA, add(CFA_XSP16, literal(-12)))
        CFI (cfiCond193) VB load(1, XDATA, add(CFA_XSP16, literal(-11)))
        CFI (cfiCond193) V0 load(1, XDATA, add(CFA_XSP16, literal(-10)))
        CFI (cfiCond193) V1 load(1, XDATA, add(CFA_XSP16, literal(-9)))
        CFI (cfiCond193) V2 load(1, XDATA, add(CFA_XSP16, literal(-8)))
        CFI (cfiCond193) V3 load(1, XDATA, add(CFA_XSP16, literal(-7)))
        CFI (cfiCond193) R7 load(1, XDATA, add(CFA_XSP16, literal(-6)))
        CFI (cfiCond193) ?RET_LOW load(1, XDATA, add(CFA_XSP16, literal(-5)))
        CFI (cfiCond193) ?RET_HIGH load(1, XDATA, add(CFA_XSP16, literal(-4)))
        CFI (cfiCond193) ?BRET_EXT load(1, XDATA, add(CFA_XSP16, literal(-3)))
        CFI (cfiCond193) DPL0 load(1, XDATA, add(CFA_XSP16, literal(-2)))
        CFI (cfiCond193) DPH0 load(1, XDATA, add(CFA_XSP16, literal(-1)))
        CFI (cfiCond193) CFA_SP SP+0
        CFI (cfiCond193) CFA_XSP16 add(XSP16, 16)
        CFI Block cfiPicker194 Using cfiCommon1
        CFI (cfiPicker194) NoFunction
        CFI (cfiPicker194) Picker
        LCALL   ??Subroutine28_4 & 0xFFFF
??CrossCallReturnLabel_71:
        ADD     A,#0x14
        LCALL   ?Subroutine31 & 0xFFFF
??CrossCallReturnLabel_82:
        RET
        CFI EndBlock cfiCond192
        CFI EndBlock cfiCond193
        CFI EndBlock cfiPicker194

        RSEG BANKED_CODE:CODE:NOROOT(0)
?Subroutine2:
        CFI Block cfiCond195 Using cfiCommon0
        CFI NoFunction
        CFI Conditional ??CrossCallReturnLabel_4
        CFI R6 load(1, XDATA, add(CFA_XSP16, literal(-12)))
        CFI VB load(1, XDATA, add(CFA_XSP16, literal(-11)))
        CFI V0 load(1, XDATA, add(CFA_XSP16, literal(-10)))
        CFI V1 load(1, XDATA, add(CFA_XSP16, literal(-9)))
        CFI V2 load(1, XDATA, add(CFA_XSP16, literal(-8)))
        CFI V3 load(1, XDATA, add(CFA_XSP16, literal(-7)))
        CFI R7 load(1, XDATA, add(CFA_XSP16, literal(-6)))
        CFI ?RET_LOW load(1, XDATA, add(CFA_XSP16, literal(-5)))
        CFI ?RET_HIGH load(1, XDATA, add(CFA_XSP16, literal(-4)))
        CFI ?BRET_EXT load(1, XDATA, add(CFA_XSP16, literal(-3)))
        CFI DPL0 load(1, XDATA, add(CFA_XSP16, literal(-2)))
        CFI DPH0 load(1, XDATA, add(CFA_XSP16, literal(-1)))
        CFI CFA_SP SP+0
        CFI CFA_XSP16 add(XSP16, 16)
        CFI Block cfiCond196 Using cfiCommon0
        CFI (cfiCond196) NoFunction
        CFI (cfiCond196) Conditional ??CrossCallReturnLabel_5
        CFI (cfiCond196) R6 load(1, XDATA, add(CFA_XSP16, literal(-12)))
        CFI (cfiCond196) VB load(1, XDATA, add(CFA_XSP16, literal(-11)))
        CFI (cfiCond196) V0 load(1, XDATA, add(CFA_XSP16, literal(-10)))
        CFI (cfiCond196) V1 load(1, XDATA, add(CFA_XSP16, literal(-9)))
        CFI (cfiCond196) V2 load(1, XDATA, add(CFA_XSP16, literal(-8)))
        CFI (cfiCond196) V3 load(1, XDATA, add(CFA_XSP16, literal(-7)))
        CFI (cfiCond196) R7 load(1, XDATA, add(CFA_XSP16, literal(-6)))
        CFI (cfiCond196) ?RET_LOW load(1, XDATA, add(CFA_XSP16, literal(-5)))
        CFI (cfiCond196) ?RET_HIGH load(1, XDATA, add(CFA_XSP16, literal(-4)))
        CFI (cfiCond196) ?BRET_EXT load(1, XDATA, add(CFA_XSP16, literal(-3)))
        CFI (cfiCond196) DPL0 load(1, XDATA, add(CFA_XSP16, literal(-2)))
        CFI (cfiCond196) DPH0 load(1, XDATA, add(CFA_XSP16, literal(-1)))
        CFI (cfiCond196) CFA_SP SP+0
        CFI (cfiCond196) CFA_XSP16 add(XSP16, 16)
        CFI Block cfiPicker197 Using cfiCommon1
        CFI (cfiPicker197) NoFunction
        CFI (cfiPicker197) Picker
        MOVX    @DPTR,A
        MOV     A,R0
        ADD     A,#0x13
        MOV     DPL,A
        MOV     A,R1
        ADDC    A,#0x0
        MOV     DPH,A
        CLR     A
        LCALL   ??Subroutine28_4 & 0xFFFF
??CrossCallReturnLabel_72:
        ADD     A,#0x1e
        LCALL   ?Subroutine31 & 0xFFFF
??CrossCallReturnLabel_81:
        RET
        CFI EndBlock cfiCond195
        CFI EndBlock cfiCond196
        CFI EndBlock cfiPicker197

        RSEG BANKED_CODE:CODE:NOROOT(0)
?Subroutine1:
        CFI Block cfiCond198 Using cfiCommon0
        CFI NoFunction
        CFI Conditional ??CrossCallReturnLabel_2
        CFI R6 load(1, XDATA, add(CFA_XSP16, literal(-12)))
        CFI VB load(1, XDATA, add(CFA_XSP16, literal(-11)))
        CFI V0 load(1, XDATA, add(CFA_XSP16, literal(-10)))
        CFI V1 load(1, XDATA, add(CFA_XSP16, literal(-9)))
        CFI V2 load(1, XDATA, add(CFA_XSP16, literal(-8)))
        CFI V3 load(1, XDATA, add(CFA_XSP16, literal(-7)))
        CFI R7 load(1, XDATA, add(CFA_XSP16, literal(-6)))
        CFI ?RET_LOW load(1, XDATA, add(CFA_XSP16, literal(-5)))
        CFI ?RET_HIGH load(1, XDATA, add(CFA_XSP16, literal(-4)))
        CFI ?BRET_EXT load(1, XDATA, add(CFA_XSP16, literal(-3)))
        CFI DPL0 load(1, XDATA, add(CFA_XSP16, literal(-2)))
        CFI DPH0 load(1, XDATA, add(CFA_XSP16, literal(-1)))
        CFI CFA_SP SP+0
        CFI CFA_XSP16 add(XSP16, 16)
        CFI Block cfiCond199 Using cfiCommon0
        CFI (cfiCond199) NoFunction
        CFI (cfiCond199) Conditional ??CrossCallReturnLabel_3
        CFI (cfiCond199) R6 load(1, XDATA, add(CFA_XSP16, literal(-12)))
        CFI (cfiCond199) VB load(1, XDATA, add(CFA_XSP16, literal(-11)))
        CFI (cfiCond199) V0 load(1, XDATA, add(CFA_XSP16, literal(-10)))
        CFI (cfiCond199) V1 load(1, XDATA, add(CFA_XSP16, literal(-9)))
        CFI (cfiCond199) V2 load(1, XDATA, add(CFA_XSP16, literal(-8)))
        CFI (cfiCond199) V3 load(1, XDATA, add(CFA_XSP16, literal(-7)))
        CFI (cfiCond199) R7 load(1, XDATA, add(CFA_XSP16, literal(-6)))
        CFI (cfiCond199) ?RET_LOW load(1, XDATA, add(CFA_XSP16, literal(-5)))
        CFI (cfiCond199) ?RET_HIGH load(1, XDATA, add(CFA_XSP16, literal(-4)))
        CFI (cfiCond199) ?BRET_EXT load(1, XDATA, add(CFA_XSP16, literal(-3)))
        CFI (cfiCond199) DPL0 load(1, XDATA, add(CFA_XSP16, literal(-2)))
        CFI (cfiCond199) DPH0 load(1, XDATA, add(CFA_XSP16, literal(-1)))
        CFI (cfiCond199) CFA_SP SP+0
        CFI (cfiCond199) CFA_XSP16 add(XSP16, 16)
        CFI Block cfiPicker200 Using cfiCommon1
        CFI (cfiPicker200) NoFunction
        CFI (cfiPicker200) Picker
        MOVX    @DPTR,A
        MOV     A,R0
        ADD     A,#0xe
        MOV     DPL,A
        MOV     A,R1
        ADDC    A,#0x0
        MOV     DPH,A
        CLR     A
        LCALL   ??Subroutine28_4 & 0xFFFF
??CrossCallReturnLabel_73:
        ADD     A,#0x18
        LCALL   ?Subroutine31 & 0xFFFF
??CrossCallReturnLabel_80:
        RET
        CFI EndBlock cfiCond198
        CFI EndBlock cfiCond199
        CFI EndBlock cfiPicker200

        RSEG BANKED_CODE:CODE:NOROOT(0)
?Subroutine0:
        CFI Block cfiCond201 Using cfiCommon0
        CFI NoFunction
        CFI Conditional ??CrossCallReturnLabel_0
        CFI R6 load(1, XDATA, add(CFA_XSP16, literal(-12)))
        CFI VB load(1, XDATA, add(CFA_XSP16, literal(-11)))
        CFI V0 load(1, XDATA, add(CFA_XSP16, literal(-10)))
        CFI V1 load(1, XDATA, add(CFA_XSP16, literal(-9)))
        CFI V2 load(1, XDATA, add(CFA_XSP16, literal(-8)))
        CFI V3 load(1, XDATA, add(CFA_XSP16, literal(-7)))
        CFI R7 load(1, XDATA, add(CFA_XSP16, literal(-6)))
        CFI ?RET_LOW load(1, XDATA, add(CFA_XSP16, literal(-5)))
        CFI ?RET_HIGH load(1, XDATA, add(CFA_XSP16, literal(-4)))
        CFI ?BRET_EXT load(1, XDATA, add(CFA_XSP16, literal(-3)))
        CFI DPL0 load(1, XDATA, add(CFA_XSP16, literal(-2)))
        CFI DPH0 load(1, XDATA, add(CFA_XSP16, literal(-1)))
        CFI CFA_SP SP+0
        CFI CFA_XSP16 add(XSP16, 16)
        CFI Block cfiCond202 Using cfiCommon0
        CFI (cfiCond202) NoFunction
        CFI (cfiCond202) Conditional ??CrossCallReturnLabel_1
        CFI (cfiCond202) R6 load(1, XDATA, add(CFA_XSP16, literal(-12)))
        CFI (cfiCond202) VB load(1, XDATA, add(CFA_XSP16, literal(-11)))
        CFI (cfiCond202) V0 load(1, XDATA, add(CFA_XSP16, literal(-10)))
        CFI (cfiCond202) V1 load(1, XDATA, add(CFA_XSP16, literal(-9)))
        CFI (cfiCond202) V2 load(1, XDATA, add(CFA_XSP16, literal(-8)))
        CFI (cfiCond202) V3 load(1, XDATA, add(CFA_XSP16, literal(-7)))
        CFI (cfiCond202) R7 load(1, XDATA, add(CFA_XSP16, literal(-6)))
        CFI (cfiCond202) ?RET_LOW load(1, XDATA, add(CFA_XSP16, literal(-5)))
        CFI (cfiCond202) ?RET_HIGH load(1, XDATA, add(CFA_XSP16, literal(-4)))
        CFI (cfiCond202) ?BRET_EXT load(1, XDATA, add(CFA_XSP16, literal(-3)))
        CFI (cfiCond202) DPL0 load(1, XDATA, add(CFA_XSP16, literal(-2)))
        CFI (cfiCond202) DPH0 load(1, XDATA, add(CFA_XSP16, literal(-1)))
        CFI (cfiCond202) CFA_SP SP+0
        CFI (cfiCond202) CFA_XSP16 add(XSP16, 16)
        CFI Block cfiPicker203 Using cfiCommon1
        CFI (cfiPicker203) NoFunction
        CFI (cfiPicker203) Picker
        LCALL   ?Subroutine32 & 0xFFFF
??CrossCallReturnLabel_91:
        INC     DPTR
        LCALL   ?Subroutine34 & 0xFFFF
??CrossCallReturnLabel_130:
        LCALL   ?Subroutine27 & 0xFFFF
??CrossCallReturnLabel_56:
        LCALL   ?Subroutine34 & 0xFFFF
??CrossCallReturnLabel_131:
        LCALL   ?Subroutine26 & 0xFFFF
??CrossCallReturnLabel_53:
        LCALL   ??Subroutine34_1 & 0xFFFF
??CrossCallReturnLabel_132:
        INC     DPTR
        LCALL   ?Subroutine26 & 0xFFFF
??CrossCallReturnLabel_54:
        LCALL   ??Subroutine34_0 & 0xFFFF
??CrossCallReturnLabel_133:
        INC     DPTR
        INC     DPTR
        INC     DPTR
        MOVX    @DPTR,A
        CLR     A
        MOV     DPL,R0
        MOV     DPH,R1
        LCALL   ??Subroutine28_3 & 0xFFFF
??CrossCallReturnLabel_62:
        ADD     A,#0xc
        LCALL   ?Subroutine30 & 0xFFFF
??CrossCallReturnLabel_76:
        LCALL   ??Subroutine28_2 & 0xFFFF
??CrossCallReturnLabel_61:
        ADD     A,#0xd
        LCALL   ?Subroutine30 & 0xFFFF
??CrossCallReturnLabel_77:
        LCALL   ??Subroutine28_1 & 0xFFFF
??CrossCallReturnLabel_60:
        ADD     A,#0xe
        LCALL   ?Subroutine30 & 0xFFFF
??CrossCallReturnLabel_78:
        LCALL   ??Subroutine28_0 & 0xFFFF
??CrossCallReturnLabel_59:
        ADD     A,#0xf
        LCALL   ?Subroutine29 & 0xFFFF
??CrossCallReturnLabel_74:
        INC     DPTR
        INC     DPTR
        INC     DPTR
        INC     DPTR
        INC     DPTR
        INC     DPTR
        INC     DPTR
        MOVX    @DPTR,A
        CLR     A
        MOV     DPL,R0
        MOV     DPH,R1
        LCALL   ?Subroutine28 & 0xFFFF
??CrossCallReturnLabel_57:
        ADD     A,#0x12
        LCALL   ?Subroutine29 & 0xFFFF
??CrossCallReturnLabel_75:
        LCALL   ?Subroutine28 & 0xFFFF
??CrossCallReturnLabel_58:
        ADD     A,#0x13
        LCALL   ?Subroutine31 & 0xFFFF
??CrossCallReturnLabel_79:
        RET
        CFI EndBlock cfiCond201
        CFI EndBlock cfiCond202
        CFI EndBlock cfiPicker203

        RSEG BANKED_CODE:CODE:NOROOT(0)
?Subroutine34:
        CFI Block cfiCond204 Using cfiCommon0
        CFI NoFunction
        CFI Conditional ??CrossCallReturnLabel_130, ??CrossCallReturnLabel_0
        CFI R6 load(1, XDATA, add(CFA_XSP16, literal(-12)))
        CFI VB load(1, XDATA, add(CFA_XSP16, literal(-11)))
        CFI V0 load(1, XDATA, add(CFA_XSP16, literal(-10)))
        CFI V1 load(1, XDATA, add(CFA_XSP16, literal(-9)))
        CFI V2 load(1, XDATA, add(CFA_XSP16, literal(-8)))
        CFI V3 load(1, XDATA, add(CFA_XSP16, literal(-7)))
        CFI R7 load(1, XDATA, add(CFA_XSP16, literal(-6)))
        CFI ?RET_LOW load(1, XDATA, add(CFA_XSP16, literal(-5)))
        CFI ?RET_HIGH load(1, XDATA, add(CFA_XSP16, literal(-4)))
        CFI ?BRET_EXT load(1, XDATA, add(CFA_XSP16, literal(-3)))
        CFI DPL0 load(1, XDATA, add(CFA_XSP16, literal(-2)))
        CFI DPH0 load(1, XDATA, add(CFA_XSP16, literal(-1)))
        CFI CFA_SP SP+0
        CFI CFA_XSP16 add(XSP16, 16)
        CFI Block cfiCond205 Using cfiCommon0
        CFI (cfiCond205) NoFunction
        CFI (cfiCond205) Conditional ??CrossCallReturnLabel_130, ??CrossCallReturnLabel_1
        CFI (cfiCond205) R6 load(1, XDATA, add(CFA_XSP16, literal(-12)))
        CFI (cfiCond205) VB load(1, XDATA, add(CFA_XSP16, literal(-11)))
        CFI (cfiCond205) V0 load(1, XDATA, add(CFA_XSP16, literal(-10)))
        CFI (cfiCond205) V1 load(1, XDATA, add(CFA_XSP16, literal(-9)))
        CFI (cfiCond205) V2 load(1, XDATA, add(CFA_XSP16, literal(-8)))
        CFI (cfiCond205) V3 load(1, XDATA, add(CFA_XSP16, literal(-7)))
        CFI (cfiCond205) R7 load(1, XDATA, add(CFA_XSP16, literal(-6)))
        CFI (cfiCond205) ?RET_LOW load(1, XDATA, add(CFA_XSP16, literal(-5)))
        CFI (cfiCond205) ?RET_HIGH load(1, XDATA, add(CFA_XSP16, literal(-4)))
        CFI (cfiCond205) ?BRET_EXT load(1, XDATA, add(CFA_XSP16, literal(-3)))
        CFI (cfiCond205) DPL0 load(1, XDATA, add(CFA_XSP16, literal(-2)))
        CFI (cfiCond205) DPH0 load(1, XDATA, add(CFA_XSP16, literal(-1)))
        CFI (cfiCond205) CFA_SP SP+0
        CFI (cfiCond205) CFA_XSP16 add(XSP16, 16)
        CFI Block cfiCond206 Using cfiCommon0
        CFI (cfiCond206) NoFunction
        CFI (cfiCond206) Conditional ??CrossCallReturnLabel_131, ??CrossCallReturnLabel_0
        CFI (cfiCond206) R6 load(1, XDATA, add(CFA_XSP16, literal(-12)))
        CFI (cfiCond206) VB load(1, XDATA, add(CFA_XSP16, literal(-11)))
        CFI (cfiCond206) V0 load(1, XDATA, add(CFA_XSP16, literal(-10)))
        CFI (cfiCond206) V1 load(1, XDATA, add(CFA_XSP16, literal(-9)))
        CFI (cfiCond206) V2 load(1, XDATA, add(CFA_XSP16, literal(-8)))
        CFI (cfiCond206) V3 load(1, XDATA, add(CFA_XSP16, literal(-7)))
        CFI (cfiCond206) R7 load(1, XDATA, add(CFA_XSP16, literal(-6)))
        CFI (cfiCond206) ?RET_LOW load(1, XDATA, add(CFA_XSP16, literal(-5)))
        CFI (cfiCond206) ?RET_HIGH load(1, XDATA, add(CFA_XSP16, literal(-4)))
        CFI (cfiCond206) ?BRET_EXT load(1, XDATA, add(CFA_XSP16, literal(-3)))
        CFI (cfiCond206) DPL0 load(1, XDATA, add(CFA_XSP16, literal(-2)))
        CFI (cfiCond206) DPH0 load(1, XDATA, add(CFA_XSP16, literal(-1)))
        CFI (cfiCond206) CFA_SP SP+0
        CFI (cfiCond206) CFA_XSP16 add(XSP16, 16)
        CFI Block cfiCond207 Using cfiCommon0
        CFI (cfiCond207) NoFunction
        CFI (cfiCond207) Conditional ??CrossCallReturnLabel_131, ??CrossCallReturnLabel_1
        CFI (cfiCond207) R6 load(1, XDATA, add(CFA_XSP16, literal(-12)))
        CFI (cfiCond207) VB load(1, XDATA, add(CFA_XSP16, literal(-11)))
        CFI (cfiCond207) V0 load(1, XDATA, add(CFA_XSP16, literal(-10)))
        CFI (cfiCond207) V1 load(1, XDATA, add(CFA_XSP16, literal(-9)))
        CFI (cfiCond207) V2 load(1, XDATA, add(CFA_XSP16, literal(-8)))
        CFI (cfiCond207) V3 load(1, XDATA, add(CFA_XSP16, literal(-7)))
        CFI (cfiCond207) R7 load(1, XDATA, add(CFA_XSP16, literal(-6)))
        CFI (cfiCond207) ?RET_LOW load(1, XDATA, add(CFA_XSP16, literal(-5)))
        CFI (cfiCond207) ?RET_HIGH load(1, XDATA, add(CFA_XSP16, literal(-4)))
        CFI (cfiCond207) ?BRET_EXT load(1, XDATA, add(CFA_XSP16, literal(-3)))
        CFI (cfiCond207) DPL0 load(1, XDATA, add(CFA_XSP16, literal(-2)))
        CFI (cfiCond207) DPH0 load(1, XDATA, add(CFA_XSP16, literal(-1)))
        CFI (cfiCond207) CFA_SP SP+0
        CFI (cfiCond207) CFA_XSP16 add(XSP16, 16)
        CFI Block cfiPicker208 Using cfiCommon1
        CFI (cfiPicker208) NoFunction
        CFI (cfiPicker208) Picker
        INC     DPTR
        INC     DPTR
        INC     DPTR
        CFI Block cfiCond209 Using cfiCommon0
        CFI (cfiCond209) NoFunction
        CFI (cfiCond209) Conditional ??CrossCallReturnLabel_133, ??CrossCallReturnLabel_0
        CFI (cfiCond209) R6 load(1, XDATA, add(CFA_XSP16, literal(-12)))
        CFI (cfiCond209) VB load(1, XDATA, add(CFA_XSP16, literal(-11)))
        CFI (cfiCond209) V0 load(1, XDATA, add(CFA_XSP16, literal(-10)))
        CFI (cfiCond209) V1 load(1, XDATA, add(CFA_XSP16, literal(-9)))
        CFI (cfiCond209) V2 load(1, XDATA, add(CFA_XSP16, literal(-8)))
        CFI (cfiCond209) V3 load(1, XDATA, add(CFA_XSP16, literal(-7)))
        CFI (cfiCond209) R7 load(1, XDATA, add(CFA_XSP16, literal(-6)))
        CFI (cfiCond209) ?RET_LOW load(1, XDATA, add(CFA_XSP16, literal(-5)))
        CFI (cfiCond209) ?RET_HIGH load(1, XDATA, add(CFA_XSP16, literal(-4)))
        CFI (cfiCond209) ?BRET_EXT load(1, XDATA, add(CFA_XSP16, literal(-3)))
        CFI (cfiCond209) DPL0 load(1, XDATA, add(CFA_XSP16, literal(-2)))
        CFI (cfiCond209) DPH0 load(1, XDATA, add(CFA_XSP16, literal(-1)))
        CFI (cfiCond209) CFA_SP SP+0
        CFI (cfiCond209) CFA_XSP16 add(XSP16, 16)
        CFI Block cfiCond210 Using cfiCommon0
        CFI (cfiCond210) NoFunction
        CFI (cfiCond210) Conditional ??CrossCallReturnLabel_133, ??CrossCallReturnLabel_1
        CFI (cfiCond210) R6 load(1, XDATA, add(CFA_XSP16, literal(-12)))
        CFI (cfiCond210) VB load(1, XDATA, add(CFA_XSP16, literal(-11)))
        CFI (cfiCond210) V0 load(1, XDATA, add(CFA_XSP16, literal(-10)))
        CFI (cfiCond210) V1 load(1, XDATA, add(CFA_XSP16, literal(-9)))
        CFI (cfiCond210) V2 load(1, XDATA, add(CFA_XSP16, literal(-8)))
        CFI (cfiCond210) V3 load(1, XDATA, add(CFA_XSP16, literal(-7)))
        CFI (cfiCond210) R7 load(1, XDATA, add(CFA_XSP16, literal(-6)))
        CFI (cfiCond210) ?RET_LOW load(1, XDATA, add(CFA_XSP16, literal(-5)))
        CFI (cfiCond210) ?RET_HIGH load(1, XDATA, add(CFA_XSP16, literal(-4)))
        CFI (cfiCond210) ?BRET_EXT load(1, XDATA, add(CFA_XSP16, literal(-3)))
        CFI (cfiCond210) DPL0 load(1, XDATA, add(CFA_XSP16, literal(-2)))
        CFI (cfiCond210) DPH0 load(1, XDATA, add(CFA_XSP16, literal(-1)))
        CFI (cfiCond210) CFA_SP SP+0
        CFI (cfiCond210) CFA_XSP16 add(XSP16, 16)
??Subroutine34_0:
        INC     DPTR
        CFI Block cfiCond211 Using cfiCommon0
        CFI (cfiCond211) NoFunction
        CFI (cfiCond211) Conditional ??CrossCallReturnLabel_132, ??CrossCallReturnLabel_0
        CFI (cfiCond211) R6 load(1, XDATA, add(CFA_XSP16, literal(-12)))
        CFI (cfiCond211) VB load(1, XDATA, add(CFA_XSP16, literal(-11)))
        CFI (cfiCond211) V0 load(1, XDATA, add(CFA_XSP16, literal(-10)))
        CFI (cfiCond211) V1 load(1, XDATA, add(CFA_XSP16, literal(-9)))
        CFI (cfiCond211) V2 load(1, XDATA, add(CFA_XSP16, literal(-8)))
        CFI (cfiCond211) V3 load(1, XDATA, add(CFA_XSP16, literal(-7)))
        CFI (cfiCond211) R7 load(1, XDATA, add(CFA_XSP16, literal(-6)))
        CFI (cfiCond211) ?RET_LOW load(1, XDATA, add(CFA_XSP16, literal(-5)))
        CFI (cfiCond211) ?RET_HIGH load(1, XDATA, add(CFA_XSP16, literal(-4)))
        CFI (cfiCond211) ?BRET_EXT load(1, XDATA, add(CFA_XSP16, literal(-3)))
        CFI (cfiCond211) DPL0 load(1, XDATA, add(CFA_XSP16, literal(-2)))
        CFI (cfiCond211) DPH0 load(1, XDATA, add(CFA_XSP16, literal(-1)))
        CFI (cfiCond211) CFA_SP SP+0
        CFI (cfiCond211) CFA_XSP16 add(XSP16, 16)
        CFI Block cfiCond212 Using cfiCommon0
        CFI (cfiCond212) NoFunction
        CFI (cfiCond212) Conditional ??CrossCallReturnLabel_132, ??CrossCallReturnLabel_1
        CFI (cfiCond212) R6 load(1, XDATA, add(CFA_XSP16, literal(-12)))
        CFI (cfiCond212) VB load(1, XDATA, add(CFA_XSP16, literal(-11)))
        CFI (cfiCond212) V0 load(1, XDATA, add(CFA_XSP16, literal(-10)))
        CFI (cfiCond212) V1 load(1, XDATA, add(CFA_XSP16, literal(-9)))
        CFI (cfiCond212) V2 load(1, XDATA, add(CFA_XSP16, literal(-8)))
        CFI (cfiCond212) V3 load(1, XDATA, add(CFA_XSP16, literal(-7)))
        CFI (cfiCond212) R7 load(1, XDATA, add(CFA_XSP16, literal(-6)))
        CFI (cfiCond212) ?RET_LOW load(1, XDATA, add(CFA_XSP16, literal(-5)))
        CFI (cfiCond212) ?RET_HIGH load(1, XDATA, add(CFA_XSP16, literal(-4)))
        CFI (cfiCond212) ?BRET_EXT load(1, XDATA, add(CFA_XSP16, literal(-3)))
        CFI (cfiCond212) DPL0 load(1, XDATA, add(CFA_XSP16, literal(-2)))
        CFI (cfiCond212) DPH0 load(1, XDATA, add(CFA_XSP16, literal(-1)))
        CFI (cfiCond212) CFA_SP SP+0
        CFI (cfiCond212) CFA_XSP16 add(XSP16, 16)
??Subroutine34_1:
        MOVX    A,@DPTR
        CFI EndBlock cfiCond204
        CFI EndBlock cfiCond205
        CFI EndBlock cfiCond206
        CFI EndBlock cfiCond207
        CFI EndBlock cfiPicker208
        CFI EndBlock cfiCond209
        CFI EndBlock cfiCond210
        CFI EndBlock cfiCond211
        CFI EndBlock cfiCond212
        REQUIRE ?Subroutine43
        ; // Fall through to label ?Subroutine43

        RSEG BANKED_CODE:CODE:NOROOT(0)
?Subroutine43:
        CFI Block cfiCond213 Using cfiCommon0
        CFI NoFunction
        CFI Conditional ??CrossCallReturnLabel_130, ??CrossCallReturnLabel_0
        CFI R6 load(1, XDATA, add(CFA_XSP16, literal(-12)))
        CFI VB load(1, XDATA, add(CFA_XSP16, literal(-11)))
        CFI V0 load(1, XDATA, add(CFA_XSP16, literal(-10)))
        CFI V1 load(1, XDATA, add(CFA_XSP16, literal(-9)))
        CFI V2 load(1, XDATA, add(CFA_XSP16, literal(-8)))
        CFI V3 load(1, XDATA, add(CFA_XSP16, literal(-7)))
        CFI R7 load(1, XDATA, add(CFA_XSP16, literal(-6)))
        CFI ?RET_LOW load(1, XDATA, add(CFA_XSP16, literal(-5)))
        CFI ?RET_HIGH load(1, XDATA, add(CFA_XSP16, literal(-4)))
        CFI ?BRET_EXT load(1, XDATA, add(CFA_XSP16, literal(-3)))
        CFI DPL0 load(1, XDATA, add(CFA_XSP16, literal(-2)))
        CFI DPH0 load(1, XDATA, add(CFA_XSP16, literal(-1)))
        CFI CFA_SP SP+0
        CFI CFA_XSP16 add(XSP16, 16)
        CFI Block cfiCond214 Using cfiCommon0
        CFI (cfiCond214) NoFunction
        CFI (cfiCond214) Conditional ??CrossCallReturnLabel_130, ??CrossCallReturnLabel_1
        CFI (cfiCond214) R6 load(1, XDATA, add(CFA_XSP16, literal(-12)))
        CFI (cfiCond214) VB load(1, XDATA, add(CFA_XSP16, literal(-11)))
        CFI (cfiCond214) V0 load(1, XDATA, add(CFA_XSP16, literal(-10)))
        CFI (cfiCond214) V1 load(1, XDATA, add(CFA_XSP16, literal(-9)))
        CFI (cfiCond214) V2 load(1, XDATA, add(CFA_XSP16, literal(-8)))
        CFI (cfiCond214) V3 load(1, XDATA, add(CFA_XSP16, literal(-7)))
        CFI (cfiCond214) R7 load(1, XDATA, add(CFA_XSP16, literal(-6)))
        CFI (cfiCond214) ?RET_LOW load(1, XDATA, add(CFA_XSP16, literal(-5)))
        CFI (cfiCond214) ?RET_HIGH load(1, XDATA, add(CFA_XSP16, literal(-4)))
        CFI (cfiCond214) ?BRET_EXT load(1, XDATA, add(CFA_XSP16, literal(-3)))
        CFI (cfiCond214) DPL0 load(1, XDATA, add(CFA_XSP16, literal(-2)))
        CFI (cfiCond214) DPH0 load(1, XDATA, add(CFA_XSP16, literal(-1)))
        CFI (cfiCond214) CFA_SP SP+0
        CFI (cfiCond214) CFA_XSP16 add(XSP16, 16)
        CFI Block cfiCond215 Using cfiCommon0
        CFI (cfiCond215) NoFunction
        CFI (cfiCond215) Conditional ??CrossCallReturnLabel_131, ??CrossCallReturnLabel_0
        CFI (cfiCond215) R6 load(1, XDATA, add(CFA_XSP16, literal(-12)))
        CFI (cfiCond215) VB load(1, XDATA, add(CFA_XSP16, literal(-11)))
        CFI (cfiCond215) V0 load(1, XDATA, add(CFA_XSP16, literal(-10)))
        CFI (cfiCond215) V1 load(1, XDATA, add(CFA_XSP16, literal(-9)))
        CFI (cfiCond215) V2 load(1, XDATA, add(CFA_XSP16, literal(-8)))
        CFI (cfiCond215) V3 load(1, XDATA, add(CFA_XSP16, literal(-7)))
        CFI (cfiCond215) R7 load(1, XDATA, add(CFA_XSP16, literal(-6)))
        CFI (cfiCond215) ?RET_LOW load(1, XDATA, add(CFA_XSP16, literal(-5)))
        CFI (cfiCond215) ?RET_HIGH load(1, XDATA, add(CFA_XSP16, literal(-4)))
        CFI (cfiCond215) ?BRET_EXT load(1, XDATA, add(CFA_XSP16, literal(-3)))
        CFI (cfiCond215) DPL0 load(1, XDATA, add(CFA_XSP16, literal(-2)))
        CFI (cfiCond215) DPH0 load(1, XDATA, add(CFA_XSP16, literal(-1)))
        CFI (cfiCond215) CFA_SP SP+0
        CFI (cfiCond215) CFA_XSP16 add(XSP16, 16)
        CFI Block cfiCond216 Using cfiCommon0
        CFI (cfiCond216) NoFunction
        CFI (cfiCond216) Conditional ??CrossCallReturnLabel_131, ??CrossCallReturnLabel_1
        CFI (cfiCond216) R6 load(1, XDATA, add(CFA_XSP16, literal(-12)))
        CFI (cfiCond216) VB load(1, XDATA, add(CFA_XSP16, literal(-11)))
        CFI (cfiCond216) V0 load(1, XDATA, add(CFA_XSP16, literal(-10)))
        CFI (cfiCond216) V1 load(1, XDATA, add(CFA_XSP16, literal(-9)))
        CFI (cfiCond216) V2 load(1, XDATA, add(CFA_XSP16, literal(-8)))
        CFI (cfiCond216) V3 load(1, XDATA, add(CFA_XSP16, literal(-7)))
        CFI (cfiCond216) R7 load(1, XDATA, add(CFA_XSP16, literal(-6)))
        CFI (cfiCond216) ?RET_LOW load(1, XDATA, add(CFA_XSP16, literal(-5)))
        CFI (cfiCond216) ?RET_HIGH load(1, XDATA, add(CFA_XSP16, literal(-4)))
        CFI (cfiCond216) ?BRET_EXT load(1, XDATA, add(CFA_XSP16, literal(-3)))
        CFI (cfiCond216) DPL0 load(1, XDATA, add(CFA_XSP16, literal(-2)))
        CFI (cfiCond216) DPH0 load(1, XDATA, add(CFA_XSP16, literal(-1)))
        CFI (cfiCond216) CFA_SP SP+0
        CFI (cfiCond216) CFA_XSP16 add(XSP16, 16)
        CFI Block cfiCond217 Using cfiCommon0
        CFI (cfiCond217) NoFunction
        CFI (cfiCond217) Conditional ??CrossCallReturnLabel_133, ??CrossCallReturnLabel_0
        CFI (cfiCond217) R6 load(1, XDATA, add(CFA_XSP16, literal(-12)))
        CFI (cfiCond217) VB load(1, XDATA, add(CFA_XSP16, literal(-11)))
        CFI (cfiCond217) V0 load(1, XDATA, add(CFA_XSP16, literal(-10)))
        CFI (cfiCond217) V1 load(1, XDATA, add(CFA_XSP16, literal(-9)))
        CFI (cfiCond217) V2 load(1, XDATA, add(CFA_XSP16, literal(-8)))
        CFI (cfiCond217) V3 load(1, XDATA, add(CFA_XSP16, literal(-7)))
        CFI (cfiCond217) R7 load(1, XDATA, add(CFA_XSP16, literal(-6)))
        CFI (cfiCond217) ?RET_LOW load(1, XDATA, add(CFA_XSP16, literal(-5)))
        CFI (cfiCond217) ?RET_HIGH load(1, XDATA, add(CFA_XSP16, literal(-4)))
        CFI (cfiCond217) ?BRET_EXT load(1, XDATA, add(CFA_XSP16, literal(-3)))
        CFI (cfiCond217) DPL0 load(1, XDATA, add(CFA_XSP16, literal(-2)))
        CFI (cfiCond217) DPH0 load(1, XDATA, add(CFA_XSP16, literal(-1)))
        CFI (cfiCond217) CFA_SP SP+0
        CFI (cfiCond217) CFA_XSP16 add(XSP16, 16)
        CFI Block cfiCond218 Using cfiCommon0
        CFI (cfiCond218) NoFunction
        CFI (cfiCond218) Conditional ??CrossCallReturnLabel_133, ??CrossCallReturnLabel_1
        CFI (cfiCond218) R6 load(1, XDATA, add(CFA_XSP16, literal(-12)))
        CFI (cfiCond218) VB load(1, XDATA, add(CFA_XSP16, literal(-11)))
        CFI (cfiCond218) V0 load(1, XDATA, add(CFA_XSP16, literal(-10)))
        CFI (cfiCond218) V1 load(1, XDATA, add(CFA_XSP16, literal(-9)))
        CFI (cfiCond218) V2 load(1, XDATA, add(CFA_XSP16, literal(-8)))
        CFI (cfiCond218) V3 load(1, XDATA, add(CFA_XSP16, literal(-7)))
        CFI (cfiCond218) R7 load(1, XDATA, add(CFA_XSP16, literal(-6)))
        CFI (cfiCond218) ?RET_LOW load(1, XDATA, add(CFA_XSP16, literal(-5)))
        CFI (cfiCond218) ?RET_HIGH load(1, XDATA, add(CFA_XSP16, literal(-4)))
        CFI (cfiCond218) ?BRET_EXT load(1, XDATA, add(CFA_XSP16, literal(-3)))
        CFI (cfiCond218) DPL0 load(1, XDATA, add(CFA_XSP16, literal(-2)))
        CFI (cfiCond218) DPH0 load(1, XDATA, add(CFA_XSP16, literal(-1)))
        CFI (cfiCond218) CFA_SP SP+0
        CFI (cfiCond218) CFA_XSP16 add(XSP16, 16)
        CFI Block cfiCond219 Using cfiCommon0
        CFI (cfiCond219) NoFunction
        CFI (cfiCond219) Conditional ??CrossCallReturnLabel_132, ??CrossCallReturnLabel_0
        CFI (cfiCond219) R6 load(1, XDATA, add(CFA_XSP16, literal(-12)))
        CFI (cfiCond219) VB load(1, XDATA, add(CFA_XSP16, literal(-11)))
        CFI (cfiCond219) V0 load(1, XDATA, add(CFA_XSP16, literal(-10)))
        CFI (cfiCond219) V1 load(1, XDATA, add(CFA_XSP16, literal(-9)))
        CFI (cfiCond219) V2 load(1, XDATA, add(CFA_XSP16, literal(-8)))
        CFI (cfiCond219) V3 load(1, XDATA, add(CFA_XSP16, literal(-7)))
        CFI (cfiCond219) R7 load(1, XDATA, add(CFA_XSP16, literal(-6)))
        CFI (cfiCond219) ?RET_LOW load(1, XDATA, add(CFA_XSP16, literal(-5)))
        CFI (cfiCond219) ?RET_HIGH load(1, XDATA, add(CFA_XSP16, literal(-4)))
        CFI (cfiCond219) ?BRET_EXT load(1, XDATA, add(CFA_XSP16, literal(-3)))
        CFI (cfiCond219) DPL0 load(1, XDATA, add(CFA_XSP16, literal(-2)))
        CFI (cfiCond219) DPH0 load(1, XDATA, add(CFA_XSP16, literal(-1)))
        CFI (cfiCond219) CFA_SP SP+0
        CFI (cfiCond219) CFA_XSP16 add(XSP16, 16)
        CFI Block cfiCond220 Using cfiCommon0
        CFI (cfiCond220) NoFunction
        CFI (cfiCond220) Conditional ??CrossCallReturnLabel_132, ??CrossCallReturnLabel_1
        CFI (cfiCond220) R6 load(1, XDATA, add(CFA_XSP16, literal(-12)))
        CFI (cfiCond220) VB load(1, XDATA, add(CFA_XSP16, literal(-11)))
        CFI (cfiCond220) V0 load(1, XDATA, add(CFA_XSP16, literal(-10)))
        CFI (cfiCond220) V1 load(1, XDATA, add(CFA_XSP16, literal(-9)))
        CFI (cfiCond220) V2 load(1, XDATA, add(CFA_XSP16, literal(-8)))
        CFI (cfiCond220) V3 load(1, XDATA, add(CFA_XSP16, literal(-7)))
        CFI (cfiCond220) R7 load(1, XDATA, add(CFA_XSP16, literal(-6)))
        CFI (cfiCond220) ?RET_LOW load(1, XDATA, add(CFA_XSP16, literal(-5)))
        CFI (cfiCond220) ?RET_HIGH load(1, XDATA, add(CFA_XSP16, literal(-4)))
        CFI (cfiCond220) ?BRET_EXT load(1, XDATA, add(CFA_XSP16, literal(-3)))
        CFI (cfiCond220) DPL0 load(1, XDATA, add(CFA_XSP16, literal(-2)))
        CFI (cfiCond220) DPH0 load(1, XDATA, add(CFA_XSP16, literal(-1)))
        CFI (cfiCond220) CFA_SP SP+0
        CFI (cfiCond220) CFA_XSP16 add(XSP16, 16)
        CFI Block cfiCond221 Using cfiCommon0
        CFI (cfiCond221) NoFunction
        CFI (cfiCond221) Conditional ??CrossCallReturnLabel_135, ??CrossCallReturnLabel_76, ??CrossCallReturnLabel_0
        CFI (cfiCond221) R6 load(1, XDATA, add(CFA_XSP16, literal(-12)))
        CFI (cfiCond221) VB load(1, XDATA, add(CFA_XSP16, literal(-11)))
        CFI (cfiCond221) V0 load(1, XDATA, add(CFA_XSP16, literal(-10)))
        CFI (cfiCond221) V1 load(1, XDATA, add(CFA_XSP16, literal(-9)))
        CFI (cfiCond221) V2 load(1, XDATA, add(CFA_XSP16, literal(-8)))
        CFI (cfiCond221) V3 load(1, XDATA, add(CFA_XSP16, literal(-7)))
        CFI (cfiCond221) R7 load(1, XDATA, add(CFA_XSP16, literal(-6)))
        CFI (cfiCond221) ?RET_LOW load(1, XDATA, add(CFA_XSP16, literal(-5)))
        CFI (cfiCond221) ?RET_HIGH load(1, XDATA, add(CFA_XSP16, literal(-4)))
        CFI (cfiCond221) ?BRET_EXT load(1, XDATA, add(CFA_XSP16, literal(-3)))
        CFI (cfiCond221) DPL0 load(1, XDATA, add(CFA_XSP16, literal(-2)))
        CFI (cfiCond221) DPH0 load(1, XDATA, add(CFA_XSP16, literal(-1)))
        CFI (cfiCond221) CFA_SP SP+0
        CFI (cfiCond221) CFA_XSP16 add(XSP16, 16)
        CFI Block cfiCond222 Using cfiCommon0
        CFI (cfiCond222) NoFunction
        CFI (cfiCond222) Conditional ??CrossCallReturnLabel_135, ??CrossCallReturnLabel_76, ??CrossCallReturnLabel_1
        CFI (cfiCond222) R6 load(1, XDATA, add(CFA_XSP16, literal(-12)))
        CFI (cfiCond222) VB load(1, XDATA, add(CFA_XSP16, literal(-11)))
        CFI (cfiCond222) V0 load(1, XDATA, add(CFA_XSP16, literal(-10)))
        CFI (cfiCond222) V1 load(1, XDATA, add(CFA_XSP16, literal(-9)))
        CFI (cfiCond222) V2 load(1, XDATA, add(CFA_XSP16, literal(-8)))
        CFI (cfiCond222) V3 load(1, XDATA, add(CFA_XSP16, literal(-7)))
        CFI (cfiCond222) R7 load(1, XDATA, add(CFA_XSP16, literal(-6)))
        CFI (cfiCond222) ?RET_LOW load(1, XDATA, add(CFA_XSP16, literal(-5)))
        CFI (cfiCond222) ?RET_HIGH load(1, XDATA, add(CFA_XSP16, literal(-4)))
        CFI (cfiCond222) ?BRET_EXT load(1, XDATA, add(CFA_XSP16, literal(-3)))
        CFI (cfiCond222) DPL0 load(1, XDATA, add(CFA_XSP16, literal(-2)))
        CFI (cfiCond222) DPH0 load(1, XDATA, add(CFA_XSP16, literal(-1)))
        CFI (cfiCond222) CFA_SP SP+0
        CFI (cfiCond222) CFA_XSP16 add(XSP16, 16)
        CFI Block cfiCond223 Using cfiCommon0
        CFI (cfiCond223) NoFunction
        CFI (cfiCond223) Conditional ??CrossCallReturnLabel_135, ??CrossCallReturnLabel_77, ??CrossCallReturnLabel_0
        CFI (cfiCond223) R6 load(1, XDATA, add(CFA_XSP16, literal(-12)))
        CFI (cfiCond223) VB load(1, XDATA, add(CFA_XSP16, literal(-11)))
        CFI (cfiCond223) V0 load(1, XDATA, add(CFA_XSP16, literal(-10)))
        CFI (cfiCond223) V1 load(1, XDATA, add(CFA_XSP16, literal(-9)))
        CFI (cfiCond223) V2 load(1, XDATA, add(CFA_XSP16, literal(-8)))
        CFI (cfiCond223) V3 load(1, XDATA, add(CFA_XSP16, literal(-7)))
        CFI (cfiCond223) R7 load(1, XDATA, add(CFA_XSP16, literal(-6)))
        CFI (cfiCond223) ?RET_LOW load(1, XDATA, add(CFA_XSP16, literal(-5)))
        CFI (cfiCond223) ?RET_HIGH load(1, XDATA, add(CFA_XSP16, literal(-4)))
        CFI (cfiCond223) ?BRET_EXT load(1, XDATA, add(CFA_XSP16, literal(-3)))
        CFI (cfiCond223) DPL0 load(1, XDATA, add(CFA_XSP16, literal(-2)))
        CFI (cfiCond223) DPH0 load(1, XDATA, add(CFA_XSP16, literal(-1)))
        CFI (cfiCond223) CFA_SP SP+0
        CFI (cfiCond223) CFA_XSP16 add(XSP16, 16)
        CFI Block cfiCond224 Using cfiCommon0
        CFI (cfiCond224) NoFunction
        CFI (cfiCond224) Conditional ??CrossCallReturnLabel_135, ??CrossCallReturnLabel_77, ??CrossCallReturnLabel_1
        CFI (cfiCond224) R6 load(1, XDATA, add(CFA_XSP16, literal(-12)))
        CFI (cfiCond224) VB load(1, XDATA, add(CFA_XSP16, literal(-11)))
        CFI (cfiCond224) V0 load(1, XDATA, add(CFA_XSP16, literal(-10)))
        CFI (cfiCond224) V1 load(1, XDATA, add(CFA_XSP16, literal(-9)))
        CFI (cfiCond224) V2 load(1, XDATA, add(CFA_XSP16, literal(-8)))
        CFI (cfiCond224) V3 load(1, XDATA, add(CFA_XSP16, literal(-7)))
        CFI (cfiCond224) R7 load(1, XDATA, add(CFA_XSP16, literal(-6)))
        CFI (cfiCond224) ?RET_LOW load(1, XDATA, add(CFA_XSP16, literal(-5)))
        CFI (cfiCond224) ?RET_HIGH load(1, XDATA, add(CFA_XSP16, literal(-4)))
        CFI (cfiCond224) ?BRET_EXT load(1, XDATA, add(CFA_XSP16, literal(-3)))
        CFI (cfiCond224) DPL0 load(1, XDATA, add(CFA_XSP16, literal(-2)))
        CFI (cfiCond224) DPH0 load(1, XDATA, add(CFA_XSP16, literal(-1)))
        CFI (cfiCond224) CFA_SP SP+0
        CFI (cfiCond224) CFA_XSP16 add(XSP16, 16)
        CFI Block cfiCond225 Using cfiCommon0
        CFI (cfiCond225) NoFunction
        CFI (cfiCond225) Conditional ??CrossCallReturnLabel_135, ??CrossCallReturnLabel_78, ??CrossCallReturnLabel_0
        CFI (cfiCond225) R6 load(1, XDATA, add(CFA_XSP16, literal(-12)))
        CFI (cfiCond225) VB load(1, XDATA, add(CFA_XSP16, literal(-11)))
        CFI (cfiCond225) V0 load(1, XDATA, add(CFA_XSP16, literal(-10)))
        CFI (cfiCond225) V1 load(1, XDATA, add(CFA_XSP16, literal(-9)))
        CFI (cfiCond225) V2 load(1, XDATA, add(CFA_XSP16, literal(-8)))
        CFI (cfiCond225) V3 load(1, XDATA, add(CFA_XSP16, literal(-7)))
        CFI (cfiCond225) R7 load(1, XDATA, add(CFA_XSP16, literal(-6)))
        CFI (cfiCond225) ?RET_LOW load(1, XDATA, add(CFA_XSP16, literal(-5)))
        CFI (cfiCond225) ?RET_HIGH load(1, XDATA, add(CFA_XSP16, literal(-4)))
        CFI (cfiCond225) ?BRET_EXT load(1, XDATA, add(CFA_XSP16, literal(-3)))
        CFI (cfiCond225) DPL0 load(1, XDATA, add(CFA_XSP16, literal(-2)))
        CFI (cfiCond225) DPH0 load(1, XDATA, add(CFA_XSP16, literal(-1)))
        CFI (cfiCond225) CFA_SP SP+0
        CFI (cfiCond225) CFA_XSP16 add(XSP16, 16)
        CFI Block cfiCond226 Using cfiCommon0
        CFI (cfiCond226) NoFunction
        CFI (cfiCond226) Conditional ??CrossCallReturnLabel_135, ??CrossCallReturnLabel_78, ??CrossCallReturnLabel_1
        CFI (cfiCond226) R6 load(1, XDATA, add(CFA_XSP16, literal(-12)))
        CFI (cfiCond226) VB load(1, XDATA, add(CFA_XSP16, literal(-11)))
        CFI (cfiCond226) V0 load(1, XDATA, add(CFA_XSP16, literal(-10)))
        CFI (cfiCond226) V1 load(1, XDATA, add(CFA_XSP16, literal(-9)))
        CFI (cfiCond226) V2 load(1, XDATA, add(CFA_XSP16, literal(-8)))
        CFI (cfiCond226) V3 load(1, XDATA, add(CFA_XSP16, literal(-7)))
        CFI (cfiCond226) R7 load(1, XDATA, add(CFA_XSP16, literal(-6)))
        CFI (cfiCond226) ?RET_LOW load(1, XDATA, add(CFA_XSP16, literal(-5)))
        CFI (cfiCond226) ?RET_HIGH load(1, XDATA, add(CFA_XSP16, literal(-4)))
        CFI (cfiCond226) ?BRET_EXT load(1, XDATA, add(CFA_XSP16, literal(-3)))
        CFI (cfiCond226) DPL0 load(1, XDATA, add(CFA_XSP16, literal(-2)))
        CFI (cfiCond226) DPH0 load(1, XDATA, add(CFA_XSP16, literal(-1)))
        CFI (cfiCond226) CFA_SP SP+0
        CFI (cfiCond226) CFA_XSP16 add(XSP16, 16)
        CFI Block cfiCond227 Using cfiCommon0
        CFI (cfiCond227) NoFunction
        CFI (cfiCond227) Conditional ??CrossCallReturnLabel_134, ??CrossCallReturnLabel_74, ??CrossCallReturnLabel_0
        CFI (cfiCond227) R6 load(1, XDATA, add(CFA_XSP16, literal(-12)))
        CFI (cfiCond227) VB load(1, XDATA, add(CFA_XSP16, literal(-11)))
        CFI (cfiCond227) V0 load(1, XDATA, add(CFA_XSP16, literal(-10)))
        CFI (cfiCond227) V1 load(1, XDATA, add(CFA_XSP16, literal(-9)))
        CFI (cfiCond227) V2 load(1, XDATA, add(CFA_XSP16, literal(-8)))
        CFI (cfiCond227) V3 load(1, XDATA, add(CFA_XSP16, literal(-7)))
        CFI (cfiCond227) R7 load(1, XDATA, add(CFA_XSP16, literal(-6)))
        CFI (cfiCond227) ?RET_LOW load(1, XDATA, add(CFA_XSP16, literal(-5)))
        CFI (cfiCond227) ?RET_HIGH load(1, XDATA, add(CFA_XSP16, literal(-4)))
        CFI (cfiCond227) ?BRET_EXT load(1, XDATA, add(CFA_XSP16, literal(-3)))
        CFI (cfiCond227) DPL0 load(1, XDATA, add(CFA_XSP16, literal(-2)))
        CFI (cfiCond227) DPH0 load(1, XDATA, add(CFA_XSP16, literal(-1)))
        CFI (cfiCond227) CFA_SP SP+0
        CFI (cfiCond227) CFA_XSP16 add(XSP16, 16)
        CFI Block cfiCond228 Using cfiCommon0
        CFI (cfiCond228) NoFunction
        CFI (cfiCond228) Conditional ??CrossCallReturnLabel_134, ??CrossCallReturnLabel_74, ??CrossCallReturnLabel_1
        CFI (cfiCond228) R6 load(1, XDATA, add(CFA_XSP16, literal(-12)))
        CFI (cfiCond228) VB load(1, XDATA, add(CFA_XSP16, literal(-11)))
        CFI (cfiCond228) V0 load(1, XDATA, add(CFA_XSP16, literal(-10)))
        CFI (cfiCond228) V1 load(1, XDATA, add(CFA_XSP16, literal(-9)))
        CFI (cfiCond228) V2 load(1, XDATA, add(CFA_XSP16, literal(-8)))
        CFI (cfiCond228) V3 load(1, XDATA, add(CFA_XSP16, literal(-7)))
        CFI (cfiCond228) R7 load(1, XDATA, add(CFA_XSP16, literal(-6)))
        CFI (cfiCond228) ?RET_LOW load(1, XDATA, add(CFA_XSP16, literal(-5)))
        CFI (cfiCond228) ?RET_HIGH load(1, XDATA, add(CFA_XSP16, literal(-4)))
        CFI (cfiCond228) ?BRET_EXT load(1, XDATA, add(CFA_XSP16, literal(-3)))
        CFI (cfiCond228) DPL0 load(1, XDATA, add(CFA_XSP16, literal(-2)))
        CFI (cfiCond228) DPH0 load(1, XDATA, add(CFA_XSP16, literal(-1)))
        CFI (cfiCond228) CFA_SP SP+0
        CFI (cfiCond228) CFA_XSP16 add(XSP16, 16)
        CFI Block cfiCond229 Using cfiCommon0
        CFI (cfiCond229) NoFunction
        CFI (cfiCond229) Conditional ??CrossCallReturnLabel_134, ??CrossCallReturnLabel_75, ??CrossCallReturnLabel_0
        CFI (cfiCond229) R6 load(1, XDATA, add(CFA_XSP16, literal(-12)))
        CFI (cfiCond229) VB load(1, XDATA, add(CFA_XSP16, literal(-11)))
        CFI (cfiCond229) V0 load(1, XDATA, add(CFA_XSP16, literal(-10)))
        CFI (cfiCond229) V1 load(1, XDATA, add(CFA_XSP16, literal(-9)))
        CFI (cfiCond229) V2 load(1, XDATA, add(CFA_XSP16, literal(-8)))
        CFI (cfiCond229) V3 load(1, XDATA, add(CFA_XSP16, literal(-7)))
        CFI (cfiCond229) R7 load(1, XDATA, add(CFA_XSP16, literal(-6)))
        CFI (cfiCond229) ?RET_LOW load(1, XDATA, add(CFA_XSP16, literal(-5)))
        CFI (cfiCond229) ?RET_HIGH load(1, XDATA, add(CFA_XSP16, literal(-4)))
        CFI (cfiCond229) ?BRET_EXT load(1, XDATA, add(CFA_XSP16, literal(-3)))
        CFI (cfiCond229) DPL0 load(1, XDATA, add(CFA_XSP16, literal(-2)))
        CFI (cfiCond229) DPH0 load(1, XDATA, add(CFA_XSP16, literal(-1)))
        CFI (cfiCond229) CFA_SP SP+0
        CFI (cfiCond229) CFA_XSP16 add(XSP16, 16)
        CFI Block cfiCond230 Using cfiCommon0
        CFI (cfiCond230) NoFunction
        CFI (cfiCond230) Conditional ??CrossCallReturnLabel_134, ??CrossCallReturnLabel_75, ??CrossCallReturnLabel_1
        CFI (cfiCond230) R6 load(1, XDATA, add(CFA_XSP16, literal(-12)))
        CFI (cfiCond230) VB load(1, XDATA, add(CFA_XSP16, literal(-11)))
        CFI (cfiCond230) V0 load(1, XDATA, add(CFA_XSP16, literal(-10)))
        CFI (cfiCond230) V1 load(1, XDATA, add(CFA_XSP16, literal(-9)))
        CFI (cfiCond230) V2 load(1, XDATA, add(CFA_XSP16, literal(-8)))
        CFI (cfiCond230) V3 load(1, XDATA, add(CFA_XSP16, literal(-7)))
        CFI (cfiCond230) R7 load(1, XDATA, add(CFA_XSP16, literal(-6)))
        CFI (cfiCond230) ?RET_LOW load(1, XDATA, add(CFA_XSP16, literal(-5)))
        CFI (cfiCond230) ?RET_HIGH load(1, XDATA, add(CFA_XSP16, literal(-4)))
        CFI (cfiCond230) ?BRET_EXT load(1, XDATA, add(CFA_XSP16, literal(-3)))
        CFI (cfiCond230) DPL0 load(1, XDATA, add(CFA_XSP16, literal(-2)))
        CFI (cfiCond230) DPH0 load(1, XDATA, add(CFA_XSP16, literal(-1)))
        CFI (cfiCond230) CFA_SP SP+0
        CFI (cfiCond230) CFA_XSP16 add(XSP16, 16)
        CFI Block cfiPicker231 Using cfiCommon1
        CFI (cfiPicker231) NoFunction
        CFI (cfiPicker231) Picker
        MOV     DPL,R0
        MOV     DPH,R1
        RET
        CFI EndBlock cfiCond213
        CFI EndBlock cfiCond214
        CFI EndBlock cfiCond215
        CFI EndBlock cfiCond216
        CFI EndBlock cfiCond217
        CFI EndBlock cfiCond218
        CFI EndBlock cfiCond219
        CFI EndBlock cfiCond220
        CFI EndBlock cfiCond221
        CFI EndBlock cfiCond222
        CFI EndBlock cfiCond223
        CFI EndBlock cfiCond224
        CFI EndBlock cfiCond225
        CFI EndBlock cfiCond226
        CFI EndBlock cfiCond227
        CFI EndBlock cfiCond228
        CFI EndBlock cfiCond229
        CFI EndBlock cfiCond230
        CFI EndBlock cfiPicker231

        RSEG BANKED_CODE:CODE:NOROOT(0)
?Subroutine32:
        CFI Block cfiCond232 Using cfiCommon0
        CFI NoFunction
        CFI Conditional ??CrossCallReturnLabel_90
        CFI R6 load(1, XDATA, add(CFA_XSP16, literal(-12)))
        CFI VB load(1, XDATA, add(CFA_XSP16, literal(-11)))
        CFI V0 load(1, XDATA, add(CFA_XSP16, literal(-10)))
        CFI V1 load(1, XDATA, add(CFA_XSP16, literal(-9)))
        CFI V2 load(1, XDATA, add(CFA_XSP16, literal(-8)))
        CFI V3 load(1, XDATA, add(CFA_XSP16, literal(-7)))
        CFI R7 load(1, XDATA, add(CFA_XSP16, literal(-6)))
        CFI ?RET_LOW load(1, XDATA, add(CFA_XSP16, literal(-5)))
        CFI ?RET_HIGH load(1, XDATA, add(CFA_XSP16, literal(-4)))
        CFI ?BRET_EXT load(1, XDATA, add(CFA_XSP16, literal(-3)))
        CFI DPL0 load(1, XDATA, add(CFA_XSP16, literal(-2)))
        CFI DPH0 load(1, XDATA, add(CFA_XSP16, literal(-1)))
        CFI CFA_SP SP+0
        CFI CFA_XSP16 add(XSP16, 16)
        CFI Block cfiCond233 Using cfiCommon0
        CFI (cfiCond233) NoFunction
        CFI (cfiCond233) Conditional ??CrossCallReturnLabel_91, ??CrossCallReturnLabel_0
        CFI (cfiCond233) R6 load(1, XDATA, add(CFA_XSP16, literal(-12)))
        CFI (cfiCond233) VB load(1, XDATA, add(CFA_XSP16, literal(-11)))
        CFI (cfiCond233) V0 load(1, XDATA, add(CFA_XSP16, literal(-10)))
        CFI (cfiCond233) V1 load(1, XDATA, add(CFA_XSP16, literal(-9)))
        CFI (cfiCond233) V2 load(1, XDATA, add(CFA_XSP16, literal(-8)))
        CFI (cfiCond233) V3 load(1, XDATA, add(CFA_XSP16, literal(-7)))
        CFI (cfiCond233) R7 load(1, XDATA, add(CFA_XSP16, literal(-6)))
        CFI (cfiCond233) ?RET_LOW load(1, XDATA, add(CFA_XSP16, literal(-5)))
        CFI (cfiCond233) ?RET_HIGH load(1, XDATA, add(CFA_XSP16, literal(-4)))
        CFI (cfiCond233) ?BRET_EXT load(1, XDATA, add(CFA_XSP16, literal(-3)))
        CFI (cfiCond233) DPL0 load(1, XDATA, add(CFA_XSP16, literal(-2)))
        CFI (cfiCond233) DPH0 load(1, XDATA, add(CFA_XSP16, literal(-1)))
        CFI (cfiCond233) CFA_SP SP+0
        CFI (cfiCond233) CFA_XSP16 add(XSP16, 16)
        CFI Block cfiCond234 Using cfiCommon0
        CFI (cfiCond234) NoFunction
        CFI (cfiCond234) Conditional ??CrossCallReturnLabel_91, ??CrossCallReturnLabel_1
        CFI (cfiCond234) R6 load(1, XDATA, add(CFA_XSP16, literal(-12)))
        CFI (cfiCond234) VB load(1, XDATA, add(CFA_XSP16, literal(-11)))
        CFI (cfiCond234) V0 load(1, XDATA, add(CFA_XSP16, literal(-10)))
        CFI (cfiCond234) V1 load(1, XDATA, add(CFA_XSP16, literal(-9)))
        CFI (cfiCond234) V2 load(1, XDATA, add(CFA_XSP16, literal(-8)))
        CFI (cfiCond234) V3 load(1, XDATA, add(CFA_XSP16, literal(-7)))
        CFI (cfiCond234) R7 load(1, XDATA, add(CFA_XSP16, literal(-6)))
        CFI (cfiCond234) ?RET_LOW load(1, XDATA, add(CFA_XSP16, literal(-5)))
        CFI (cfiCond234) ?RET_HIGH load(1, XDATA, add(CFA_XSP16, literal(-4)))
        CFI (cfiCond234) ?BRET_EXT load(1, XDATA, add(CFA_XSP16, literal(-3)))
        CFI (cfiCond234) DPL0 load(1, XDATA, add(CFA_XSP16, literal(-2)))
        CFI (cfiCond234) DPH0 load(1, XDATA, add(CFA_XSP16, literal(-1)))
        CFI (cfiCond234) CFA_SP SP+0
        CFI (cfiCond234) CFA_XSP16 add(XSP16, 16)
        CFI Block cfiPicker235 Using cfiCommon1
        CFI (cfiPicker235) NoFunction
        CFI (cfiPicker235) Picker
        LCALL   ?Subroutine37 & 0xFFFF
??CrossCallReturnLabel_97:
        RET
        CFI EndBlock cfiCond232
        CFI EndBlock cfiCond233
        CFI EndBlock cfiCond234
        CFI EndBlock cfiPicker235

        RSEG BANKED_CODE:CODE:NOROOT(0)
?Subroutine37:
        CFI Block cfiCond236 Using cfiCommon0
        CFI NoFunction
        CFI Conditional ??CrossCallReturnLabel_98, ??CrossCallReturnLabel_95, ??CrossCallReturnLabel_55, ??CrossCallReturnLabel_22
        CFI R6 load(1, XDATA, add(CFA_XSP16, literal(-12)))
        CFI VB load(1, XDATA, add(CFA_XSP16, literal(-11)))
        CFI V0 load(1, XDATA, add(CFA_XSP16, literal(-10)))
        CFI V1 load(1, XDATA, add(CFA_XSP16, literal(-9)))
        CFI V2 load(1, XDATA, add(CFA_XSP16, literal(-8)))
        CFI V3 load(1, XDATA, add(CFA_XSP16, literal(-7)))
        CFI R7 load(1, XDATA, add(CFA_XSP16, literal(-6)))
        CFI ?RET_LOW load(1, XDATA, add(CFA_XSP16, literal(-5)))
        CFI ?RET_HIGH load(1, XDATA, add(CFA_XSP16, literal(-4)))
        CFI ?BRET_EXT load(1, XDATA, add(CFA_XSP16, literal(-3)))
        CFI DPL0 load(1, XDATA, add(CFA_XSP16, literal(-2)))
        CFI DPH0 load(1, XDATA, add(CFA_XSP16, literal(-1)))
        CFI CFA_SP SP+0
        CFI CFA_XSP16 add(XSP16, 16)
        CFI Block cfiCond237 Using cfiCommon0
        CFI (cfiCond237) NoFunction
        CFI (cfiCond237) Conditional ??CrossCallReturnLabel_98, ??CrossCallReturnLabel_95, ??CrossCallReturnLabel_55, ??CrossCallReturnLabel_23
        CFI (cfiCond237) R6 load(1, XDATA, add(CFA_XSP16, literal(-12)))
        CFI (cfiCond237) VB load(1, XDATA, add(CFA_XSP16, literal(-11)))
        CFI (cfiCond237) V0 load(1, XDATA, add(CFA_XSP16, literal(-10)))
        CFI (cfiCond237) V1 load(1, XDATA, add(CFA_XSP16, literal(-9)))
        CFI (cfiCond237) V2 load(1, XDATA, add(CFA_XSP16, literal(-8)))
        CFI (cfiCond237) V3 load(1, XDATA, add(CFA_XSP16, literal(-7)))
        CFI (cfiCond237) R7 load(1, XDATA, add(CFA_XSP16, literal(-6)))
        CFI (cfiCond237) ?RET_LOW load(1, XDATA, add(CFA_XSP16, literal(-5)))
        CFI (cfiCond237) ?RET_HIGH load(1, XDATA, add(CFA_XSP16, literal(-4)))
        CFI (cfiCond237) ?BRET_EXT load(1, XDATA, add(CFA_XSP16, literal(-3)))
        CFI (cfiCond237) DPL0 load(1, XDATA, add(CFA_XSP16, literal(-2)))
        CFI (cfiCond237) DPH0 load(1, XDATA, add(CFA_XSP16, literal(-1)))
        CFI (cfiCond237) CFA_SP SP+0
        CFI (cfiCond237) CFA_XSP16 add(XSP16, 16)
        CFI Block cfiCond238 Using cfiCommon0
        CFI (cfiCond238) NoFunction
        CFI (cfiCond238) Conditional ??CrossCallReturnLabel_98, ??CrossCallReturnLabel_95, ??CrossCallReturnLabel_56, ??CrossCallReturnLabel_0
        CFI (cfiCond238) R6 load(1, XDATA, add(CFA_XSP16, literal(-12)))
        CFI (cfiCond238) VB load(1, XDATA, add(CFA_XSP16, literal(-11)))
        CFI (cfiCond238) V0 load(1, XDATA, add(CFA_XSP16, literal(-10)))
        CFI (cfiCond238) V1 load(1, XDATA, add(CFA_XSP16, literal(-9)))
        CFI (cfiCond238) V2 load(1, XDATA, add(CFA_XSP16, literal(-8)))
        CFI (cfiCond238) V3 load(1, XDATA, add(CFA_XSP16, literal(-7)))
        CFI (cfiCond238) R7 load(1, XDATA, add(CFA_XSP16, literal(-6)))
        CFI (cfiCond238) ?RET_LOW load(1, XDATA, add(CFA_XSP16, literal(-5)))
        CFI (cfiCond238) ?RET_HIGH load(1, XDATA, add(CFA_XSP16, literal(-4)))
        CFI (cfiCond238) ?BRET_EXT load(1, XDATA, add(CFA_XSP16, literal(-3)))
        CFI (cfiCond238) DPL0 load(1, XDATA, add(CFA_XSP16, literal(-2)))
        CFI (cfiCond238) DPH0 load(1, XDATA, add(CFA_XSP16, literal(-1)))
        CFI (cfiCond238) CFA_SP SP+0
        CFI (cfiCond238) CFA_XSP16 add(XSP16, 16)
        CFI Block cfiCond239 Using cfiCommon0
        CFI (cfiCond239) NoFunction
        CFI (cfiCond239) Conditional ??CrossCallReturnLabel_98, ??CrossCallReturnLabel_95, ??CrossCallReturnLabel_56, ??CrossCallReturnLabel_1
        CFI (cfiCond239) R6 load(1, XDATA, add(CFA_XSP16, literal(-12)))
        CFI (cfiCond239) VB load(1, XDATA, add(CFA_XSP16, literal(-11)))
        CFI (cfiCond239) V0 load(1, XDATA, add(CFA_XSP16, literal(-10)))
        CFI (cfiCond239) V1 load(1, XDATA, add(CFA_XSP16, literal(-9)))
        CFI (cfiCond239) V2 load(1, XDATA, add(CFA_XSP16, literal(-8)))
        CFI (cfiCond239) V3 load(1, XDATA, add(CFA_XSP16, literal(-7)))
        CFI (cfiCond239) R7 load(1, XDATA, add(CFA_XSP16, literal(-6)))
        CFI (cfiCond239) ?RET_LOW load(1, XDATA, add(CFA_XSP16, literal(-5)))
        CFI (cfiCond239) ?RET_HIGH load(1, XDATA, add(CFA_XSP16, literal(-4)))
        CFI (cfiCond239) ?BRET_EXT load(1, XDATA, add(CFA_XSP16, literal(-3)))
        CFI (cfiCond239) DPL0 load(1, XDATA, add(CFA_XSP16, literal(-2)))
        CFI (cfiCond239) DPH0 load(1, XDATA, add(CFA_XSP16, literal(-1)))
        CFI (cfiCond239) CFA_SP SP+0
        CFI (cfiCond239) CFA_XSP16 add(XSP16, 16)
        CFI Block cfiCond240 Using cfiCommon0
        CFI (cfiCond240) NoFunction
        CFI (cfiCond240) Conditional ??CrossCallReturnLabel_98, ??CrossCallReturnLabel_96, ??CrossCallReturnLabel_53, ??CrossCallReturnLabel_0
        CFI (cfiCond240) R6 load(1, XDATA, add(CFA_XSP16, literal(-12)))
        CFI (cfiCond240) VB load(1, XDATA, add(CFA_XSP16, literal(-11)))
        CFI (cfiCond240) V0 load(1, XDATA, add(CFA_XSP16, literal(-10)))
        CFI (cfiCond240) V1 load(1, XDATA, add(CFA_XSP16, literal(-9)))
        CFI (cfiCond240) V2 load(1, XDATA, add(CFA_XSP16, literal(-8)))
        CFI (cfiCond240) V3 load(1, XDATA, add(CFA_XSP16, literal(-7)))
        CFI (cfiCond240) R7 load(1, XDATA, add(CFA_XSP16, literal(-6)))
        CFI (cfiCond240) ?RET_LOW load(1, XDATA, add(CFA_XSP16, literal(-5)))
        CFI (cfiCond240) ?RET_HIGH load(1, XDATA, add(CFA_XSP16, literal(-4)))
        CFI (cfiCond240) ?BRET_EXT load(1, XDATA, add(CFA_XSP16, literal(-3)))
        CFI (cfiCond240) DPL0 load(1, XDATA, add(CFA_XSP16, literal(-2)))
        CFI (cfiCond240) DPH0 load(1, XDATA, add(CFA_XSP16, literal(-1)))
        CFI (cfiCond240) CFA_SP SP+0
        CFI (cfiCond240) CFA_XSP16 add(XSP16, 16)
        CFI Block cfiCond241 Using cfiCommon0
        CFI (cfiCond241) NoFunction
        CFI (cfiCond241) Conditional ??CrossCallReturnLabel_98, ??CrossCallReturnLabel_96, ??CrossCallReturnLabel_53, ??CrossCallReturnLabel_1
        CFI (cfiCond241) R6 load(1, XDATA, add(CFA_XSP16, literal(-12)))
        CFI (cfiCond241) VB load(1, XDATA, add(CFA_XSP16, literal(-11)))
        CFI (cfiCond241) V0 load(1, XDATA, add(CFA_XSP16, literal(-10)))
        CFI (cfiCond241) V1 load(1, XDATA, add(CFA_XSP16, literal(-9)))
        CFI (cfiCond241) V2 load(1, XDATA, add(CFA_XSP16, literal(-8)))
        CFI (cfiCond241) V3 load(1, XDATA, add(CFA_XSP16, literal(-7)))
        CFI (cfiCond241) R7 load(1, XDATA, add(CFA_XSP16, literal(-6)))
        CFI (cfiCond241) ?RET_LOW load(1, XDATA, add(CFA_XSP16, literal(-5)))
        CFI (cfiCond241) ?RET_HIGH load(1, XDATA, add(CFA_XSP16, literal(-4)))
        CFI (cfiCond241) ?BRET_EXT load(1, XDATA, add(CFA_XSP16, literal(-3)))
        CFI (cfiCond241) DPL0 load(1, XDATA, add(CFA_XSP16, literal(-2)))
        CFI (cfiCond241) DPH0 load(1, XDATA, add(CFA_XSP16, literal(-1)))
        CFI (cfiCond241) CFA_SP SP+0
        CFI (cfiCond241) CFA_XSP16 add(XSP16, 16)
        CFI Block cfiCond242 Using cfiCommon0
        CFI (cfiCond242) NoFunction
        CFI (cfiCond242) Conditional ??CrossCallReturnLabel_98, ??CrossCallReturnLabel_96, ??CrossCallReturnLabel_54, ??CrossCallReturnLabel_0
        CFI (cfiCond242) R6 load(1, XDATA, add(CFA_XSP16, literal(-12)))
        CFI (cfiCond242) VB load(1, XDATA, add(CFA_XSP16, literal(-11)))
        CFI (cfiCond242) V0 load(1, XDATA, add(CFA_XSP16, literal(-10)))
        CFI (cfiCond242) V1 load(1, XDATA, add(CFA_XSP16, literal(-9)))
        CFI (cfiCond242) V2 load(1, XDATA, add(CFA_XSP16, literal(-8)))
        CFI (cfiCond242) V3 load(1, XDATA, add(CFA_XSP16, literal(-7)))
        CFI (cfiCond242) R7 load(1, XDATA, add(CFA_XSP16, literal(-6)))
        CFI (cfiCond242) ?RET_LOW load(1, XDATA, add(CFA_XSP16, literal(-5)))
        CFI (cfiCond242) ?RET_HIGH load(1, XDATA, add(CFA_XSP16, literal(-4)))
        CFI (cfiCond242) ?BRET_EXT load(1, XDATA, add(CFA_XSP16, literal(-3)))
        CFI (cfiCond242) DPL0 load(1, XDATA, add(CFA_XSP16, literal(-2)))
        CFI (cfiCond242) DPH0 load(1, XDATA, add(CFA_XSP16, literal(-1)))
        CFI (cfiCond242) CFA_SP SP+0
        CFI (cfiCond242) CFA_XSP16 add(XSP16, 16)
        CFI Block cfiCond243 Using cfiCommon0
        CFI (cfiCond243) NoFunction
        CFI (cfiCond243) Conditional ??CrossCallReturnLabel_98, ??CrossCallReturnLabel_96, ??CrossCallReturnLabel_54, ??CrossCallReturnLabel_1
        CFI (cfiCond243) R6 load(1, XDATA, add(CFA_XSP16, literal(-12)))
        CFI (cfiCond243) VB load(1, XDATA, add(CFA_XSP16, literal(-11)))
        CFI (cfiCond243) V0 load(1, XDATA, add(CFA_XSP16, literal(-10)))
        CFI (cfiCond243) V1 load(1, XDATA, add(CFA_XSP16, literal(-9)))
        CFI (cfiCond243) V2 load(1, XDATA, add(CFA_XSP16, literal(-8)))
        CFI (cfiCond243) V3 load(1, XDATA, add(CFA_XSP16, literal(-7)))
        CFI (cfiCond243) R7 load(1, XDATA, add(CFA_XSP16, literal(-6)))
        CFI (cfiCond243) ?RET_LOW load(1, XDATA, add(CFA_XSP16, literal(-5)))
        CFI (cfiCond243) ?RET_HIGH load(1, XDATA, add(CFA_XSP16, literal(-4)))
        CFI (cfiCond243) ?BRET_EXT load(1, XDATA, add(CFA_XSP16, literal(-3)))
        CFI (cfiCond243) DPL0 load(1, XDATA, add(CFA_XSP16, literal(-2)))
        CFI (cfiCond243) DPH0 load(1, XDATA, add(CFA_XSP16, literal(-1)))
        CFI (cfiCond243) CFA_SP SP+0
        CFI (cfiCond243) CFA_XSP16 add(XSP16, 16)
        CFI Block cfiCond244 Using cfiCommon0
        CFI (cfiCond244) NoFunction
        CFI (cfiCond244) Conditional ??CrossCallReturnLabel_97, ??CrossCallReturnLabel_90
        CFI (cfiCond244) R6 load(1, XDATA, add(CFA_XSP16, literal(-12)))
        CFI (cfiCond244) VB load(1, XDATA, add(CFA_XSP16, literal(-11)))
        CFI (cfiCond244) V0 load(1, XDATA, add(CFA_XSP16, literal(-10)))
        CFI (cfiCond244) V1 load(1, XDATA, add(CFA_XSP16, literal(-9)))
        CFI (cfiCond244) V2 load(1, XDATA, add(CFA_XSP16, literal(-8)))
        CFI (cfiCond244) V3 load(1, XDATA, add(CFA_XSP16, literal(-7)))
        CFI (cfiCond244) R7 load(1, XDATA, add(CFA_XSP16, literal(-6)))
        CFI (cfiCond244) ?RET_LOW load(1, XDATA, add(CFA_XSP16, literal(-5)))
        CFI (cfiCond244) ?RET_HIGH load(1, XDATA, add(CFA_XSP16, literal(-4)))
        CFI (cfiCond244) ?BRET_EXT load(1, XDATA, add(CFA_XSP16, literal(-3)))
        CFI (cfiCond244) DPL0 load(1, XDATA, add(CFA_XSP16, literal(-2)))
        CFI (cfiCond244) DPH0 load(1, XDATA, add(CFA_XSP16, literal(-1)))
        CFI (cfiCond244) CFA_SP SP+0
        CFI (cfiCond244) CFA_XSP16 add(XSP16, 16)
        CFI Block cfiCond245 Using cfiCommon0
        CFI (cfiCond245) NoFunction
        CFI (cfiCond245) Conditional ??CrossCallReturnLabel_97, ??CrossCallReturnLabel_91, ??CrossCallReturnLabel_0
        CFI (cfiCond245) R6 load(1, XDATA, add(CFA_XSP16, literal(-12)))
        CFI (cfiCond245) VB load(1, XDATA, add(CFA_XSP16, literal(-11)))
        CFI (cfiCond245) V0 load(1, XDATA, add(CFA_XSP16, literal(-10)))
        CFI (cfiCond245) V1 load(1, XDATA, add(CFA_XSP16, literal(-9)))
        CFI (cfiCond245) V2 load(1, XDATA, add(CFA_XSP16, literal(-8)))
        CFI (cfiCond245) V3 load(1, XDATA, add(CFA_XSP16, literal(-7)))
        CFI (cfiCond245) R7 load(1, XDATA, add(CFA_XSP16, literal(-6)))
        CFI (cfiCond245) ?RET_LOW load(1, XDATA, add(CFA_XSP16, literal(-5)))
        CFI (cfiCond245) ?RET_HIGH load(1, XDATA, add(CFA_XSP16, literal(-4)))
        CFI (cfiCond245) ?BRET_EXT load(1, XDATA, add(CFA_XSP16, literal(-3)))
        CFI (cfiCond245) DPL0 load(1, XDATA, add(CFA_XSP16, literal(-2)))
        CFI (cfiCond245) DPH0 load(1, XDATA, add(CFA_XSP16, literal(-1)))
        CFI (cfiCond245) CFA_SP SP+0
        CFI (cfiCond245) CFA_XSP16 add(XSP16, 16)
        CFI Block cfiCond246 Using cfiCommon0
        CFI (cfiCond246) NoFunction
        CFI (cfiCond246) Conditional ??CrossCallReturnLabel_97, ??CrossCallReturnLabel_91, ??CrossCallReturnLabel_1
        CFI (cfiCond246) R6 load(1, XDATA, add(CFA_XSP16, literal(-12)))
        CFI (cfiCond246) VB load(1, XDATA, add(CFA_XSP16, literal(-11)))
        CFI (cfiCond246) V0 load(1, XDATA, add(CFA_XSP16, literal(-10)))
        CFI (cfiCond246) V1 load(1, XDATA, add(CFA_XSP16, literal(-9)))
        CFI (cfiCond246) V2 load(1, XDATA, add(CFA_XSP16, literal(-8)))
        CFI (cfiCond246) V3 load(1, XDATA, add(CFA_XSP16, literal(-7)))
        CFI (cfiCond246) R7 load(1, XDATA, add(CFA_XSP16, literal(-6)))
        CFI (cfiCond246) ?RET_LOW load(1, XDATA, add(CFA_XSP16, literal(-5)))
        CFI (cfiCond246) ?RET_HIGH load(1, XDATA, add(CFA_XSP16, literal(-4)))
        CFI (cfiCond246) ?BRET_EXT load(1, XDATA, add(CFA_XSP16, literal(-3)))
        CFI (cfiCond246) DPL0 load(1, XDATA, add(CFA_XSP16, literal(-2)))
        CFI (cfiCond246) DPH0 load(1, XDATA, add(CFA_XSP16, literal(-1)))
        CFI (cfiCond246) CFA_SP SP+0
        CFI (cfiCond246) CFA_XSP16 add(XSP16, 16)
        CFI Block cfiPicker247 Using cfiCommon1
        CFI (cfiPicker247) NoFunction
        CFI (cfiPicker247) Picker
        MOV     DPL,R4
        MOV     DPH,R5
        MOVX    A,@DPTR
        MOV     R2,A
        INC     DPTR
        MOVX    A,@DPTR
        MOV     DPH,A
        MOV     DPL,R2
        INC     DPTR
        RET
        CFI EndBlock cfiCond236
        CFI EndBlock cfiCond237
        CFI EndBlock cfiCond238
        CFI EndBlock cfiCond239
        CFI EndBlock cfiCond240
        CFI EndBlock cfiCond241
        CFI EndBlock cfiCond242
        CFI EndBlock cfiCond243
        CFI EndBlock cfiCond244
        CFI EndBlock cfiCond245
        CFI EndBlock cfiCond246
        CFI EndBlock cfiPicker247

        RSEG BANKED_CODE:CODE:NOROOT(0)
?Subroutine30:
        CFI Block cfiCond248 Using cfiCommon0
        CFI NoFunction
        CFI Conditional ??CrossCallReturnLabel_76, ??CrossCallReturnLabel_0
        CFI R6 load(1, XDATA, add(CFA_XSP16, literal(-12)))
        CFI VB load(1, XDATA, add(CFA_XSP16, literal(-11)))
        CFI V0 load(1, XDATA, add(CFA_XSP16, literal(-10)))
        CFI V1 load(1, XDATA, add(CFA_XSP16, literal(-9)))
        CFI V2 load(1, XDATA, add(CFA_XSP16, literal(-8)))
        CFI V3 load(1, XDATA, add(CFA_XSP16, literal(-7)))
        CFI R7 load(1, XDATA, add(CFA_XSP16, literal(-6)))
        CFI ?RET_LOW load(1, XDATA, add(CFA_XSP16, literal(-5)))
        CFI ?RET_HIGH load(1, XDATA, add(CFA_XSP16, literal(-4)))
        CFI ?BRET_EXT load(1, XDATA, add(CFA_XSP16, literal(-3)))
        CFI DPL0 load(1, XDATA, add(CFA_XSP16, literal(-2)))
        CFI DPH0 load(1, XDATA, add(CFA_XSP16, literal(-1)))
        CFI CFA_SP SP+0
        CFI CFA_XSP16 add(XSP16, 16)
        CFI Block cfiCond249 Using cfiCommon0
        CFI (cfiCond249) NoFunction
        CFI (cfiCond249) Conditional ??CrossCallReturnLabel_76, ??CrossCallReturnLabel_1
        CFI (cfiCond249) R6 load(1, XDATA, add(CFA_XSP16, literal(-12)))
        CFI (cfiCond249) VB load(1, XDATA, add(CFA_XSP16, literal(-11)))
        CFI (cfiCond249) V0 load(1, XDATA, add(CFA_XSP16, literal(-10)))
        CFI (cfiCond249) V1 load(1, XDATA, add(CFA_XSP16, literal(-9)))
        CFI (cfiCond249) V2 load(1, XDATA, add(CFA_XSP16, literal(-8)))
        CFI (cfiCond249) V3 load(1, XDATA, add(CFA_XSP16, literal(-7)))
        CFI (cfiCond249) R7 load(1, XDATA, add(CFA_XSP16, literal(-6)))
        CFI (cfiCond249) ?RET_LOW load(1, XDATA, add(CFA_XSP16, literal(-5)))
        CFI (cfiCond249) ?RET_HIGH load(1, XDATA, add(CFA_XSP16, literal(-4)))
        CFI (cfiCond249) ?BRET_EXT load(1, XDATA, add(CFA_XSP16, literal(-3)))
        CFI (cfiCond249) DPL0 load(1, XDATA, add(CFA_XSP16, literal(-2)))
        CFI (cfiCond249) DPH0 load(1, XDATA, add(CFA_XSP16, literal(-1)))
        CFI (cfiCond249) CFA_SP SP+0
        CFI (cfiCond249) CFA_XSP16 add(XSP16, 16)
        CFI Block cfiCond250 Using cfiCommon0
        CFI (cfiCond250) NoFunction
        CFI (cfiCond250) Conditional ??CrossCallReturnLabel_77, ??CrossCallReturnLabel_0
        CFI (cfiCond250) R6 load(1, XDATA, add(CFA_XSP16, literal(-12)))
        CFI (cfiCond250) VB load(1, XDATA, add(CFA_XSP16, literal(-11)))
        CFI (cfiCond250) V0 load(1, XDATA, add(CFA_XSP16, literal(-10)))
        CFI (cfiCond250) V1 load(1, XDATA, add(CFA_XSP16, literal(-9)))
        CFI (cfiCond250) V2 load(1, XDATA, add(CFA_XSP16, literal(-8)))
        CFI (cfiCond250) V3 load(1, XDATA, add(CFA_XSP16, literal(-7)))
        CFI (cfiCond250) R7 load(1, XDATA, add(CFA_XSP16, literal(-6)))
        CFI (cfiCond250) ?RET_LOW load(1, XDATA, add(CFA_XSP16, literal(-5)))
        CFI (cfiCond250) ?RET_HIGH load(1, XDATA, add(CFA_XSP16, literal(-4)))
        CFI (cfiCond250) ?BRET_EXT load(1, XDATA, add(CFA_XSP16, literal(-3)))
        CFI (cfiCond250) DPL0 load(1, XDATA, add(CFA_XSP16, literal(-2)))
        CFI (cfiCond250) DPH0 load(1, XDATA, add(CFA_XSP16, literal(-1)))
        CFI (cfiCond250) CFA_SP SP+0
        CFI (cfiCond250) CFA_XSP16 add(XSP16, 16)
        CFI Block cfiCond251 Using cfiCommon0
        CFI (cfiCond251) NoFunction
        CFI (cfiCond251) Conditional ??CrossCallReturnLabel_77, ??CrossCallReturnLabel_1
        CFI (cfiCond251) R6 load(1, XDATA, add(CFA_XSP16, literal(-12)))
        CFI (cfiCond251) VB load(1, XDATA, add(CFA_XSP16, literal(-11)))
        CFI (cfiCond251) V0 load(1, XDATA, add(CFA_XSP16, literal(-10)))
        CFI (cfiCond251) V1 load(1, XDATA, add(CFA_XSP16, literal(-9)))
        CFI (cfiCond251) V2 load(1, XDATA, add(CFA_XSP16, literal(-8)))
        CFI (cfiCond251) V3 load(1, XDATA, add(CFA_XSP16, literal(-7)))
        CFI (cfiCond251) R7 load(1, XDATA, add(CFA_XSP16, literal(-6)))
        CFI (cfiCond251) ?RET_LOW load(1, XDATA, add(CFA_XSP16, literal(-5)))
        CFI (cfiCond251) ?RET_HIGH load(1, XDATA, add(CFA_XSP16, literal(-4)))
        CFI (cfiCond251) ?BRET_EXT load(1, XDATA, add(CFA_XSP16, literal(-3)))
        CFI (cfiCond251) DPL0 load(1, XDATA, add(CFA_XSP16, literal(-2)))
        CFI (cfiCond251) DPH0 load(1, XDATA, add(CFA_XSP16, literal(-1)))
        CFI (cfiCond251) CFA_SP SP+0
        CFI (cfiCond251) CFA_XSP16 add(XSP16, 16)
        CFI Block cfiCond252 Using cfiCommon0
        CFI (cfiCond252) NoFunction
        CFI (cfiCond252) Conditional ??CrossCallReturnLabel_78, ??CrossCallReturnLabel_0
        CFI (cfiCond252) R6 load(1, XDATA, add(CFA_XSP16, literal(-12)))
        CFI (cfiCond252) VB load(1, XDATA, add(CFA_XSP16, literal(-11)))
        CFI (cfiCond252) V0 load(1, XDATA, add(CFA_XSP16, literal(-10)))
        CFI (cfiCond252) V1 load(1, XDATA, add(CFA_XSP16, literal(-9)))
        CFI (cfiCond252) V2 load(1, XDATA, add(CFA_XSP16, literal(-8)))
        CFI (cfiCond252) V3 load(1, XDATA, add(CFA_XSP16, literal(-7)))
        CFI (cfiCond252) R7 load(1, XDATA, add(CFA_XSP16, literal(-6)))
        CFI (cfiCond252) ?RET_LOW load(1, XDATA, add(CFA_XSP16, literal(-5)))
        CFI (cfiCond252) ?RET_HIGH load(1, XDATA, add(CFA_XSP16, literal(-4)))
        CFI (cfiCond252) ?BRET_EXT load(1, XDATA, add(CFA_XSP16, literal(-3)))
        CFI (cfiCond252) DPL0 load(1, XDATA, add(CFA_XSP16, literal(-2)))
        CFI (cfiCond252) DPH0 load(1, XDATA, add(CFA_XSP16, literal(-1)))
        CFI (cfiCond252) CFA_SP SP+0
        CFI (cfiCond252) CFA_XSP16 add(XSP16, 16)
        CFI Block cfiCond253 Using cfiCommon0
        CFI (cfiCond253) NoFunction
        CFI (cfiCond253) Conditional ??CrossCallReturnLabel_78, ??CrossCallReturnLabel_1
        CFI (cfiCond253) R6 load(1, XDATA, add(CFA_XSP16, literal(-12)))
        CFI (cfiCond253) VB load(1, XDATA, add(CFA_XSP16, literal(-11)))
        CFI (cfiCond253) V0 load(1, XDATA, add(CFA_XSP16, literal(-10)))
        CFI (cfiCond253) V1 load(1, XDATA, add(CFA_XSP16, literal(-9)))
        CFI (cfiCond253) V2 load(1, XDATA, add(CFA_XSP16, literal(-8)))
        CFI (cfiCond253) V3 load(1, XDATA, add(CFA_XSP16, literal(-7)))
        CFI (cfiCond253) R7 load(1, XDATA, add(CFA_XSP16, literal(-6)))
        CFI (cfiCond253) ?RET_LOW load(1, XDATA, add(CFA_XSP16, literal(-5)))
        CFI (cfiCond253) ?RET_HIGH load(1, XDATA, add(CFA_XSP16, literal(-4)))
        CFI (cfiCond253) ?BRET_EXT load(1, XDATA, add(CFA_XSP16, literal(-3)))
        CFI (cfiCond253) DPL0 load(1, XDATA, add(CFA_XSP16, literal(-2)))
        CFI (cfiCond253) DPH0 load(1, XDATA, add(CFA_XSP16, literal(-1)))
        CFI (cfiCond253) CFA_SP SP+0
        CFI (cfiCond253) CFA_XSP16 add(XSP16, 16)
        CFI Block cfiPicker254 Using cfiCommon1
        CFI (cfiPicker254) NoFunction
        CFI (cfiPicker254) Picker
        LCALL   ?Subroutine36 & 0xFFFF
??CrossCallReturnLabel_135:
        RET
        CFI EndBlock cfiCond248
        CFI EndBlock cfiCond249
        CFI EndBlock cfiCond250
        CFI EndBlock cfiCond251
        CFI EndBlock cfiCond252
        CFI EndBlock cfiCond253
        CFI EndBlock cfiPicker254

        RSEG BANKED_CODE:CODE:NOROOT(0)
?Subroutine36:
        CFI Block cfiCond255 Using cfiCommon0
        CFI NoFunction
        CFI Conditional ??CrossCallReturnLabel_135, ??CrossCallReturnLabel_76, ??CrossCallReturnLabel_0
        CFI R6 load(1, XDATA, add(CFA_XSP16, literal(-12)))
        CFI VB load(1, XDATA, add(CFA_XSP16, literal(-11)))
        CFI V0 load(1, XDATA, add(CFA_XSP16, literal(-10)))
        CFI V1 load(1, XDATA, add(CFA_XSP16, literal(-9)))
        CFI V2 load(1, XDATA, add(CFA_XSP16, literal(-8)))
        CFI V3 load(1, XDATA, add(CFA_XSP16, literal(-7)))
        CFI R7 load(1, XDATA, add(CFA_XSP16, literal(-6)))
        CFI ?RET_LOW load(1, XDATA, add(CFA_XSP16, literal(-5)))
        CFI ?RET_HIGH load(1, XDATA, add(CFA_XSP16, literal(-4)))
        CFI ?BRET_EXT load(1, XDATA, add(CFA_XSP16, literal(-3)))
        CFI DPL0 load(1, XDATA, add(CFA_XSP16, literal(-2)))
        CFI DPH0 load(1, XDATA, add(CFA_XSP16, literal(-1)))
        CFI CFA_SP SP+0
        CFI CFA_XSP16 add(XSP16, 16)
        CFI Block cfiCond256 Using cfiCommon0
        CFI (cfiCond256) NoFunction
        CFI (cfiCond256) Conditional ??CrossCallReturnLabel_135, ??CrossCallReturnLabel_76, ??CrossCallReturnLabel_1
        CFI (cfiCond256) R6 load(1, XDATA, add(CFA_XSP16, literal(-12)))
        CFI (cfiCond256) VB load(1, XDATA, add(CFA_XSP16, literal(-11)))
        CFI (cfiCond256) V0 load(1, XDATA, add(CFA_XSP16, literal(-10)))
        CFI (cfiCond256) V1 load(1, XDATA, add(CFA_XSP16, literal(-9)))
        CFI (cfiCond256) V2 load(1, XDATA, add(CFA_XSP16, literal(-8)))
        CFI (cfiCond256) V3 load(1, XDATA, add(CFA_XSP16, literal(-7)))
        CFI (cfiCond256) R7 load(1, XDATA, add(CFA_XSP16, literal(-6)))
        CFI (cfiCond256) ?RET_LOW load(1, XDATA, add(CFA_XSP16, literal(-5)))
        CFI (cfiCond256) ?RET_HIGH load(1, XDATA, add(CFA_XSP16, literal(-4)))
        CFI (cfiCond256) ?BRET_EXT load(1, XDATA, add(CFA_XSP16, literal(-3)))
        CFI (cfiCond256) DPL0 load(1, XDATA, add(CFA_XSP16, literal(-2)))
        CFI (cfiCond256) DPH0 load(1, XDATA, add(CFA_XSP16, literal(-1)))
        CFI (cfiCond256) CFA_SP SP+0
        CFI (cfiCond256) CFA_XSP16 add(XSP16, 16)
        CFI Block cfiCond257 Using cfiCommon0
        CFI (cfiCond257) NoFunction
        CFI (cfiCond257) Conditional ??CrossCallReturnLabel_135, ??CrossCallReturnLabel_77, ??CrossCallReturnLabel_0
        CFI (cfiCond257) R6 load(1, XDATA, add(CFA_XSP16, literal(-12)))
        CFI (cfiCond257) VB load(1, XDATA, add(CFA_XSP16, literal(-11)))
        CFI (cfiCond257) V0 load(1, XDATA, add(CFA_XSP16, literal(-10)))
        CFI (cfiCond257) V1 load(1, XDATA, add(CFA_XSP16, literal(-9)))
        CFI (cfiCond257) V2 load(1, XDATA, add(CFA_XSP16, literal(-8)))
        CFI (cfiCond257) V3 load(1, XDATA, add(CFA_XSP16, literal(-7)))
        CFI (cfiCond257) R7 load(1, XDATA, add(CFA_XSP16, literal(-6)))
        CFI (cfiCond257) ?RET_LOW load(1, XDATA, add(CFA_XSP16, literal(-5)))
        CFI (cfiCond257) ?RET_HIGH load(1, XDATA, add(CFA_XSP16, literal(-4)))
        CFI (cfiCond257) ?BRET_EXT load(1, XDATA, add(CFA_XSP16, literal(-3)))
        CFI (cfiCond257) DPL0 load(1, XDATA, add(CFA_XSP16, literal(-2)))
        CFI (cfiCond257) DPH0 load(1, XDATA, add(CFA_XSP16, literal(-1)))
        CFI (cfiCond257) CFA_SP SP+0
        CFI (cfiCond257) CFA_XSP16 add(XSP16, 16)
        CFI Block cfiCond258 Using cfiCommon0
        CFI (cfiCond258) NoFunction
        CFI (cfiCond258) Conditional ??CrossCallReturnLabel_135, ??CrossCallReturnLabel_77, ??CrossCallReturnLabel_1
        CFI (cfiCond258) R6 load(1, XDATA, add(CFA_XSP16, literal(-12)))
        CFI (cfiCond258) VB load(1, XDATA, add(CFA_XSP16, literal(-11)))
        CFI (cfiCond258) V0 load(1, XDATA, add(CFA_XSP16, literal(-10)))
        CFI (cfiCond258) V1 load(1, XDATA, add(CFA_XSP16, literal(-9)))
        CFI (cfiCond258) V2 load(1, XDATA, add(CFA_XSP16, literal(-8)))
        CFI (cfiCond258) V3 load(1, XDATA, add(CFA_XSP16, literal(-7)))
        CFI (cfiCond258) R7 load(1, XDATA, add(CFA_XSP16, literal(-6)))
        CFI (cfiCond258) ?RET_LOW load(1, XDATA, add(CFA_XSP16, literal(-5)))
        CFI (cfiCond258) ?RET_HIGH load(1, XDATA, add(CFA_XSP16, literal(-4)))
        CFI (cfiCond258) ?BRET_EXT load(1, XDATA, add(CFA_XSP16, literal(-3)))
        CFI (cfiCond258) DPL0 load(1, XDATA, add(CFA_XSP16, literal(-2)))
        CFI (cfiCond258) DPH0 load(1, XDATA, add(CFA_XSP16, literal(-1)))
        CFI (cfiCond258) CFA_SP SP+0
        CFI (cfiCond258) CFA_XSP16 add(XSP16, 16)
        CFI Block cfiCond259 Using cfiCommon0
        CFI (cfiCond259) NoFunction
        CFI (cfiCond259) Conditional ??CrossCallReturnLabel_135, ??CrossCallReturnLabel_78, ??CrossCallReturnLabel_0
        CFI (cfiCond259) R6 load(1, XDATA, add(CFA_XSP16, literal(-12)))
        CFI (cfiCond259) VB load(1, XDATA, add(CFA_XSP16, literal(-11)))
        CFI (cfiCond259) V0 load(1, XDATA, add(CFA_XSP16, literal(-10)))
        CFI (cfiCond259) V1 load(1, XDATA, add(CFA_XSP16, literal(-9)))
        CFI (cfiCond259) V2 load(1, XDATA, add(CFA_XSP16, literal(-8)))
        CFI (cfiCond259) V3 load(1, XDATA, add(CFA_XSP16, literal(-7)))
        CFI (cfiCond259) R7 load(1, XDATA, add(CFA_XSP16, literal(-6)))
        CFI (cfiCond259) ?RET_LOW load(1, XDATA, add(CFA_XSP16, literal(-5)))
        CFI (cfiCond259) ?RET_HIGH load(1, XDATA, add(CFA_XSP16, literal(-4)))
        CFI (cfiCond259) ?BRET_EXT load(1, XDATA, add(CFA_XSP16, literal(-3)))
        CFI (cfiCond259) DPL0 load(1, XDATA, add(CFA_XSP16, literal(-2)))
        CFI (cfiCond259) DPH0 load(1, XDATA, add(CFA_XSP16, literal(-1)))
        CFI (cfiCond259) CFA_SP SP+0
        CFI (cfiCond259) CFA_XSP16 add(XSP16, 16)
        CFI Block cfiCond260 Using cfiCommon0
        CFI (cfiCond260) NoFunction
        CFI (cfiCond260) Conditional ??CrossCallReturnLabel_135, ??CrossCallReturnLabel_78, ??CrossCallReturnLabel_1
        CFI (cfiCond260) R6 load(1, XDATA, add(CFA_XSP16, literal(-12)))
        CFI (cfiCond260) VB load(1, XDATA, add(CFA_XSP16, literal(-11)))
        CFI (cfiCond260) V0 load(1, XDATA, add(CFA_XSP16, literal(-10)))
        CFI (cfiCond260) V1 load(1, XDATA, add(CFA_XSP16, literal(-9)))
        CFI (cfiCond260) V2 load(1, XDATA, add(CFA_XSP16, literal(-8)))
        CFI (cfiCond260) V3 load(1, XDATA, add(CFA_XSP16, literal(-7)))
        CFI (cfiCond260) R7 load(1, XDATA, add(CFA_XSP16, literal(-6)))
        CFI (cfiCond260) ?RET_LOW load(1, XDATA, add(CFA_XSP16, literal(-5)))
        CFI (cfiCond260) ?RET_HIGH load(1, XDATA, add(CFA_XSP16, literal(-4)))
        CFI (cfiCond260) ?BRET_EXT load(1, XDATA, add(CFA_XSP16, literal(-3)))
        CFI (cfiCond260) DPL0 load(1, XDATA, add(CFA_XSP16, literal(-2)))
        CFI (cfiCond260) DPH0 load(1, XDATA, add(CFA_XSP16, literal(-1)))
        CFI (cfiCond260) CFA_SP SP+0
        CFI (cfiCond260) CFA_XSP16 add(XSP16, 16)
        CFI Block cfiCond261 Using cfiCommon0
        CFI (cfiCond261) NoFunction
        CFI (cfiCond261) Conditional ??CrossCallReturnLabel_134, ??CrossCallReturnLabel_74, ??CrossCallReturnLabel_0
        CFI (cfiCond261) R6 load(1, XDATA, add(CFA_XSP16, literal(-12)))
        CFI (cfiCond261) VB load(1, XDATA, add(CFA_XSP16, literal(-11)))
        CFI (cfiCond261) V0 load(1, XDATA, add(CFA_XSP16, literal(-10)))
        CFI (cfiCond261) V1 load(1, XDATA, add(CFA_XSP16, literal(-9)))
        CFI (cfiCond261) V2 load(1, XDATA, add(CFA_XSP16, literal(-8)))
        CFI (cfiCond261) V3 load(1, XDATA, add(CFA_XSP16, literal(-7)))
        CFI (cfiCond261) R7 load(1, XDATA, add(CFA_XSP16, literal(-6)))
        CFI (cfiCond261) ?RET_LOW load(1, XDATA, add(CFA_XSP16, literal(-5)))
        CFI (cfiCond261) ?RET_HIGH load(1, XDATA, add(CFA_XSP16, literal(-4)))
        CFI (cfiCond261) ?BRET_EXT load(1, XDATA, add(CFA_XSP16, literal(-3)))
        CFI (cfiCond261) DPL0 load(1, XDATA, add(CFA_XSP16, literal(-2)))
        CFI (cfiCond261) DPH0 load(1, XDATA, add(CFA_XSP16, literal(-1)))
        CFI (cfiCond261) CFA_SP SP+0
        CFI (cfiCond261) CFA_XSP16 add(XSP16, 16)
        CFI Block cfiCond262 Using cfiCommon0
        CFI (cfiCond262) NoFunction
        CFI (cfiCond262) Conditional ??CrossCallReturnLabel_134, ??CrossCallReturnLabel_74, ??CrossCallReturnLabel_1
        CFI (cfiCond262) R6 load(1, XDATA, add(CFA_XSP16, literal(-12)))
        CFI (cfiCond262) VB load(1, XDATA, add(CFA_XSP16, literal(-11)))
        CFI (cfiCond262) V0 load(1, XDATA, add(CFA_XSP16, literal(-10)))
        CFI (cfiCond262) V1 load(1, XDATA, add(CFA_XSP16, literal(-9)))
        CFI (cfiCond262) V2 load(1, XDATA, add(CFA_XSP16, literal(-8)))
        CFI (cfiCond262) V3 load(1, XDATA, add(CFA_XSP16, literal(-7)))
        CFI (cfiCond262) R7 load(1, XDATA, add(CFA_XSP16, literal(-6)))
        CFI (cfiCond262) ?RET_LOW load(1, XDATA, add(CFA_XSP16, literal(-5)))
        CFI (cfiCond262) ?RET_HIGH load(1, XDATA, add(CFA_XSP16, literal(-4)))
        CFI (cfiCond262) ?BRET_EXT load(1, XDATA, add(CFA_XSP16, literal(-3)))
        CFI (cfiCond262) DPL0 load(1, XDATA, add(CFA_XSP16, literal(-2)))
        CFI (cfiCond262) DPH0 load(1, XDATA, add(CFA_XSP16, literal(-1)))
        CFI (cfiCond262) CFA_SP SP+0
        CFI (cfiCond262) CFA_XSP16 add(XSP16, 16)
        CFI Block cfiCond263 Using cfiCommon0
        CFI (cfiCond263) NoFunction
        CFI (cfiCond263) Conditional ??CrossCallReturnLabel_134, ??CrossCallReturnLabel_75, ??CrossCallReturnLabel_0
        CFI (cfiCond263) R6 load(1, XDATA, add(CFA_XSP16, literal(-12)))
        CFI (cfiCond263) VB load(1, XDATA, add(CFA_XSP16, literal(-11)))
        CFI (cfiCond263) V0 load(1, XDATA, add(CFA_XSP16, literal(-10)))
        CFI (cfiCond263) V1 load(1, XDATA, add(CFA_XSP16, literal(-9)))
        CFI (cfiCond263) V2 load(1, XDATA, add(CFA_XSP16, literal(-8)))
        CFI (cfiCond263) V3 load(1, XDATA, add(CFA_XSP16, literal(-7)))
        CFI (cfiCond263) R7 load(1, XDATA, add(CFA_XSP16, literal(-6)))
        CFI (cfiCond263) ?RET_LOW load(1, XDATA, add(CFA_XSP16, literal(-5)))
        CFI (cfiCond263) ?RET_HIGH load(1, XDATA, add(CFA_XSP16, literal(-4)))
        CFI (cfiCond263) ?BRET_EXT load(1, XDATA, add(CFA_XSP16, literal(-3)))
        CFI (cfiCond263) DPL0 load(1, XDATA, add(CFA_XSP16, literal(-2)))
        CFI (cfiCond263) DPH0 load(1, XDATA, add(CFA_XSP16, literal(-1)))
        CFI (cfiCond263) CFA_SP SP+0
        CFI (cfiCond263) CFA_XSP16 add(XSP16, 16)
        CFI Block cfiCond264 Using cfiCommon0
        CFI (cfiCond264) NoFunction
        CFI (cfiCond264) Conditional ??CrossCallReturnLabel_134, ??CrossCallReturnLabel_75, ??CrossCallReturnLabel_1
        CFI (cfiCond264) R6 load(1, XDATA, add(CFA_XSP16, literal(-12)))
        CFI (cfiCond264) VB load(1, XDATA, add(CFA_XSP16, literal(-11)))
        CFI (cfiCond264) V0 load(1, XDATA, add(CFA_XSP16, literal(-10)))
        CFI (cfiCond264) V1 load(1, XDATA, add(CFA_XSP16, literal(-9)))
        CFI (cfiCond264) V2 load(1, XDATA, add(CFA_XSP16, literal(-8)))
        CFI (cfiCond264) V3 load(1, XDATA, add(CFA_XSP16, literal(-7)))
        CFI (cfiCond264) R7 load(1, XDATA, add(CFA_XSP16, literal(-6)))
        CFI (cfiCond264) ?RET_LOW load(1, XDATA, add(CFA_XSP16, literal(-5)))
        CFI (cfiCond264) ?RET_HIGH load(1, XDATA, add(CFA_XSP16, literal(-4)))
        CFI (cfiCond264) ?BRET_EXT load(1, XDATA, add(CFA_XSP16, literal(-3)))
        CFI (cfiCond264) DPL0 load(1, XDATA, add(CFA_XSP16, literal(-2)))
        CFI (cfiCond264) DPH0 load(1, XDATA, add(CFA_XSP16, literal(-1)))
        CFI (cfiCond264) CFA_SP SP+0
        CFI (cfiCond264) CFA_XSP16 add(XSP16, 16)
        CFI Block cfiPicker265 Using cfiCommon1
        CFI (cfiPicker265) NoFunction
        CFI (cfiPicker265) Picker
        LCALL   ?Subroutine38 & 0xFFFF
??CrossCallReturnLabel_100:
        SJMP    ?Subroutine43
        CFI EndBlock cfiCond255
        CFI EndBlock cfiCond256
        CFI EndBlock cfiCond257
        CFI EndBlock cfiCond258
        CFI EndBlock cfiCond259
        CFI EndBlock cfiCond260
        CFI EndBlock cfiCond261
        CFI EndBlock cfiCond262
        CFI EndBlock cfiCond263
        CFI EndBlock cfiCond264
        CFI EndBlock cfiPicker265

        RSEG BANKED_CODE:CODE:NOROOT(0)
?Subroutine29:
        CFI Block cfiCond266 Using cfiCommon0
        CFI NoFunction
        CFI Conditional ??CrossCallReturnLabel_74, ??CrossCallReturnLabel_0
        CFI R6 load(1, XDATA, add(CFA_XSP16, literal(-12)))
        CFI VB load(1, XDATA, add(CFA_XSP16, literal(-11)))
        CFI V0 load(1, XDATA, add(CFA_XSP16, literal(-10)))
        CFI V1 load(1, XDATA, add(CFA_XSP16, literal(-9)))
        CFI V2 load(1, XDATA, add(CFA_XSP16, literal(-8)))
        CFI V3 load(1, XDATA, add(CFA_XSP16, literal(-7)))
        CFI R7 load(1, XDATA, add(CFA_XSP16, literal(-6)))
        CFI ?RET_LOW load(1, XDATA, add(CFA_XSP16, literal(-5)))
        CFI ?RET_HIGH load(1, XDATA, add(CFA_XSP16, literal(-4)))
        CFI ?BRET_EXT load(1, XDATA, add(CFA_XSP16, literal(-3)))
        CFI DPL0 load(1, XDATA, add(CFA_XSP16, literal(-2)))
        CFI DPH0 load(1, XDATA, add(CFA_XSP16, literal(-1)))
        CFI CFA_SP SP+0
        CFI CFA_XSP16 add(XSP16, 16)
        CFI Block cfiCond267 Using cfiCommon0
        CFI (cfiCond267) NoFunction
        CFI (cfiCond267) Conditional ??CrossCallReturnLabel_74, ??CrossCallReturnLabel_1
        CFI (cfiCond267) R6 load(1, XDATA, add(CFA_XSP16, literal(-12)))
        CFI (cfiCond267) VB load(1, XDATA, add(CFA_XSP16, literal(-11)))
        CFI (cfiCond267) V0 load(1, XDATA, add(CFA_XSP16, literal(-10)))
        CFI (cfiCond267) V1 load(1, XDATA, add(CFA_XSP16, literal(-9)))
        CFI (cfiCond267) V2 load(1, XDATA, add(CFA_XSP16, literal(-8)))
        CFI (cfiCond267) V3 load(1, XDATA, add(CFA_XSP16, literal(-7)))
        CFI (cfiCond267) R7 load(1, XDATA, add(CFA_XSP16, literal(-6)))
        CFI (cfiCond267) ?RET_LOW load(1, XDATA, add(CFA_XSP16, literal(-5)))
        CFI (cfiCond267) ?RET_HIGH load(1, XDATA, add(CFA_XSP16, literal(-4)))
        CFI (cfiCond267) ?BRET_EXT load(1, XDATA, add(CFA_XSP16, literal(-3)))
        CFI (cfiCond267) DPL0 load(1, XDATA, add(CFA_XSP16, literal(-2)))
        CFI (cfiCond267) DPH0 load(1, XDATA, add(CFA_XSP16, literal(-1)))
        CFI (cfiCond267) CFA_SP SP+0
        CFI (cfiCond267) CFA_XSP16 add(XSP16, 16)
        CFI Block cfiCond268 Using cfiCommon0
        CFI (cfiCond268) NoFunction
        CFI (cfiCond268) Conditional ??CrossCallReturnLabel_75, ??CrossCallReturnLabel_0
        CFI (cfiCond268) R6 load(1, XDATA, add(CFA_XSP16, literal(-12)))
        CFI (cfiCond268) VB load(1, XDATA, add(CFA_XSP16, literal(-11)))
        CFI (cfiCond268) V0 load(1, XDATA, add(CFA_XSP16, literal(-10)))
        CFI (cfiCond268) V1 load(1, XDATA, add(CFA_XSP16, literal(-9)))
        CFI (cfiCond268) V2 load(1, XDATA, add(CFA_XSP16, literal(-8)))
        CFI (cfiCond268) V3 load(1, XDATA, add(CFA_XSP16, literal(-7)))
        CFI (cfiCond268) R7 load(1, XDATA, add(CFA_XSP16, literal(-6)))
        CFI (cfiCond268) ?RET_LOW load(1, XDATA, add(CFA_XSP16, literal(-5)))
        CFI (cfiCond268) ?RET_HIGH load(1, XDATA, add(CFA_XSP16, literal(-4)))
        CFI (cfiCond268) ?BRET_EXT load(1, XDATA, add(CFA_XSP16, literal(-3)))
        CFI (cfiCond268) DPL0 load(1, XDATA, add(CFA_XSP16, literal(-2)))
        CFI (cfiCond268) DPH0 load(1, XDATA, add(CFA_XSP16, literal(-1)))
        CFI (cfiCond268) CFA_SP SP+0
        CFI (cfiCond268) CFA_XSP16 add(XSP16, 16)
        CFI Block cfiCond269 Using cfiCommon0
        CFI (cfiCond269) NoFunction
        CFI (cfiCond269) Conditional ??CrossCallReturnLabel_75, ??CrossCallReturnLabel_1
        CFI (cfiCond269) R6 load(1, XDATA, add(CFA_XSP16, literal(-12)))
        CFI (cfiCond269) VB load(1, XDATA, add(CFA_XSP16, literal(-11)))
        CFI (cfiCond269) V0 load(1, XDATA, add(CFA_XSP16, literal(-10)))
        CFI (cfiCond269) V1 load(1, XDATA, add(CFA_XSP16, literal(-9)))
        CFI (cfiCond269) V2 load(1, XDATA, add(CFA_XSP16, literal(-8)))
        CFI (cfiCond269) V3 load(1, XDATA, add(CFA_XSP16, literal(-7)))
        CFI (cfiCond269) R7 load(1, XDATA, add(CFA_XSP16, literal(-6)))
        CFI (cfiCond269) ?RET_LOW load(1, XDATA, add(CFA_XSP16, literal(-5)))
        CFI (cfiCond269) ?RET_HIGH load(1, XDATA, add(CFA_XSP16, literal(-4)))
        CFI (cfiCond269) ?BRET_EXT load(1, XDATA, add(CFA_XSP16, literal(-3)))
        CFI (cfiCond269) DPL0 load(1, XDATA, add(CFA_XSP16, literal(-2)))
        CFI (cfiCond269) DPH0 load(1, XDATA, add(CFA_XSP16, literal(-1)))
        CFI (cfiCond269) CFA_SP SP+0
        CFI (cfiCond269) CFA_XSP16 add(XSP16, 16)
        CFI Block cfiPicker270 Using cfiCommon1
        CFI (cfiPicker270) NoFunction
        CFI (cfiPicker270) Picker
        LCALL   ?Subroutine36 & 0xFFFF
??CrossCallReturnLabel_134:
        INC     DPTR
        RET
        CFI EndBlock cfiCond266
        CFI EndBlock cfiCond267
        CFI EndBlock cfiCond268
        CFI EndBlock cfiCond269
        CFI EndBlock cfiPicker270

        RSEG BANKED_CODE:CODE:NOROOT(0)
?Subroutine26:
        CFI Block cfiCond271 Using cfiCommon0
        CFI NoFunction
        CFI Conditional ??CrossCallReturnLabel_53, ??CrossCallReturnLabel_0
        CFI R6 load(1, XDATA, add(CFA_XSP16, literal(-12)))
        CFI VB load(1, XDATA, add(CFA_XSP16, literal(-11)))
        CFI V0 load(1, XDATA, add(CFA_XSP16, literal(-10)))
        CFI V1 load(1, XDATA, add(CFA_XSP16, literal(-9)))
        CFI V2 load(1, XDATA, add(CFA_XSP16, literal(-8)))
        CFI V3 load(1, XDATA, add(CFA_XSP16, literal(-7)))
        CFI R7 load(1, XDATA, add(CFA_XSP16, literal(-6)))
        CFI ?RET_LOW load(1, XDATA, add(CFA_XSP16, literal(-5)))
        CFI ?RET_HIGH load(1, XDATA, add(CFA_XSP16, literal(-4)))
        CFI ?BRET_EXT load(1, XDATA, add(CFA_XSP16, literal(-3)))
        CFI DPL0 load(1, XDATA, add(CFA_XSP16, literal(-2)))
        CFI DPH0 load(1, XDATA, add(CFA_XSP16, literal(-1)))
        CFI CFA_SP SP+0
        CFI CFA_XSP16 add(XSP16, 16)
        CFI Block cfiCond272 Using cfiCommon0
        CFI (cfiCond272) NoFunction
        CFI (cfiCond272) Conditional ??CrossCallReturnLabel_53, ??CrossCallReturnLabel_1
        CFI (cfiCond272) R6 load(1, XDATA, add(CFA_XSP16, literal(-12)))
        CFI (cfiCond272) VB load(1, XDATA, add(CFA_XSP16, literal(-11)))
        CFI (cfiCond272) V0 load(1, XDATA, add(CFA_XSP16, literal(-10)))
        CFI (cfiCond272) V1 load(1, XDATA, add(CFA_XSP16, literal(-9)))
        CFI (cfiCond272) V2 load(1, XDATA, add(CFA_XSP16, literal(-8)))
        CFI (cfiCond272) V3 load(1, XDATA, add(CFA_XSP16, literal(-7)))
        CFI (cfiCond272) R7 load(1, XDATA, add(CFA_XSP16, literal(-6)))
        CFI (cfiCond272) ?RET_LOW load(1, XDATA, add(CFA_XSP16, literal(-5)))
        CFI (cfiCond272) ?RET_HIGH load(1, XDATA, add(CFA_XSP16, literal(-4)))
        CFI (cfiCond272) ?BRET_EXT load(1, XDATA, add(CFA_XSP16, literal(-3)))
        CFI (cfiCond272) DPL0 load(1, XDATA, add(CFA_XSP16, literal(-2)))
        CFI (cfiCond272) DPH0 load(1, XDATA, add(CFA_XSP16, literal(-1)))
        CFI (cfiCond272) CFA_SP SP+0
        CFI (cfiCond272) CFA_XSP16 add(XSP16, 16)
        CFI Block cfiCond273 Using cfiCommon0
        CFI (cfiCond273) NoFunction
        CFI (cfiCond273) Conditional ??CrossCallReturnLabel_54, ??CrossCallReturnLabel_0
        CFI (cfiCond273) R6 load(1, XDATA, add(CFA_XSP16, literal(-12)))
        CFI (cfiCond273) VB load(1, XDATA, add(CFA_XSP16, literal(-11)))
        CFI (cfiCond273) V0 load(1, XDATA, add(CFA_XSP16, literal(-10)))
        CFI (cfiCond273) V1 load(1, XDATA, add(CFA_XSP16, literal(-9)))
        CFI (cfiCond273) V2 load(1, XDATA, add(CFA_XSP16, literal(-8)))
        CFI (cfiCond273) V3 load(1, XDATA, add(CFA_XSP16, literal(-7)))
        CFI (cfiCond273) R7 load(1, XDATA, add(CFA_XSP16, literal(-6)))
        CFI (cfiCond273) ?RET_LOW load(1, XDATA, add(CFA_XSP16, literal(-5)))
        CFI (cfiCond273) ?RET_HIGH load(1, XDATA, add(CFA_XSP16, literal(-4)))
        CFI (cfiCond273) ?BRET_EXT load(1, XDATA, add(CFA_XSP16, literal(-3)))
        CFI (cfiCond273) DPL0 load(1, XDATA, add(CFA_XSP16, literal(-2)))
        CFI (cfiCond273) DPH0 load(1, XDATA, add(CFA_XSP16, literal(-1)))
        CFI (cfiCond273) CFA_SP SP+0
        CFI (cfiCond273) CFA_XSP16 add(XSP16, 16)
        CFI Block cfiCond274 Using cfiCommon0
        CFI (cfiCond274) NoFunction
        CFI (cfiCond274) Conditional ??CrossCallReturnLabel_54, ??CrossCallReturnLabel_1
        CFI (cfiCond274) R6 load(1, XDATA, add(CFA_XSP16, literal(-12)))
        CFI (cfiCond274) VB load(1, XDATA, add(CFA_XSP16, literal(-11)))
        CFI (cfiCond274) V0 load(1, XDATA, add(CFA_XSP16, literal(-10)))
        CFI (cfiCond274) V1 load(1, XDATA, add(CFA_XSP16, literal(-9)))
        CFI (cfiCond274) V2 load(1, XDATA, add(CFA_XSP16, literal(-8)))
        CFI (cfiCond274) V3 load(1, XDATA, add(CFA_XSP16, literal(-7)))
        CFI (cfiCond274) R7 load(1, XDATA, add(CFA_XSP16, literal(-6)))
        CFI (cfiCond274) ?RET_LOW load(1, XDATA, add(CFA_XSP16, literal(-5)))
        CFI (cfiCond274) ?RET_HIGH load(1, XDATA, add(CFA_XSP16, literal(-4)))
        CFI (cfiCond274) ?BRET_EXT load(1, XDATA, add(CFA_XSP16, literal(-3)))
        CFI (cfiCond274) DPL0 load(1, XDATA, add(CFA_XSP16, literal(-2)))
        CFI (cfiCond274) DPH0 load(1, XDATA, add(CFA_XSP16, literal(-1)))
        CFI (cfiCond274) CFA_SP SP+0
        CFI (cfiCond274) CFA_XSP16 add(XSP16, 16)
        CFI Block cfiPicker275 Using cfiCommon1
        CFI (cfiPicker275) NoFunction
        CFI (cfiPicker275) Picker
        INC     DPTR
        LCALL   ?Subroutine35 & 0xFFFF
??CrossCallReturnLabel_96:
        INC     DPTR
        INC     DPTR
        INC     DPTR
        INC     DPTR
        INC     DPTR
        RET
        CFI EndBlock cfiCond271
        CFI EndBlock cfiCond272
        CFI EndBlock cfiCond273
        CFI EndBlock cfiCond274
        CFI EndBlock cfiPicker275
//  735 
//  736 /*********************************************************************
//  737  * @fn      GenericApp_SendTheMessage
//  738  *
//  739  * @brief   Send "the" message.
//  740  *
//  741  * @param   none
//  742  *
//  743  * @return  none
//  744  */

        RSEG BANKED_CODE:CODE:NOROOT(0)
//  745 void GenericApp_SendTheMessage( void )
GenericApp_SendTheMessage:
        CFI Block cfiBlock276 Using cfiCommon0
        CFI Function GenericApp_SendTheMessage
//  746 {
        FUNCALL GenericApp_SendTheMessage, osal_strlen
        LOCFRAME ISTACK, 0, STACK
        LOCFRAME PSTACK, 0, STACK
        LOCFRAME XSTACK, 27, STACK
        LOCFRAME IOVERLAY, 0, STATIC
        LOCFRAME DOVERLAY, 0, STATIC
        ARGFRAME ISTACK, 0, STACK
        ARGFRAME PSTACK, 0, STACK
        ARGFRAME XSTACK, 27, STACK
        ARGFRAME IOVERLAY, 0, STATIC
        ARGFRAME DOVERLAY, 0, STATIC
        FUNCALL GenericApp_SendTheMessage, AF_DataRequest
        LOCFRAME ISTACK, 0, STACK
        LOCFRAME PSTACK, 0, STACK
        LOCFRAME XSTACK, 31, STACK
        LOCFRAME IOVERLAY, 0, STATIC
        LOCFRAME DOVERLAY, 0, STATIC
        ARGFRAME ISTACK, 0, STACK
        ARGFRAME PSTACK, 0, STACK
        ARGFRAME XSTACK, 31, STACK
        ARGFRAME IOVERLAY, 0, STATIC
        ARGFRAME DOVERLAY, 0, STATIC
        MOV     A,#-0xa
        LCALL   ?BANKED_ENTER_XDATA
        CFI DPH0 load(1, XDATA, add(CFA_XSP16, literal(-1)))
        CFI DPL0 load(1, XDATA, add(CFA_XSP16, literal(-2)))
        CFI ?BRET_EXT load(1, XDATA, add(CFA_XSP16, literal(-3)))
        CFI ?RET_HIGH load(1, XDATA, add(CFA_XSP16, literal(-4)))
        CFI ?RET_LOW load(1, XDATA, add(CFA_XSP16, literal(-5)))
        CFI R7 load(1, XDATA, add(CFA_XSP16, literal(-6)))
        CFI V1 load(1, XDATA, add(CFA_XSP16, literal(-7)))
        CFI V0 load(1, XDATA, add(CFA_XSP16, literal(-8)))
        CFI VB load(1, XDATA, add(CFA_XSP16, literal(-9)))
        CFI R6 load(1, XDATA, add(CFA_XSP16, literal(-10)))
        CFI CFA_SP SP+0
        CFI CFA_XSP16 add(XSP16, 10)
        ; Saved register size: 10
        ; Auto size: 12
        MOV     A,#-0xc
        LCALL   ?ALLOC_XSTACK8
        CFI CFA_XSP16 add(XSP16, 22)
//  747   char theMessageData[] = "Hello World";
        MOV     DPL,?XSP + 0
        MOV     DPH,?XSP + 1
        MOV     R4,DPL
        MOV     R5,DPH
        MOV     DPH,#((`?<Constant "Hello World">` >> 8) & 0xff)
        MOV     DPL,#(`?<Constant "Hello World">` & 0xff)
        MOV     A,#0xc
        LCALL   ?MOVE_LONG8_XDATA_XDATA
//  748 
//  749   if ( AF_DataRequest( &GenericApp_DstAddr, &GenericApp_epDesc,
//  750                        GENERICAPP_CLUSTERID,
//  751                        (byte)osal_strlen( theMessageData ) + 1,
//  752                        (byte *)&theMessageData,
//  753                        &GenericApp_TransID,
//  754                        AF_DISCV_ROUTE, AF_DEFAULT_RADIUS ) == afStatus_SUCCESS )
        ; Setup parameters for call to function AF_DataRequest
        MOV     ?V0 + 0,#0xa
        MOV     R0,#?V0 + 0
        LCALL   ?PUSH_XSTACK_I_ONE
        CFI CFA_XSP16 add(XSP16, 23)
        MOV     ?V0 + 0,#(GenericApp_TransID & 0xff)
        MOV     ?V0 + 1,#((GenericApp_TransID >> 8) & 0xff)
        MOV     R0,#?V0 + 0
        LCALL   ?PUSH_XSTACK_I_TWO
        CFI CFA_XSP16 add(XSP16, 25)
        MOV     A,#0x3
        LCALL   ?XSTACK_DISP0_8
        MOV     ?V0 + 0,DPL
        MOV     ?V0 + 1,DPH
        MOV     R0,#?V0 + 0
        LCALL   ?PUSH_XSTACK_I_TWO
        CFI CFA_XSP16 add(XSP16, 27)
        ; Setup parameters for call to function osal_strlen
        MOV     A,#0x5
        LCALL   ?XSTACK_DISP0_8
        MOV     R2,DPL
        MOV     R3,DPH
        LCALL   ??osal_strlen?relay
        MOV     A,R2
        MOV     R0,A
        MOV     A,#0x1
        ADD     A,R0
        MOV     ?V0 + 0,A
        CLR     A
        ADDC    A,#0x0
        MOV     ?V0 + 1,A
        MOV     R0,#?V0 + 0
        LCALL   ?PUSH_XSTACK_I_TWO
        CFI CFA_XSP16 add(XSP16, 29)
        MOV     ?V0 + 0,#0x1
        MOV     ?V0 + 1,#0x0
        MOV     R0,#?V0 + 0
        LCALL   ?PUSH_XSTACK_I_TWO
        CFI CFA_XSP16 add(XSP16, 31)
        MOV     R1,#0x20
        MOV     R4,#(GenericApp_epDesc & 0xff)
        MOV     R5,#((GenericApp_epDesc >> 8) & 0xff)
        MOV     R2,#(GenericApp_DstAddr & 0xff)
        MOV     R3,#((GenericApp_DstAddr >> 8) & 0xff)
        LCALL   ??AF_DataRequest?relay
        MOV     A,#0x9
        LCALL   ?DEALLOC_XSTACK8
        CFI CFA_XSP16 add(XSP16, 22)
//  755   {
//  756     // Successfully requested to be sent.
//  757   }
//  758   else
//  759   {
//  760     // Error occurred in request to send.
//  761   }
//  762 }
        MOV     A,#0xc
        LJMP    ?Subroutine41 & 0xFFFF
        CFI EndBlock cfiBlock276
//  763 
//  764 /*********************************************************************
//  765 *********************************************************************/
//  766 /*********************************************************************
//  767  * TYPEDEFS
//  768  */
//  769 #ifndef UART0_GET_STR
//  770 #define UART0_GET_STR   1
//  771 typedef struct
//  772 {
//  773   uint8 *rxBuf;
//  774   uint8 rxHead;
//  775   uint8 rxTail;
//  776   uint8 rxMax;
//  777   uint8 rxCnt;
//  778   uint8 rxTick;
//  779   uint8 rxHigh;
//  780 
//  781   uint8 *txBuf;
//  782 #if HAL_UART_BIG_TX_BUF
//  783   uint16 txHead;
//  784   uint16 txTail;
//  785   uint16 txMax;
//  786   uint16 txCnt;
//  787 #else
//  788   uint8 txHead;
//  789   uint8 txTail;
//  790   uint8 txMax;
//  791   uint8 txCnt;
//  792 #endif
//  793   uint8 txTick;
//  794 
//  795   uint8 flag;
//  796 
//  797   halUARTCBack_t rxCB;
//  798 } uartCfg_t;
//  799 
//  800 #if ( HAL_UART_DEBUG )
//  801   #define HAL_UART_ASSERT( expr)        HAL_ASSERT( expr )
//  802 #else
//  803   #define HAL_UART_ASSERT( expr )
//  804 #endif
//  805 
//  806 #define UART_CFG_U1F  0x80  // USART1 flag bit.
//  807 #define UART_CFG_DMA  0x40  // Port is using DMA.
//  808 #define UART_CFG_FLW  0x20  // Port is using flow control.
//  809 #define UART_CFG_SP4  0x10
//  810 #define UART_CFG_SP3  0x08
//  811 #define UART_CFG_SP2  0x04
//  812 #define UART_CFG_RXF  0x02  // Rx flow is disabled.
//  813 #define UART_CFG_TXF  0x01  // Tx is in process.
//  814 
//  815 extern uartCfg_t *cfg0;
//  816 /*xiaoyang added*/

        RSEG BANKED_CODE:CODE:NOROOT(0)
//  817 uint16 uart0_getString(char* buf,uint16 max_len)
uart0_getString:
        CFI Block cfiBlock277 Using cfiCommon0
        CFI Function uart0_getString
//  818 {
        MOV     A,#-0xd
        LCALL   ?BANKED_ENTER_XDATA
        CFI DPH0 load(1, XDATA, add(CFA_XSP16, literal(-1)))
        CFI DPL0 load(1, XDATA, add(CFA_XSP16, literal(-2)))
        CFI ?BRET_EXT load(1, XDATA, add(CFA_XSP16, literal(-3)))
        CFI ?RET_HIGH load(1, XDATA, add(CFA_XSP16, literal(-4)))
        CFI ?RET_LOW load(1, XDATA, add(CFA_XSP16, literal(-5)))
        CFI R7 load(1, XDATA, add(CFA_XSP16, literal(-6)))
        CFI V4 load(1, XDATA, add(CFA_XSP16, literal(-7)))
        CFI V3 load(1, XDATA, add(CFA_XSP16, literal(-8)))
        CFI V2 load(1, XDATA, add(CFA_XSP16, literal(-9)))
        CFI V1 load(1, XDATA, add(CFA_XSP16, literal(-10)))
        CFI V0 load(1, XDATA, add(CFA_XSP16, literal(-11)))
        CFI VB load(1, XDATA, add(CFA_XSP16, literal(-12)))
        CFI R6 load(1, XDATA, add(CFA_XSP16, literal(-13)))
        CFI CFA_SP SP+0
        CFI CFA_XSP16 add(XSP16, 13)
        ; Saved register size: 13
        ; Auto size: 0
        MOV     A,R4
        MOV     R6,A
        MOV     A,R5
        MOV     R7,A
//  819   //uint16 HalUARTRead( uint8 port, uint8 *buf, uint16 len );
//  820   uartCfg_t *cfg = NULL;
//  821   uint16 cnt = 0;
        MOV     R0,#0x0
        MOV     R1,#0x0
//  822 
//  823   cfg = cfg0;
        MOV     DPTR,#cfg0
        MOVX    A,@DPTR
        MOV     R4,A
        INC     DPTR
        MOVX    A,@DPTR
        MOV     R5,A
        SJMP    ??uart0_getString_0
//  824   HAL_UART_ASSERT( cfg );
//  825   while ( (cfg->rxTail != cfg->rxHead) &&(cnt < max_len) )
//  826   {
//  827     *buf = cfg->rxBuf[cfg->rxTail];
//  828     if ( cfg->rxTail == cfg->rxMax )
//  829     {
//  830       cfg->rxTail = 0;
//  831     }
//  832     else
//  833     {
//  834       cfg->rxTail++;
//  835     }
//  836     //xiaoyang add
//  837     if(*buf == '\0'){
//  838         buf++;
//  839         *buf ='\0' ;
//  840         return cnt;
//  841     }
//  842     buf++;
??uart0_getString_1:
        INC     DPTR
        MOV     R2,DPL
        MOV     R3,DPH
//  843     cnt++;
        MOV     A,R0
        ADD     A,#0x1
        INC     R0
        MOV     A,R1
        ADDC    A,#0x0
        MOV     R1,A
??uart0_getString_0:
        MOV     DPL,R4
        MOV     DPH,R5
        INC     DPTR
        INC     DPTR
        INC     DPTR
        LCALL   ?Subroutine14 & 0xFFFF
??CrossCallReturnLabel_30:
        MOVX    A,@DPTR
        XRL     A,?V0 + 0
        JZ      ??uart0_getString_2
        CLR     C
        MOV     A,R0
        SUBB    A,R6
        MOV     A,R1
        SUBB    A,R7
        JNC     ??uart0_getString_2
        MOV     A,R4
        ADD     A,#0x3
        MOV     ?V0 + 0,A
        MOV     A,R5
        ADDC    A,#0x0
        MOV     ?V0 + 1,A
        MOV     DPL,?V0 + 0
        MOV     DPH,A
        MOVX    A,@DPTR
        MOV     ?V0 + 2,A
        MOV     DPL,R4
        MOV     DPH,R5
        MOVX    A,@DPTR
        ADD     A,?V0 + 2
        MOV     ?V0 + 4,A
        INC     DPTR
        MOVX    A,@DPTR
        ADDC    A,#0x0
        MOV     DPL,?V0 + 4
        MOV     DPH,A
        MOVX    A,@DPTR
        MOV     DPL,R2
        MOV     DPH,R3
        MOVX    @DPTR,A
        MOV     DPL,?V0 + 0
        MOV     DPH,?V0 + 1
        LCALL   ?Subroutine14 & 0xFFFF
??CrossCallReturnLabel_31:
        INC     DPTR
        INC     DPTR
        MOVX    A,@DPTR
        XRL     A,?V0 + 0
        JNZ     ??uart0_getString_3
        CLR     A
        MOV     DPL,R4
        MOV     DPH,R5
        INC     DPTR
        INC     DPTR
        INC     DPTR
        SJMP    ??uart0_getString_4
??uart0_getString_3:
        MOV     DPL,R4
        MOV     DPH,R5
        INC     DPTR
        INC     DPTR
        INC     DPTR
        MOVX    A,@DPTR
        INC     A
??uart0_getString_4:
        MOVX    @DPTR,A
        MOV     DPL,R2
        MOV     DPH,R3
        MOVX    A,@DPTR
        JNZ     ??uart0_getString_1
        CLR     A
        INC     DPTR
        SJMP    ??uart0_getString_5
//  844   }
//  845 
//  846 #if HAL_UART_DMA
//  847   #if HAL_UART_ISR
//  848   if ( cfg->flag & UART_CFG_DMA )
//  849   #endif
//  850   {
//  851     /* If there is no flow control on a DMA-driven UART, the Rx Head & Tail
//  852      * pointers must be reset to zero after every read in order to preserve the
//  853      * full length of the Rx buffer. This implies that every Read must read all
//  854      * of the Rx bytes available, or the pointers will not be reset and the
//  855      * next incoming packet may not fit in the Rx buffer space remaining - thus
//  856      * the end portion of the incoming packet that does not fit would be lost.
//  857      */
//  858     if ( !(cfg->flag & UART_CFG_FLW) )
??uart0_getString_2:
        MOV     A,R4
        ADD     A,#0xf
        MOV     DPL,A
        MOV     A,R5
        LCALL   ?Subroutine42 & 0xFFFF
??CrossCallReturnLabel_102:
        MOVX    A,@DPTR
        MOV     C,0xE0 /* A   */.5
        JC      ??uart0_getString_6
//  859     {
//  860       // This is a trick to trigger the DMA abort and restart logic in pollDMA.
//  861       cfg->flag |= UART_CFG_RXF;
        SETB    0xE0 /* A   */.1
??uart0_getString_5:
        MOVX    @DPTR,A
//  862     }
//  863   }
//  864 #endif
//  865 
//  866   return cnt;
??uart0_getString_6:
        MOV     A,R0
        MOV     R2,A
        MOV     A,R1
        MOV     R3,A
        CFI EndBlock cfiBlock277
        REQUIRE ?Subroutine44
        ; // Fall through to label ?Subroutine44
//  867 }

        RSEG BANKED_CODE:CODE:NOROOT(0)
?Subroutine44:
        CFI Block cfiBlock278 Using cfiCommon0
        CFI NoFunction
        CFI CFA_SP SP+0
        CFI CFA_XSP16 add(XSP16, 13)
        CFI VB load(1, XDATA, add(CFA_XSP16, literal(-12)))
        CFI DPL0 load(1, XDATA, add(CFA_XSP16, literal(-2)))
        CFI DPH0 load(1, XDATA, add(CFA_XSP16, literal(-1)))
        CFI R6 load(1, XDATA, add(CFA_XSP16, literal(-13)))
        CFI R7 load(1, XDATA, add(CFA_XSP16, literal(-6)))
        CFI V0 load(1, XDATA, add(CFA_XSP16, literal(-11)))
        CFI V1 load(1, XDATA, add(CFA_XSP16, literal(-10)))
        CFI V2 load(1, XDATA, add(CFA_XSP16, literal(-9)))
        CFI V3 load(1, XDATA, add(CFA_XSP16, literal(-8)))
        CFI V4 load(1, XDATA, add(CFA_XSP16, literal(-7)))
        CFI ?BRET_EXT load(1, XDATA, add(CFA_XSP16, literal(-3)))
        CFI ?RET_HIGH load(1, XDATA, add(CFA_XSP16, literal(-4)))
        CFI ?RET_LOW load(1, XDATA, add(CFA_XSP16, literal(-5)))
        MOV     R7,#0x5
        LJMP    ?BANKED_LEAVE_XDATA
        CFI EndBlock cfiBlock278

        RSEG BANKED_CODE:CODE:NOROOT(0)
?Subroutine19:
        CFI Block cfiCond279 Using cfiCommon0
        CFI NoFunction
        CFI Conditional ??CrossCallReturnLabel_105
        CFI R6 load(1, XDATA, add(CFA_XSP16, literal(-12)))
        CFI VB load(1, XDATA, add(CFA_XSP16, literal(-11)))
        CFI V0 load(1, XDATA, add(CFA_XSP16, literal(-10)))
        CFI V1 load(1, XDATA, add(CFA_XSP16, literal(-9)))
        CFI V2 load(1, XDATA, add(CFA_XSP16, literal(-8)))
        CFI V3 load(1, XDATA, add(CFA_XSP16, literal(-7)))
        CFI R7 load(1, XDATA, add(CFA_XSP16, literal(-6)))
        CFI ?RET_LOW load(1, XDATA, add(CFA_XSP16, literal(-5)))
        CFI ?RET_HIGH load(1, XDATA, add(CFA_XSP16, literal(-4)))
        CFI ?BRET_EXT load(1, XDATA, add(CFA_XSP16, literal(-3)))
        CFI DPL0 load(1, XDATA, add(CFA_XSP16, literal(-2)))
        CFI DPH0 load(1, XDATA, add(CFA_XSP16, literal(-1)))
        CFI CFA_SP SP+-1
        CFI CFA_XSP16 add(XSP16, 16)
        CFI Block cfiCond280 Using cfiCommon0
        CFI (cfiCond280) NoFunction
        CFI (cfiCond280) Conditional ??CrossCallReturnLabel_119
        CFI (cfiCond280) R6 load(1, XDATA, add(CFA_XSP16, literal(-12)))
        CFI (cfiCond280) VB load(1, XDATA, add(CFA_XSP16, literal(-11)))
        CFI (cfiCond280) V0 load(1, XDATA, add(CFA_XSP16, literal(-10)))
        CFI (cfiCond280) V1 load(1, XDATA, add(CFA_XSP16, literal(-9)))
        CFI (cfiCond280) V2 load(1, XDATA, add(CFA_XSP16, literal(-8)))
        CFI (cfiCond280) V3 load(1, XDATA, add(CFA_XSP16, literal(-7)))
        CFI (cfiCond280) R7 load(1, XDATA, add(CFA_XSP16, literal(-6)))
        CFI (cfiCond280) ?RET_LOW load(1, XDATA, add(CFA_XSP16, literal(-5)))
        CFI (cfiCond280) ?RET_HIGH load(1, XDATA, add(CFA_XSP16, literal(-4)))
        CFI (cfiCond280) ?BRET_EXT load(1, XDATA, add(CFA_XSP16, literal(-3)))
        CFI (cfiCond280) DPL0 load(1, XDATA, add(CFA_XSP16, literal(-2)))
        CFI (cfiCond280) DPH0 load(1, XDATA, add(CFA_XSP16, literal(-1)))
        CFI (cfiCond280) CFA_SP SP+-1
        CFI (cfiCond280) CFA_XSP16 add(XSP16, 16)
        CFI Block cfiPicker281 Using cfiCommon1
        CFI (cfiPicker281) NoFunction
        CFI (cfiPicker281) Picker
        MOV     A,R0
        ADD     A,#0xb
        CFI Block cfiCond282 Using cfiCommon0
        CFI (cfiCond282) NoFunction
        CFI (cfiCond282) Conditional ??CrossCallReturnLabel_106
        CFI (cfiCond282) R6 load(1, XDATA, add(CFA_XSP16, literal(-12)))
        CFI (cfiCond282) VB load(1, XDATA, add(CFA_XSP16, literal(-11)))
        CFI (cfiCond282) V0 load(1, XDATA, add(CFA_XSP16, literal(-10)))
        CFI (cfiCond282) V1 load(1, XDATA, add(CFA_XSP16, literal(-9)))
        CFI (cfiCond282) V2 load(1, XDATA, add(CFA_XSP16, literal(-8)))
        CFI (cfiCond282) V3 load(1, XDATA, add(CFA_XSP16, literal(-7)))
        CFI (cfiCond282) R7 load(1, XDATA, add(CFA_XSP16, literal(-6)))
        CFI (cfiCond282) ?RET_LOW load(1, XDATA, add(CFA_XSP16, literal(-5)))
        CFI (cfiCond282) ?RET_HIGH load(1, XDATA, add(CFA_XSP16, literal(-4)))
        CFI (cfiCond282) ?BRET_EXT load(1, XDATA, add(CFA_XSP16, literal(-3)))
        CFI (cfiCond282) DPL0 load(1, XDATA, add(CFA_XSP16, literal(-2)))
        CFI (cfiCond282) DPH0 load(1, XDATA, add(CFA_XSP16, literal(-1)))
        CFI (cfiCond282) CFA_SP SP+-1
        CFI (cfiCond282) CFA_XSP16 add(XSP16, 16)
        CFI Block cfiCond283 Using cfiCommon0
        CFI (cfiCond283) NoFunction
        CFI (cfiCond283) Conditional ??CrossCallReturnLabel_107
        CFI (cfiCond283) R6 load(1, XDATA, add(CFA_XSP16, literal(-12)))
        CFI (cfiCond283) VB load(1, XDATA, add(CFA_XSP16, literal(-11)))
        CFI (cfiCond283) V0 load(1, XDATA, add(CFA_XSP16, literal(-10)))
        CFI (cfiCond283) V1 load(1, XDATA, add(CFA_XSP16, literal(-9)))
        CFI (cfiCond283) V2 load(1, XDATA, add(CFA_XSP16, literal(-8)))
        CFI (cfiCond283) V3 load(1, XDATA, add(CFA_XSP16, literal(-7)))
        CFI (cfiCond283) R7 load(1, XDATA, add(CFA_XSP16, literal(-6)))
        CFI (cfiCond283) ?RET_LOW load(1, XDATA, add(CFA_XSP16, literal(-5)))
        CFI (cfiCond283) ?RET_HIGH load(1, XDATA, add(CFA_XSP16, literal(-4)))
        CFI (cfiCond283) ?BRET_EXT load(1, XDATA, add(CFA_XSP16, literal(-3)))
        CFI (cfiCond283) DPL0 load(1, XDATA, add(CFA_XSP16, literal(-2)))
        CFI (cfiCond283) DPH0 load(1, XDATA, add(CFA_XSP16, literal(-1)))
        CFI (cfiCond283) CFA_SP SP+-1
        CFI (cfiCond283) CFA_XSP16 add(XSP16, 16)
        CFI Block cfiCond284 Using cfiCommon0
        CFI (cfiCond284) NoFunction
        CFI (cfiCond284) Conditional ??CrossCallReturnLabel_108
        CFI (cfiCond284) R6 load(1, XDATA, add(CFA_XSP16, literal(-12)))
        CFI (cfiCond284) VB load(1, XDATA, add(CFA_XSP16, literal(-11)))
        CFI (cfiCond284) V0 load(1, XDATA, add(CFA_XSP16, literal(-10)))
        CFI (cfiCond284) V1 load(1, XDATA, add(CFA_XSP16, literal(-9)))
        CFI (cfiCond284) V2 load(1, XDATA, add(CFA_XSP16, literal(-8)))
        CFI (cfiCond284) V3 load(1, XDATA, add(CFA_XSP16, literal(-7)))
        CFI (cfiCond284) R7 load(1, XDATA, add(CFA_XSP16, literal(-6)))
        CFI (cfiCond284) ?RET_LOW load(1, XDATA, add(CFA_XSP16, literal(-5)))
        CFI (cfiCond284) ?RET_HIGH load(1, XDATA, add(CFA_XSP16, literal(-4)))
        CFI (cfiCond284) ?BRET_EXT load(1, XDATA, add(CFA_XSP16, literal(-3)))
        CFI (cfiCond284) DPL0 load(1, XDATA, add(CFA_XSP16, literal(-2)))
        CFI (cfiCond284) DPH0 load(1, XDATA, add(CFA_XSP16, literal(-1)))
        CFI (cfiCond284) CFA_SP SP+-1
        CFI (cfiCond284) CFA_XSP16 add(XSP16, 16)
        CFI Block cfiCond285 Using cfiCommon0
        CFI (cfiCond285) NoFunction
        CFI (cfiCond285) Conditional ??CrossCallReturnLabel_109
        CFI (cfiCond285) R6 load(1, XDATA, add(CFA_XSP16, literal(-12)))
        CFI (cfiCond285) VB load(1, XDATA, add(CFA_XSP16, literal(-11)))
        CFI (cfiCond285) V0 load(1, XDATA, add(CFA_XSP16, literal(-10)))
        CFI (cfiCond285) V1 load(1, XDATA, add(CFA_XSP16, literal(-9)))
        CFI (cfiCond285) V2 load(1, XDATA, add(CFA_XSP16, literal(-8)))
        CFI (cfiCond285) V3 load(1, XDATA, add(CFA_XSP16, literal(-7)))
        CFI (cfiCond285) R7 load(1, XDATA, add(CFA_XSP16, literal(-6)))
        CFI (cfiCond285) ?RET_LOW load(1, XDATA, add(CFA_XSP16, literal(-5)))
        CFI (cfiCond285) ?RET_HIGH load(1, XDATA, add(CFA_XSP16, literal(-4)))
        CFI (cfiCond285) ?BRET_EXT load(1, XDATA, add(CFA_XSP16, literal(-3)))
        CFI (cfiCond285) DPL0 load(1, XDATA, add(CFA_XSP16, literal(-2)))
        CFI (cfiCond285) DPH0 load(1, XDATA, add(CFA_XSP16, literal(-1)))
        CFI (cfiCond285) CFA_SP SP+-1
        CFI (cfiCond285) CFA_XSP16 add(XSP16, 16)
        CFI Block cfiCond286 Using cfiCommon0
        CFI (cfiCond286) NoFunction
        CFI (cfiCond286) Conditional ??CrossCallReturnLabel_110
        CFI (cfiCond286) R6 load(1, XDATA, add(CFA_XSP16, literal(-12)))
        CFI (cfiCond286) VB load(1, XDATA, add(CFA_XSP16, literal(-11)))
        CFI (cfiCond286) V0 load(1, XDATA, add(CFA_XSP16, literal(-10)))
        CFI (cfiCond286) V1 load(1, XDATA, add(CFA_XSP16, literal(-9)))
        CFI (cfiCond286) V2 load(1, XDATA, add(CFA_XSP16, literal(-8)))
        CFI (cfiCond286) V3 load(1, XDATA, add(CFA_XSP16, literal(-7)))
        CFI (cfiCond286) R7 load(1, XDATA, add(CFA_XSP16, literal(-6)))
        CFI (cfiCond286) ?RET_LOW load(1, XDATA, add(CFA_XSP16, literal(-5)))
        CFI (cfiCond286) ?RET_HIGH load(1, XDATA, add(CFA_XSP16, literal(-4)))
        CFI (cfiCond286) ?BRET_EXT load(1, XDATA, add(CFA_XSP16, literal(-3)))
        CFI (cfiCond286) DPL0 load(1, XDATA, add(CFA_XSP16, literal(-2)))
        CFI (cfiCond286) DPH0 load(1, XDATA, add(CFA_XSP16, literal(-1)))
        CFI (cfiCond286) CFA_SP SP+-1
        CFI (cfiCond286) CFA_XSP16 add(XSP16, 16)
        CFI Block cfiCond287 Using cfiCommon0
        CFI (cfiCond287) NoFunction
        CFI (cfiCond287) Conditional ??CrossCallReturnLabel_111
        CFI (cfiCond287) R6 load(1, XDATA, add(CFA_XSP16, literal(-12)))
        CFI (cfiCond287) VB load(1, XDATA, add(CFA_XSP16, literal(-11)))
        CFI (cfiCond287) V0 load(1, XDATA, add(CFA_XSP16, literal(-10)))
        CFI (cfiCond287) V1 load(1, XDATA, add(CFA_XSP16, literal(-9)))
        CFI (cfiCond287) V2 load(1, XDATA, add(CFA_XSP16, literal(-8)))
        CFI (cfiCond287) V3 load(1, XDATA, add(CFA_XSP16, literal(-7)))
        CFI (cfiCond287) R7 load(1, XDATA, add(CFA_XSP16, literal(-6)))
        CFI (cfiCond287) ?RET_LOW load(1, XDATA, add(CFA_XSP16, literal(-5)))
        CFI (cfiCond287) ?RET_HIGH load(1, XDATA, add(CFA_XSP16, literal(-4)))
        CFI (cfiCond287) ?BRET_EXT load(1, XDATA, add(CFA_XSP16, literal(-3)))
        CFI (cfiCond287) DPL0 load(1, XDATA, add(CFA_XSP16, literal(-2)))
        CFI (cfiCond287) DPH0 load(1, XDATA, add(CFA_XSP16, literal(-1)))
        CFI (cfiCond287) CFA_SP SP+-1
        CFI (cfiCond287) CFA_XSP16 add(XSP16, 16)
        CFI Block cfiCond288 Using cfiCommon0
        CFI (cfiCond288) NoFunction
        CFI (cfiCond288) Conditional ??CrossCallReturnLabel_112
        CFI (cfiCond288) R6 load(1, XDATA, add(CFA_XSP16, literal(-12)))
        CFI (cfiCond288) VB load(1, XDATA, add(CFA_XSP16, literal(-11)))
        CFI (cfiCond288) V0 load(1, XDATA, add(CFA_XSP16, literal(-10)))
        CFI (cfiCond288) V1 load(1, XDATA, add(CFA_XSP16, literal(-9)))
        CFI (cfiCond288) V2 load(1, XDATA, add(CFA_XSP16, literal(-8)))
        CFI (cfiCond288) V3 load(1, XDATA, add(CFA_XSP16, literal(-7)))
        CFI (cfiCond288) R7 load(1, XDATA, add(CFA_XSP16, literal(-6)))
        CFI (cfiCond288) ?RET_LOW load(1, XDATA, add(CFA_XSP16, literal(-5)))
        CFI (cfiCond288) ?RET_HIGH load(1, XDATA, add(CFA_XSP16, literal(-4)))
        CFI (cfiCond288) ?BRET_EXT load(1, XDATA, add(CFA_XSP16, literal(-3)))
        CFI (cfiCond288) DPL0 load(1, XDATA, add(CFA_XSP16, literal(-2)))
        CFI (cfiCond288) DPH0 load(1, XDATA, add(CFA_XSP16, literal(-1)))
        CFI (cfiCond288) CFA_SP SP+-1
        CFI (cfiCond288) CFA_XSP16 add(XSP16, 16)
        CFI Block cfiCond289 Using cfiCommon0
        CFI (cfiCond289) NoFunction
        CFI (cfiCond289) Conditional ??CrossCallReturnLabel_113
        CFI (cfiCond289) R6 load(1, XDATA, add(CFA_XSP16, literal(-12)))
        CFI (cfiCond289) VB load(1, XDATA, add(CFA_XSP16, literal(-11)))
        CFI (cfiCond289) V0 load(1, XDATA, add(CFA_XSP16, literal(-10)))
        CFI (cfiCond289) V1 load(1, XDATA, add(CFA_XSP16, literal(-9)))
        CFI (cfiCond289) V2 load(1, XDATA, add(CFA_XSP16, literal(-8)))
        CFI (cfiCond289) V3 load(1, XDATA, add(CFA_XSP16, literal(-7)))
        CFI (cfiCond289) R7 load(1, XDATA, add(CFA_XSP16, literal(-6)))
        CFI (cfiCond289) ?RET_LOW load(1, XDATA, add(CFA_XSP16, literal(-5)))
        CFI (cfiCond289) ?RET_HIGH load(1, XDATA, add(CFA_XSP16, literal(-4)))
        CFI (cfiCond289) ?BRET_EXT load(1, XDATA, add(CFA_XSP16, literal(-3)))
        CFI (cfiCond289) DPL0 load(1, XDATA, add(CFA_XSP16, literal(-2)))
        CFI (cfiCond289) DPH0 load(1, XDATA, add(CFA_XSP16, literal(-1)))
        CFI (cfiCond289) CFA_SP SP+-1
        CFI (cfiCond289) CFA_XSP16 add(XSP16, 16)
        CFI Block cfiCond290 Using cfiCommon0
        CFI (cfiCond290) NoFunction
        CFI (cfiCond290) Conditional ??CrossCallReturnLabel_114
        CFI (cfiCond290) R6 load(1, XDATA, add(CFA_XSP16, literal(-12)))
        CFI (cfiCond290) VB load(1, XDATA, add(CFA_XSP16, literal(-11)))
        CFI (cfiCond290) V0 load(1, XDATA, add(CFA_XSP16, literal(-10)))
        CFI (cfiCond290) V1 load(1, XDATA, add(CFA_XSP16, literal(-9)))
        CFI (cfiCond290) V2 load(1, XDATA, add(CFA_XSP16, literal(-8)))
        CFI (cfiCond290) V3 load(1, XDATA, add(CFA_XSP16, literal(-7)))
        CFI (cfiCond290) R7 load(1, XDATA, add(CFA_XSP16, literal(-6)))
        CFI (cfiCond290) ?RET_LOW load(1, XDATA, add(CFA_XSP16, literal(-5)))
        CFI (cfiCond290) ?RET_HIGH load(1, XDATA, add(CFA_XSP16, literal(-4)))
        CFI (cfiCond290) ?BRET_EXT load(1, XDATA, add(CFA_XSP16, literal(-3)))
        CFI (cfiCond290) DPL0 load(1, XDATA, add(CFA_XSP16, literal(-2)))
        CFI (cfiCond290) DPH0 load(1, XDATA, add(CFA_XSP16, literal(-1)))
        CFI (cfiCond290) CFA_SP SP+-1
        CFI (cfiCond290) CFA_XSP16 add(XSP16, 16)
        CFI Block cfiCond291 Using cfiCommon0
        CFI (cfiCond291) NoFunction
        CFI (cfiCond291) Conditional ??CrossCallReturnLabel_115
        CFI (cfiCond291) R6 load(1, XDATA, add(CFA_XSP16, literal(-12)))
        CFI (cfiCond291) VB load(1, XDATA, add(CFA_XSP16, literal(-11)))
        CFI (cfiCond291) V0 load(1, XDATA, add(CFA_XSP16, literal(-10)))
        CFI (cfiCond291) V1 load(1, XDATA, add(CFA_XSP16, literal(-9)))
        CFI (cfiCond291) V2 load(1, XDATA, add(CFA_XSP16, literal(-8)))
        CFI (cfiCond291) V3 load(1, XDATA, add(CFA_XSP16, literal(-7)))
        CFI (cfiCond291) R7 load(1, XDATA, add(CFA_XSP16, literal(-6)))
        CFI (cfiCond291) ?RET_LOW load(1, XDATA, add(CFA_XSP16, literal(-5)))
        CFI (cfiCond291) ?RET_HIGH load(1, XDATA, add(CFA_XSP16, literal(-4)))
        CFI (cfiCond291) ?BRET_EXT load(1, XDATA, add(CFA_XSP16, literal(-3)))
        CFI (cfiCond291) DPL0 load(1, XDATA, add(CFA_XSP16, literal(-2)))
        CFI (cfiCond291) DPH0 load(1, XDATA, add(CFA_XSP16, literal(-1)))
        CFI (cfiCond291) CFA_SP SP+-1
        CFI (cfiCond291) CFA_XSP16 add(XSP16, 16)
        CFI Block cfiCond292 Using cfiCommon0
        CFI (cfiCond292) NoFunction
        CFI (cfiCond292) Conditional ??CrossCallReturnLabel_116
        CFI (cfiCond292) R6 load(1, XDATA, add(CFA_XSP16, literal(-12)))
        CFI (cfiCond292) VB load(1, XDATA, add(CFA_XSP16, literal(-11)))
        CFI (cfiCond292) V0 load(1, XDATA, add(CFA_XSP16, literal(-10)))
        CFI (cfiCond292) V1 load(1, XDATA, add(CFA_XSP16, literal(-9)))
        CFI (cfiCond292) V2 load(1, XDATA, add(CFA_XSP16, literal(-8)))
        CFI (cfiCond292) V3 load(1, XDATA, add(CFA_XSP16, literal(-7)))
        CFI (cfiCond292) R7 load(1, XDATA, add(CFA_XSP16, literal(-6)))
        CFI (cfiCond292) ?RET_LOW load(1, XDATA, add(CFA_XSP16, literal(-5)))
        CFI (cfiCond292) ?RET_HIGH load(1, XDATA, add(CFA_XSP16, literal(-4)))
        CFI (cfiCond292) ?BRET_EXT load(1, XDATA, add(CFA_XSP16, literal(-3)))
        CFI (cfiCond292) DPL0 load(1, XDATA, add(CFA_XSP16, literal(-2)))
        CFI (cfiCond292) DPH0 load(1, XDATA, add(CFA_XSP16, literal(-1)))
        CFI (cfiCond292) CFA_SP SP+-1
        CFI (cfiCond292) CFA_XSP16 add(XSP16, 16)
        CFI Block cfiCond293 Using cfiCommon0
        CFI (cfiCond293) NoFunction
        CFI (cfiCond293) Conditional ??CrossCallReturnLabel_117
        CFI (cfiCond293) R6 load(1, XDATA, add(CFA_XSP16, literal(-12)))
        CFI (cfiCond293) VB load(1, XDATA, add(CFA_XSP16, literal(-11)))
        CFI (cfiCond293) V0 load(1, XDATA, add(CFA_XSP16, literal(-10)))
        CFI (cfiCond293) V1 load(1, XDATA, add(CFA_XSP16, literal(-9)))
        CFI (cfiCond293) V2 load(1, XDATA, add(CFA_XSP16, literal(-8)))
        CFI (cfiCond293) V3 load(1, XDATA, add(CFA_XSP16, literal(-7)))
        CFI (cfiCond293) R7 load(1, XDATA, add(CFA_XSP16, literal(-6)))
        CFI (cfiCond293) ?RET_LOW load(1, XDATA, add(CFA_XSP16, literal(-5)))
        CFI (cfiCond293) ?RET_HIGH load(1, XDATA, add(CFA_XSP16, literal(-4)))
        CFI (cfiCond293) ?BRET_EXT load(1, XDATA, add(CFA_XSP16, literal(-3)))
        CFI (cfiCond293) DPL0 load(1, XDATA, add(CFA_XSP16, literal(-2)))
        CFI (cfiCond293) DPH0 load(1, XDATA, add(CFA_XSP16, literal(-1)))
        CFI (cfiCond293) CFA_SP SP+-1
        CFI (cfiCond293) CFA_XSP16 add(XSP16, 16)
        CFI Block cfiCond294 Using cfiCommon0
        CFI (cfiCond294) NoFunction
        CFI (cfiCond294) Conditional ??CrossCallReturnLabel_118
        CFI (cfiCond294) R6 load(1, XDATA, add(CFA_XSP16, literal(-12)))
        CFI (cfiCond294) VB load(1, XDATA, add(CFA_XSP16, literal(-11)))
        CFI (cfiCond294) V0 load(1, XDATA, add(CFA_XSP16, literal(-10)))
        CFI (cfiCond294) V1 load(1, XDATA, add(CFA_XSP16, literal(-9)))
        CFI (cfiCond294) V2 load(1, XDATA, add(CFA_XSP16, literal(-8)))
        CFI (cfiCond294) V3 load(1, XDATA, add(CFA_XSP16, literal(-7)))
        CFI (cfiCond294) R7 load(1, XDATA, add(CFA_XSP16, literal(-6)))
        CFI (cfiCond294) ?RET_LOW load(1, XDATA, add(CFA_XSP16, literal(-5)))
        CFI (cfiCond294) ?RET_HIGH load(1, XDATA, add(CFA_XSP16, literal(-4)))
        CFI (cfiCond294) ?BRET_EXT load(1, XDATA, add(CFA_XSP16, literal(-3)))
        CFI (cfiCond294) DPL0 load(1, XDATA, add(CFA_XSP16, literal(-2)))
        CFI (cfiCond294) DPH0 load(1, XDATA, add(CFA_XSP16, literal(-1)))
        CFI (cfiCond294) CFA_SP SP+0
        CFI (cfiCond294) CFA_XSP16 add(XSP16, 16)
        CFI Block cfiCond295 Using cfiCommon0
        CFI (cfiCond295) NoFunction
        CFI (cfiCond295) Conditional ??CrossCallReturnLabel_120
        CFI (cfiCond295) R6 load(1, XDATA, add(CFA_XSP16, literal(-12)))
        CFI (cfiCond295) VB load(1, XDATA, add(CFA_XSP16, literal(-11)))
        CFI (cfiCond295) V0 load(1, XDATA, add(CFA_XSP16, literal(-10)))
        CFI (cfiCond295) V1 load(1, XDATA, add(CFA_XSP16, literal(-9)))
        CFI (cfiCond295) V2 load(1, XDATA, add(CFA_XSP16, literal(-8)))
        CFI (cfiCond295) V3 load(1, XDATA, add(CFA_XSP16, literal(-7)))
        CFI (cfiCond295) R7 load(1, XDATA, add(CFA_XSP16, literal(-6)))
        CFI (cfiCond295) ?RET_LOW load(1, XDATA, add(CFA_XSP16, literal(-5)))
        CFI (cfiCond295) ?RET_HIGH load(1, XDATA, add(CFA_XSP16, literal(-4)))
        CFI (cfiCond295) ?BRET_EXT load(1, XDATA, add(CFA_XSP16, literal(-3)))
        CFI (cfiCond295) DPL0 load(1, XDATA, add(CFA_XSP16, literal(-2)))
        CFI (cfiCond295) DPH0 load(1, XDATA, add(CFA_XSP16, literal(-1)))
        CFI (cfiCond295) CFA_SP SP+-1
        CFI (cfiCond295) CFA_XSP16 add(XSP16, 16)
        CFI Block cfiCond296 Using cfiCommon0
        CFI (cfiCond296) NoFunction
        CFI (cfiCond296) Conditional ??CrossCallReturnLabel_121
        CFI (cfiCond296) R6 load(1, XDATA, add(CFA_XSP16, literal(-12)))
        CFI (cfiCond296) VB load(1, XDATA, add(CFA_XSP16, literal(-11)))
        CFI (cfiCond296) V0 load(1, XDATA, add(CFA_XSP16, literal(-10)))
        CFI (cfiCond296) V1 load(1, XDATA, add(CFA_XSP16, literal(-9)))
        CFI (cfiCond296) V2 load(1, XDATA, add(CFA_XSP16, literal(-8)))
        CFI (cfiCond296) V3 load(1, XDATA, add(CFA_XSP16, literal(-7)))
        CFI (cfiCond296) R7 load(1, XDATA, add(CFA_XSP16, literal(-6)))
        CFI (cfiCond296) ?RET_LOW load(1, XDATA, add(CFA_XSP16, literal(-5)))
        CFI (cfiCond296) ?RET_HIGH load(1, XDATA, add(CFA_XSP16, literal(-4)))
        CFI (cfiCond296) ?BRET_EXT load(1, XDATA, add(CFA_XSP16, literal(-3)))
        CFI (cfiCond296) DPL0 load(1, XDATA, add(CFA_XSP16, literal(-2)))
        CFI (cfiCond296) DPH0 load(1, XDATA, add(CFA_XSP16, literal(-1)))
        CFI (cfiCond296) CFA_SP SP+-1
        CFI (cfiCond296) CFA_XSP16 add(XSP16, 16)
        CFI Block cfiCond297 Using cfiCommon0
        CFI (cfiCond297) NoFunction
        CFI (cfiCond297) Conditional ??CrossCallReturnLabel_122
        CFI (cfiCond297) R6 load(1, XDATA, add(CFA_XSP16, literal(-12)))
        CFI (cfiCond297) VB load(1, XDATA, add(CFA_XSP16, literal(-11)))
        CFI (cfiCond297) V0 load(1, XDATA, add(CFA_XSP16, literal(-10)))
        CFI (cfiCond297) V1 load(1, XDATA, add(CFA_XSP16, literal(-9)))
        CFI (cfiCond297) V2 load(1, XDATA, add(CFA_XSP16, literal(-8)))
        CFI (cfiCond297) V3 load(1, XDATA, add(CFA_XSP16, literal(-7)))
        CFI (cfiCond297) R7 load(1, XDATA, add(CFA_XSP16, literal(-6)))
        CFI (cfiCond297) ?RET_LOW load(1, XDATA, add(CFA_XSP16, literal(-5)))
        CFI (cfiCond297) ?RET_HIGH load(1, XDATA, add(CFA_XSP16, literal(-4)))
        CFI (cfiCond297) ?BRET_EXT load(1, XDATA, add(CFA_XSP16, literal(-3)))
        CFI (cfiCond297) DPL0 load(1, XDATA, add(CFA_XSP16, literal(-2)))
        CFI (cfiCond297) DPH0 load(1, XDATA, add(CFA_XSP16, literal(-1)))
        CFI (cfiCond297) CFA_SP SP+-1
        CFI (cfiCond297) CFA_XSP16 add(XSP16, 16)
        CFI Block cfiCond298 Using cfiCommon0
        CFI (cfiCond298) NoFunction
        CFI (cfiCond298) Conditional ??CrossCallReturnLabel_123
        CFI (cfiCond298) R6 load(1, XDATA, add(CFA_XSP16, literal(-12)))
        CFI (cfiCond298) VB load(1, XDATA, add(CFA_XSP16, literal(-11)))
        CFI (cfiCond298) V0 load(1, XDATA, add(CFA_XSP16, literal(-10)))
        CFI (cfiCond298) V1 load(1, XDATA, add(CFA_XSP16, literal(-9)))
        CFI (cfiCond298) V2 load(1, XDATA, add(CFA_XSP16, literal(-8)))
        CFI (cfiCond298) V3 load(1, XDATA, add(CFA_XSP16, literal(-7)))
        CFI (cfiCond298) R7 load(1, XDATA, add(CFA_XSP16, literal(-6)))
        CFI (cfiCond298) ?RET_LOW load(1, XDATA, add(CFA_XSP16, literal(-5)))
        CFI (cfiCond298) ?RET_HIGH load(1, XDATA, add(CFA_XSP16, literal(-4)))
        CFI (cfiCond298) ?BRET_EXT load(1, XDATA, add(CFA_XSP16, literal(-3)))
        CFI (cfiCond298) DPL0 load(1, XDATA, add(CFA_XSP16, literal(-2)))
        CFI (cfiCond298) DPH0 load(1, XDATA, add(CFA_XSP16, literal(-1)))
        CFI (cfiCond298) CFA_SP SP+-1
        CFI (cfiCond298) CFA_XSP16 add(XSP16, 16)
        CFI Block cfiCond299 Using cfiCommon0
        CFI (cfiCond299) NoFunction
        CFI (cfiCond299) Conditional ??CrossCallReturnLabel_124
        CFI (cfiCond299) R6 load(1, XDATA, add(CFA_XSP16, literal(-12)))
        CFI (cfiCond299) VB load(1, XDATA, add(CFA_XSP16, literal(-11)))
        CFI (cfiCond299) V0 load(1, XDATA, add(CFA_XSP16, literal(-10)))
        CFI (cfiCond299) V1 load(1, XDATA, add(CFA_XSP16, literal(-9)))
        CFI (cfiCond299) V2 load(1, XDATA, add(CFA_XSP16, literal(-8)))
        CFI (cfiCond299) V3 load(1, XDATA, add(CFA_XSP16, literal(-7)))
        CFI (cfiCond299) R7 load(1, XDATA, add(CFA_XSP16, literal(-6)))
        CFI (cfiCond299) ?RET_LOW load(1, XDATA, add(CFA_XSP16, literal(-5)))
        CFI (cfiCond299) ?RET_HIGH load(1, XDATA, add(CFA_XSP16, literal(-4)))
        CFI (cfiCond299) ?BRET_EXT load(1, XDATA, add(CFA_XSP16, literal(-3)))
        CFI (cfiCond299) DPL0 load(1, XDATA, add(CFA_XSP16, literal(-2)))
        CFI (cfiCond299) DPH0 load(1, XDATA, add(CFA_XSP16, literal(-1)))
        CFI (cfiCond299) CFA_SP SP+-1
        CFI (cfiCond299) CFA_XSP16 add(XSP16, 16)
        CFI Block cfiCond300 Using cfiCommon0
        CFI (cfiCond300) NoFunction
        CFI (cfiCond300) Conditional ??CrossCallReturnLabel_125
        CFI (cfiCond300) R6 load(1, XDATA, add(CFA_XSP16, literal(-12)))
        CFI (cfiCond300) VB load(1, XDATA, add(CFA_XSP16, literal(-11)))
        CFI (cfiCond300) V0 load(1, XDATA, add(CFA_XSP16, literal(-10)))
        CFI (cfiCond300) V1 load(1, XDATA, add(CFA_XSP16, literal(-9)))
        CFI (cfiCond300) V2 load(1, XDATA, add(CFA_XSP16, literal(-8)))
        CFI (cfiCond300) V3 load(1, XDATA, add(CFA_XSP16, literal(-7)))
        CFI (cfiCond300) R7 load(1, XDATA, add(CFA_XSP16, literal(-6)))
        CFI (cfiCond300) ?RET_LOW load(1, XDATA, add(CFA_XSP16, literal(-5)))
        CFI (cfiCond300) ?RET_HIGH load(1, XDATA, add(CFA_XSP16, literal(-4)))
        CFI (cfiCond300) ?BRET_EXT load(1, XDATA, add(CFA_XSP16, literal(-3)))
        CFI (cfiCond300) DPL0 load(1, XDATA, add(CFA_XSP16, literal(-2)))
        CFI (cfiCond300) DPH0 load(1, XDATA, add(CFA_XSP16, literal(-1)))
        CFI (cfiCond300) CFA_SP SP+-1
        CFI (cfiCond300) CFA_XSP16 add(XSP16, 16)
        CFI Block cfiCond301 Using cfiCommon0
        CFI (cfiCond301) NoFunction
        CFI (cfiCond301) Conditional ??CrossCallReturnLabel_126
        CFI (cfiCond301) R6 load(1, XDATA, add(CFA_XSP16, literal(-12)))
        CFI (cfiCond301) VB load(1, XDATA, add(CFA_XSP16, literal(-11)))
        CFI (cfiCond301) V0 load(1, XDATA, add(CFA_XSP16, literal(-10)))
        CFI (cfiCond301) V1 load(1, XDATA, add(CFA_XSP16, literal(-9)))
        CFI (cfiCond301) V2 load(1, XDATA, add(CFA_XSP16, literal(-8)))
        CFI (cfiCond301) V3 load(1, XDATA, add(CFA_XSP16, literal(-7)))
        CFI (cfiCond301) R7 load(1, XDATA, add(CFA_XSP16, literal(-6)))
        CFI (cfiCond301) ?RET_LOW load(1, XDATA, add(CFA_XSP16, literal(-5)))
        CFI (cfiCond301) ?RET_HIGH load(1, XDATA, add(CFA_XSP16, literal(-4)))
        CFI (cfiCond301) ?BRET_EXT load(1, XDATA, add(CFA_XSP16, literal(-3)))
        CFI (cfiCond301) DPL0 load(1, XDATA, add(CFA_XSP16, literal(-2)))
        CFI (cfiCond301) DPH0 load(1, XDATA, add(CFA_XSP16, literal(-1)))
        CFI (cfiCond301) CFA_SP SP+-1
        CFI (cfiCond301) CFA_XSP16 add(XSP16, 16)
        CFI Block cfiCond302 Using cfiCommon0
        CFI (cfiCond302) NoFunction
        CFI (cfiCond302) Conditional ??CrossCallReturnLabel_127
        CFI (cfiCond302) R6 load(1, XDATA, add(CFA_XSP16, literal(-12)))
        CFI (cfiCond302) VB load(1, XDATA, add(CFA_XSP16, literal(-11)))
        CFI (cfiCond302) V0 load(1, XDATA, add(CFA_XSP16, literal(-10)))
        CFI (cfiCond302) V1 load(1, XDATA, add(CFA_XSP16, literal(-9)))
        CFI (cfiCond302) V2 load(1, XDATA, add(CFA_XSP16, literal(-8)))
        CFI (cfiCond302) V3 load(1, XDATA, add(CFA_XSP16, literal(-7)))
        CFI (cfiCond302) R7 load(1, XDATA, add(CFA_XSP16, literal(-6)))
        CFI (cfiCond302) ?RET_LOW load(1, XDATA, add(CFA_XSP16, literal(-5)))
        CFI (cfiCond302) ?RET_HIGH load(1, XDATA, add(CFA_XSP16, literal(-4)))
        CFI (cfiCond302) ?BRET_EXT load(1, XDATA, add(CFA_XSP16, literal(-3)))
        CFI (cfiCond302) DPL0 load(1, XDATA, add(CFA_XSP16, literal(-2)))
        CFI (cfiCond302) DPH0 load(1, XDATA, add(CFA_XSP16, literal(-1)))
        CFI (cfiCond302) CFA_SP SP+-1
        CFI (cfiCond302) CFA_XSP16 add(XSP16, 16)
        CFI Block cfiCond303 Using cfiCommon0
        CFI (cfiCond303) NoFunction
        CFI (cfiCond303) Conditional ??CrossCallReturnLabel_128
        CFI (cfiCond303) R6 load(1, XDATA, add(CFA_XSP16, literal(-12)))
        CFI (cfiCond303) VB load(1, XDATA, add(CFA_XSP16, literal(-11)))
        CFI (cfiCond303) V0 load(1, XDATA, add(CFA_XSP16, literal(-10)))
        CFI (cfiCond303) V1 load(1, XDATA, add(CFA_XSP16, literal(-9)))
        CFI (cfiCond303) V2 load(1, XDATA, add(CFA_XSP16, literal(-8)))
        CFI (cfiCond303) V3 load(1, XDATA, add(CFA_XSP16, literal(-7)))
        CFI (cfiCond303) R7 load(1, XDATA, add(CFA_XSP16, literal(-6)))
        CFI (cfiCond303) ?RET_LOW load(1, XDATA, add(CFA_XSP16, literal(-5)))
        CFI (cfiCond303) ?RET_HIGH load(1, XDATA, add(CFA_XSP16, literal(-4)))
        CFI (cfiCond303) ?BRET_EXT load(1, XDATA, add(CFA_XSP16, literal(-3)))
        CFI (cfiCond303) DPL0 load(1, XDATA, add(CFA_XSP16, literal(-2)))
        CFI (cfiCond303) DPH0 load(1, XDATA, add(CFA_XSP16, literal(-1)))
        CFI (cfiCond303) CFA_SP SP+-1
        CFI (cfiCond303) CFA_XSP16 add(XSP16, 16)
        CFI Block cfiCond304 Using cfiCommon0
        CFI (cfiCond304) NoFunction
        CFI (cfiCond304) Conditional ??CrossCallReturnLabel_129
        CFI (cfiCond304) R6 load(1, XDATA, add(CFA_XSP16, literal(-12)))
        CFI (cfiCond304) VB load(1, XDATA, add(CFA_XSP16, literal(-11)))
        CFI (cfiCond304) V0 load(1, XDATA, add(CFA_XSP16, literal(-10)))
        CFI (cfiCond304) V1 load(1, XDATA, add(CFA_XSP16, literal(-9)))
        CFI (cfiCond304) V2 load(1, XDATA, add(CFA_XSP16, literal(-8)))
        CFI (cfiCond304) V3 load(1, XDATA, add(CFA_XSP16, literal(-7)))
        CFI (cfiCond304) R7 load(1, XDATA, add(CFA_XSP16, literal(-6)))
        CFI (cfiCond304) ?RET_LOW load(1, XDATA, add(CFA_XSP16, literal(-5)))
        CFI (cfiCond304) ?RET_HIGH load(1, XDATA, add(CFA_XSP16, literal(-4)))
        CFI (cfiCond304) ?BRET_EXT load(1, XDATA, add(CFA_XSP16, literal(-3)))
        CFI (cfiCond304) DPL0 load(1, XDATA, add(CFA_XSP16, literal(-2)))
        CFI (cfiCond304) DPH0 load(1, XDATA, add(CFA_XSP16, literal(-1)))
        CFI (cfiCond304) CFA_SP SP+0
        CFI (cfiCond304) CFA_XSP16 add(XSP16, 16)
??Subroutine19_0:
        MOV     DPL,A
        MOV     A,R1
        LJMP    ?Subroutine42 & 0xFFFF
        CFI EndBlock cfiCond279
        CFI EndBlock cfiCond280
        CFI EndBlock cfiPicker281
        CFI EndBlock cfiCond282
        CFI EndBlock cfiCond283
        CFI EndBlock cfiCond284
        CFI EndBlock cfiCond285
        CFI EndBlock cfiCond286
        CFI EndBlock cfiCond287
        CFI EndBlock cfiCond288
        CFI EndBlock cfiCond289
        CFI EndBlock cfiCond290
        CFI EndBlock cfiCond291
        CFI EndBlock cfiCond292
        CFI EndBlock cfiCond293
        CFI EndBlock cfiCond294
        CFI EndBlock cfiCond295
        CFI EndBlock cfiCond296
        CFI EndBlock cfiCond297
        CFI EndBlock cfiCond298
        CFI EndBlock cfiCond299
        CFI EndBlock cfiCond300
        CFI EndBlock cfiCond301
        CFI EndBlock cfiCond302
        CFI EndBlock cfiCond303
        CFI EndBlock cfiCond304

        RSEG BANKED_CODE:CODE:NOROOT(0)
?Subroutine14:
        CFI Block cfiCond305 Using cfiCommon0
        CFI NoFunction
        CFI Conditional ??CrossCallReturnLabel_30
        CFI R6 load(1, XDATA, add(CFA_XSP16, literal(-13)))
        CFI VB load(1, XDATA, add(CFA_XSP16, literal(-12)))
        CFI V0 load(1, XDATA, add(CFA_XSP16, literal(-11)))
        CFI V1 load(1, XDATA, add(CFA_XSP16, literal(-10)))
        CFI V2 load(1, XDATA, add(CFA_XSP16, literal(-9)))
        CFI V3 load(1, XDATA, add(CFA_XSP16, literal(-8)))
        CFI V4 load(1, XDATA, add(CFA_XSP16, literal(-7)))
        CFI R7 load(1, XDATA, add(CFA_XSP16, literal(-6)))
        CFI ?RET_LOW load(1, XDATA, add(CFA_XSP16, literal(-5)))
        CFI ?RET_HIGH load(1, XDATA, add(CFA_XSP16, literal(-4)))
        CFI ?BRET_EXT load(1, XDATA, add(CFA_XSP16, literal(-3)))
        CFI DPL0 load(1, XDATA, add(CFA_XSP16, literal(-2)))
        CFI DPH0 load(1, XDATA, add(CFA_XSP16, literal(-1)))
        CFI CFA_SP SP+0
        CFI CFA_XSP16 add(XSP16, 13)
        CFI Block cfiCond306 Using cfiCommon0
        CFI (cfiCond306) NoFunction
        CFI (cfiCond306) Conditional ??CrossCallReturnLabel_31
        CFI (cfiCond306) R6 load(1, XDATA, add(CFA_XSP16, literal(-13)))
        CFI (cfiCond306) VB load(1, XDATA, add(CFA_XSP16, literal(-12)))
        CFI (cfiCond306) V0 load(1, XDATA, add(CFA_XSP16, literal(-11)))
        CFI (cfiCond306) V1 load(1, XDATA, add(CFA_XSP16, literal(-10)))
        CFI (cfiCond306) V2 load(1, XDATA, add(CFA_XSP16, literal(-9)))
        CFI (cfiCond306) V3 load(1, XDATA, add(CFA_XSP16, literal(-8)))
        CFI (cfiCond306) V4 load(1, XDATA, add(CFA_XSP16, literal(-7)))
        CFI (cfiCond306) R7 load(1, XDATA, add(CFA_XSP16, literal(-6)))
        CFI (cfiCond306) ?RET_LOW load(1, XDATA, add(CFA_XSP16, literal(-5)))
        CFI (cfiCond306) ?RET_HIGH load(1, XDATA, add(CFA_XSP16, literal(-4)))
        CFI (cfiCond306) ?BRET_EXT load(1, XDATA, add(CFA_XSP16, literal(-3)))
        CFI (cfiCond306) DPL0 load(1, XDATA, add(CFA_XSP16, literal(-2)))
        CFI (cfiCond306) DPH0 load(1, XDATA, add(CFA_XSP16, literal(-1)))
        CFI (cfiCond306) CFA_SP SP+0
        CFI (cfiCond306) CFA_XSP16 add(XSP16, 13)
        CFI Block cfiPicker307 Using cfiCommon1
        CFI (cfiPicker307) NoFunction
        CFI (cfiPicker307) Picker
        MOVX    A,@DPTR
        MOV     ?V0 + 0,A
        MOV     DPL,R4
        MOV     DPH,R5
        INC     DPTR
        INC     DPTR
        RET
        CFI EndBlock cfiCond305
        CFI EndBlock cfiCond306
        CFI EndBlock cfiPicker307
//  868 #endif
//  869 
//  870 //------------------------------------------------------------------------------
//  871 //xiaoyang add, data_trans task
//  872 //------------------------------------------------------------------------------

        RSEG BANKED_CODE:CODE:NOROOT(0)
//  873 void data_trans_Init( uint8 task_id ) //任务初始化函数
data_trans_Init:
        CFI Block cfiBlock308 Using cfiCommon0
        CFI Function data_trans_Init
//  874 {
        FUNCALL data_trans_Init, SPIMgr_RegisterTaskID
        LOCFRAME ISTACK, 2, STACK
        LOCFRAME PSTACK, 0, STACK
        LOCFRAME XSTACK, 0, STACK
        LOCFRAME IOVERLAY, 0, STATIC
        LOCFRAME DOVERLAY, 0, STATIC
        ARGFRAME ISTACK, 2, STACK
        ARGFRAME PSTACK, 0, STACK
        ARGFRAME XSTACK, 0, STACK
        ARGFRAME IOVERLAY, 0, STATIC
        ARGFRAME DOVERLAY, 0, STATIC
        PUSH    DPL
        CFI DPL0 Frame(CFA_SP, 4)
        CFI CFA_SP SP+-4
        PUSH    DPH
        CFI DPH0 Frame(CFA_SP, 5)
        CFI CFA_SP SP+-5
        ; Saved register size: 2
        ; Auto size: 0
//  875     data_trans_TaskID = task_id;//用data_trans_TaskID全局变量记住自己的任务号，
        MOV     A,R1
        MOV     DPTR,#data_trans_TaskID
        MOVX    @DPTR,A
//  876     SPIMgr_RegisterTaskID( task_id );//注册该任务为串口任务，其实就是App_TaskID = data_trans_TaskID;
        ; Setup parameters for call to function SPIMgr_RegisterTaskID
        LCALL   ??SPIMgr_RegisterTaskID?relay
//  877 }
        LJMP    ?Subroutine39 & 0xFFFF
        CFI EndBlock cfiBlock308
//  878 

        RSEG BANKED_CODE:CODE:NOROOT(0)
//  879 uint16 data_trans_process( uint8 task_id, uint16 events ) //任务处理函数
data_trans_process:
        CFI Block cfiBlock309 Using cfiCommon0
        CFI Function data_trans_process
//  880 {
        FUNCALL data_trans_process, HalUARTRead
        LOCFRAME ISTACK, 0, STACK
        LOCFRAME PSTACK, 0, STACK
        LOCFRAME XSTACK, 90, STACK
        LOCFRAME IOVERLAY, 0, STATIC
        LOCFRAME DOVERLAY, 0, STATIC
        ARGFRAME ISTACK, 0, STACK
        ARGFRAME PSTACK, 0, STACK
        ARGFRAME XSTACK, 90, STACK
        ARGFRAME IOVERLAY, 0, STATIC
        ARGFRAME DOVERLAY, 0, STATIC
        FUNCALL data_trans_process, strcmp
        LOCFRAME ISTACK, 0, STACK
        LOCFRAME PSTACK, 0, STACK
        LOCFRAME XSTACK, 90, STACK
        LOCFRAME IOVERLAY, 0, STATIC
        LOCFRAME DOVERLAY, 0, STATIC
        ARGFRAME ISTACK, 0, STACK
        ARGFRAME PSTACK, 0, STACK
        ARGFRAME XSTACK, 90, STACK
        ARGFRAME IOVERLAY, 0, STATIC
        ARGFRAME DOVERLAY, 0, STATIC
        FUNCALL data_trans_process, sprintf
        LOCFRAME ISTACK, 0, STACK
        LOCFRAME PSTACK, 0, STACK
        LOCFRAME XSTACK, 100, STACK
        LOCFRAME IOVERLAY, 0, STATIC
        LOCFRAME DOVERLAY, 0, STATIC
        ARGFRAME ISTACK, 0, STACK
        ARGFRAME PSTACK, 0, STACK
        ARGFRAME XSTACK, 100, STACK
        ARGFRAME IOVERLAY, 0, STATIC
        ARGFRAME DOVERLAY, 0, STATIC
        FUNCALL data_trans_process, strlen
        LOCFRAME ISTACK, 0, STACK
        LOCFRAME PSTACK, 0, STACK
        LOCFRAME XSTACK, 90, STACK
        LOCFRAME IOVERLAY, 0, STATIC
        LOCFRAME DOVERLAY, 0, STATIC
        ARGFRAME ISTACK, 0, STACK
        ARGFRAME PSTACK, 0, STACK
        ARGFRAME XSTACK, 90, STACK
        ARGFRAME IOVERLAY, 0, STATIC
        ARGFRAME DOVERLAY, 0, STATIC
        FUNCALL data_trans_process, HalUARTWrite
        LOCFRAME ISTACK, 0, STACK
        LOCFRAME PSTACK, 0, STACK
        LOCFRAME XSTACK, 90, STACK
        LOCFRAME IOVERLAY, 0, STATIC
        LOCFRAME DOVERLAY, 0, STATIC
        ARGFRAME ISTACK, 0, STACK
        ARGFRAME PSTACK, 0, STACK
        ARGFRAME XSTACK, 90, STACK
        ARGFRAME IOVERLAY, 0, STATIC
        ARGFRAME DOVERLAY, 0, STATIC
        FUNCALL data_trans_process, HalUARTWrite
        LOCFRAME ISTACK, 0, STACK
        LOCFRAME PSTACK, 0, STACK
        LOCFRAME XSTACK, 90, STACK
        LOCFRAME IOVERLAY, 0, STATIC
        LOCFRAME DOVERLAY, 0, STATIC
        ARGFRAME ISTACK, 0, STACK
        ARGFRAME PSTACK, 0, STACK
        ARGFRAME XSTACK, 90, STACK
        ARGFRAME IOVERLAY, 0, STATIC
        ARGFRAME DOVERLAY, 0, STATIC
        FUNCALL data_trans_process, sprintf
        LOCFRAME ISTACK, 0, STACK
        LOCFRAME PSTACK, 0, STACK
        LOCFRAME XSTACK, 92, STACK
        LOCFRAME IOVERLAY, 0, STATIC
        LOCFRAME DOVERLAY, 0, STATIC
        ARGFRAME ISTACK, 0, STACK
        ARGFRAME PSTACK, 0, STACK
        ARGFRAME XSTACK, 92, STACK
        ARGFRAME IOVERLAY, 0, STATIC
        ARGFRAME DOVERLAY, 0, STATIC
        FUNCALL data_trans_process, strlen
        LOCFRAME ISTACK, 0, STACK
        LOCFRAME PSTACK, 0, STACK
        LOCFRAME XSTACK, 90, STACK
        LOCFRAME IOVERLAY, 0, STATIC
        LOCFRAME DOVERLAY, 0, STATIC
        ARGFRAME ISTACK, 0, STACK
        ARGFRAME PSTACK, 0, STACK
        ARGFRAME XSTACK, 90, STACK
        ARGFRAME IOVERLAY, 0, STATIC
        ARGFRAME DOVERLAY, 0, STATIC
        FUNCALL data_trans_process, HalUARTWrite
        LOCFRAME ISTACK, 0, STACK
        LOCFRAME PSTACK, 0, STACK
        LOCFRAME XSTACK, 90, STACK
        LOCFRAME IOVERLAY, 0, STATIC
        LOCFRAME DOVERLAY, 0, STATIC
        ARGFRAME ISTACK, 0, STACK
        ARGFRAME PSTACK, 0, STACK
        ARGFRAME XSTACK, 90, STACK
        ARGFRAME IOVERLAY, 0, STATIC
        ARGFRAME DOVERLAY, 0, STATIC
        FUNCALL data_trans_process, HalUARTWrite
        LOCFRAME ISTACK, 0, STACK
        LOCFRAME PSTACK, 0, STACK
        LOCFRAME XSTACK, 90, STACK
        LOCFRAME IOVERLAY, 0, STATIC
        LOCFRAME DOVERLAY, 0, STATIC
        ARGFRAME ISTACK, 0, STACK
        ARGFRAME PSTACK, 0, STACK
        ARGFRAME XSTACK, 90, STACK
        ARGFRAME IOVERLAY, 0, STATIC
        ARGFRAME DOVERLAY, 0, STATIC
        MOV     A,#-0xc
        LCALL   ?BANKED_ENTER_XDATA
        CFI DPH0 load(1, XDATA, add(CFA_XSP16, literal(-1)))
        CFI DPL0 load(1, XDATA, add(CFA_XSP16, literal(-2)))
        CFI ?BRET_EXT load(1, XDATA, add(CFA_XSP16, literal(-3)))
        CFI ?RET_HIGH load(1, XDATA, add(CFA_XSP16, literal(-4)))
        CFI ?RET_LOW load(1, XDATA, add(CFA_XSP16, literal(-5)))
        CFI R7 load(1, XDATA, add(CFA_XSP16, literal(-6)))
        CFI V3 load(1, XDATA, add(CFA_XSP16, literal(-7)))
        CFI V2 load(1, XDATA, add(CFA_XSP16, literal(-8)))
        CFI V1 load(1, XDATA, add(CFA_XSP16, literal(-9)))
        CFI V0 load(1, XDATA, add(CFA_XSP16, literal(-10)))
        CFI VB load(1, XDATA, add(CFA_XSP16, literal(-11)))
        CFI R6 load(1, XDATA, add(CFA_XSP16, literal(-12)))
        CFI CFA_SP SP+0
        CFI CFA_XSP16 add(XSP16, 12)
        ; Saved register size: 12
        ; Auto size: 78
        MOV     A,#-0x4e
        LCALL   ?ALLOC_XSTACK8
        CFI CFA_XSP16 add(XSP16, 90)
//  881   int i,len;
//  882   char buf[33]="";
        MOV     A,#0x5
        LCALL   ?XSTACK_DISP0_8
        MOV     R4,DPL
        MOV     R5,DPH
        MOV     DPH,#((`?<Constant "">` >> 8) & 0xff)
        MOV     DPL,#(`?<Constant "">` & 0xff)
        MOV     A,#0x21
        LCALL   ?MOVE_LONG8_XDATA_XDATA
//  883   char srcaddr[5];
//  884   char send_info[40];
//  885   //在串口调试助手中你发什么就收到什么
//  886   len = HalUARTRead(SPI_MGR_DEFAULT_PORT,buf,32 );//读串口数据到buf
        ; Setup parameters for call to function HalUARTRead
        MOV     R4,#0x20
        MOV     R5,A
        MOV     A,#0x5
        LCALL   ?XSTACK_DISP0_8
        MOV     R2,DPL
        MOV     R3,DPH
        MOV     R1,#0x0
        LCALL   ??HalUARTRead?relay
        MOV     ?V0 + 0,R2
        MOV     ?V0 + 1,R3
        MOV     R0,?V0 + 0
        MOV     R1,?V0 + 1
//  887   
//  888   if(len >= 10)
        CLR     C
        MOV     A,R0
        SUBB    A,#0xa
        MOV     A,R1
        SUBB    A,#0x0
        MOV     C,0xD0 /* PSW */.2
        XRL     A,PSW
        RLC     A
        JNC     $+5
        LJMP    ??data_trans_process_0 & 0xFFFF
//  889   {
//  890     //uart0_puts("len>10",6);
//  891     if(buf[0] == '[' && buf[1] == '[' && buf[2] == 'R' && buf[3] == 'D' && buf[4] == '#')
        MOV     A,#0x5
        LCALL   ?XSTACK_DISP0_8
        MOVX    A,@DPTR
        XRL     A,#0x5b
        JZ      $+5
        LJMP    ??data_trans_process_1 & 0xFFFF
        MOV     A,#0x6
        LCALL   ?XSTACK_DISP0_8
        MOVX    A,@DPTR
        XRL     A,#0x5b
        JZ      $+5
        LJMP    ??data_trans_process_1 & 0xFFFF
        MOV     A,#0x7
        LCALL   ?XSTACK_DISP0_8
        MOVX    A,@DPTR
        XRL     A,#0x52
        JZ      $+5
        LJMP    ??data_trans_process_1 & 0xFFFF
        MOV     A,#0x8
        LCALL   ?XSTACK_DISP0_8
        MOVX    A,@DPTR
        XRL     A,#0x44
        JZ      $+5
        LJMP    ??data_trans_process_1 & 0xFFFF
        MOV     A,#0x9
        LCALL   ?XSTACK_DISP0_8
        MOVX    A,@DPTR
        XRL     A,#0x23
        JZ      $+5
        LJMP    ??data_trans_process_1 & 0xFFFF
//  892     {
//  893       //test code
//  894       //HalUARTWrite(0,"#11.1:22.2:33.3:44.4:55.5#\n",strlen("#11.1:22.2:33.3:44.4:55.5#\n"));
//  895       //test code
//  896       
//  897       //收到"[[RD#1234#"
//  898       srcaddr[0] = buf[5];
        MOV     A,#0xa
        LCALL   ?XSTACK_DISP0_8
        MOVX    A,@DPTR
        MOV     DPL,?XSP + 0
        MOV     DPH,?XSP + 1
        MOVX    @DPTR,A
//  899       srcaddr[1] = buf[6];
        MOV     A,#0xb
        LCALL   ?XSTACK_DISP0_8
        MOVX    A,@DPTR
        PUSH    A
        CFI CFA_SP SP+-1
        MOV     A,#0x1
        LCALL   ?XSTACK_DISP0_8
        POP     A
        CFI CFA_SP SP+0
        MOVX    @DPTR,A
//  900       srcaddr[2] = buf[7];
        MOV     A,#0xc
        LCALL   ?XSTACK_DISP0_8
        MOVX    A,@DPTR
        PUSH    A
        CFI CFA_SP SP+-1
        MOV     A,#0x2
        LCALL   ?XSTACK_DISP0_8
        POP     A
        CFI CFA_SP SP+0
        MOVX    @DPTR,A
//  901       srcaddr[3] = buf[8];
        MOV     A,#0xd
        LCALL   ?XSTACK_DISP0_8
        MOVX    A,@DPTR
        PUSH    A
        CFI CFA_SP SP+-1
        MOV     A,#0x3
        LCALL   ?XSTACK_DISP0_8
        POP     A
        CFI CFA_SP SP+0
        MOVX    @DPTR,A
//  902       srcaddr[4] = '\0';
        MOV     A,#0x4
        LCALL   ?XSTACK_DISP0_8
        CLR     A
        MOVX    @DPTR,A
//  903       
//  904       for(i=0;i<point_num;i++)
        MOV     R6,A
        LJMP    ??data_trans_process_2 & 0xFFFF
//  905       {
//  906         //匹配地址串
//  907         if(strcmp(srcaddr,point_info[i].address)==0)
??data_trans_process_3:
        ; Setup parameters for call to function strcmp
        LCALL   ?Subroutine21 & 0xFFFF
??CrossCallReturnLabel_43:
        JNZ     ??data_trans_process_4
        MOV     A,R3
??data_trans_process_4:
        JNZ     ??data_trans_process_5
//  908         {
//  909           sprintf(send_info,"#%s:%s:%s:%s:%s#\n",point_info[i].temp,point_info[i].humidity,point_info[i].smoke,point_info[i].co,point_info[i].ch4);
        MOV     A,R6
        MOV     R0,A
        MOV     A,R7
        MOV     R1,A
        MOV     A,R0
        MOV     B,#0x1e
        MUL     AB
        MOV     R0,A
        MOV     R2,B
        MOV     B,#0x1e
        MOV     A,R1
        MUL     AB
        ADD     A,R2
        MOV     R1,A
        MOV     A,R0
        ADD     A,#(point_info & 0xff)
        MOV     ?V0 + 0,A
        MOV     A,R1
        ADDC    A,#((point_info >> 8) & 0xff)
        MOV     ?V0 + 1,A
        ; Setup parameters for call to function sprintf
        MOV     A,?V0 + 0
        ADD     A,#0x14
        LCALL   ?Subroutine20 & 0xFFFF
??CrossCallReturnLabel_38:
        LCALL   ?PUSH_XSTACK_I_TWO
        CFI CFA_XSP16 add(XSP16, 92)
        MOV     A,?V0 + 0
        ADD     A,#0xf
        LCALL   ?Subroutine20 & 0xFFFF
??CrossCallReturnLabel_39:
        LCALL   ?PUSH_XSTACK_I_TWO
        CFI CFA_XSP16 add(XSP16, 94)
        MOV     A,?V0 + 0
        ADD     A,#0xa
        LCALL   ?Subroutine20 & 0xFFFF
??CrossCallReturnLabel_40:
        LCALL   ?PUSH_XSTACK_I_TWO
        CFI CFA_XSP16 add(XSP16, 96)
        MOV     A,?V0 + 0
        ADD     A,#0x5
        LCALL   ?Subroutine20 & 0xFFFF
??CrossCallReturnLabel_41:
        LCALL   ?PUSH_XSTACK_I_TWO
        CFI CFA_XSP16 add(XSP16, 98)
        MOV     R0,#?V0 + 0
        LCALL   ?PUSH_XSTACK_I_TWO
        CFI CFA_XSP16 add(XSP16, 100)
        MOV     R4,#(`?<Constant "#%s:%s:%s:%s:%s#\\n">` & 0xff)
        MOV     R5,#((`?<Constant "#%s:%s:%s:%s:%s#\\n">` >> 8) & 0xff)
        MOV     A,#0x30
        LCALL   ?XSTACK_DISP0_8
        MOV     R2,DPL
        MOV     R3,DPH
        LCALL   ??sprintf?relay
        MOV     A,#0xa
        LCALL   ?DEALLOC_XSTACK8
        CFI CFA_XSP16 add(XSP16, 90)
//  910           //uart0_puts(send_info,28);
//  911           HalUARTWrite(0,send_info,strlen(send_info));
        ; Setup parameters for call to function HalUARTWrite
        ; Setup parameters for call to function strlen
        MOV     A,#0x26
        LCALL   ?XSTACK_DISP0_8
        LCALL   ?Subroutine25 & 0xFFFF
??CrossCallReturnLabel_51:
        LCALL   ?XSTACK_DISP0_8
        MOV     R2,DPL
        MOV     R3,DPH
        MOV     R1,#0x0
        LCALL   ??HalUARTWrite?relay
//  912         }
//  913       }
??data_trans_process_5:
        MOV     A,R6
        ADD     A,#0x1
        INC     R6
        MOV     A,R7
        ADDC    A,#0x0
??data_trans_process_2:
        MOV     R7,A
        LCALL   ?Subroutine13 & 0xFFFF
??CrossCallReturnLabel_28:
        JNC     $+5
        LJMP    ??data_trans_process_3 & 0xFFFF
//  914       
//  915       //uart0_puts("]]",2);
//  916       HalUARTWrite(0,"]]\n",strlen("]]\n"));
        ; Setup parameters for call to function HalUARTWrite
        MOV     R4,#0x3
        MOV     R5,#0x0
        MOV     R2,#(`?<Constant "]]\\n">` & 0xff)
        MOV     R3,#((`?<Constant "]]\\n">` >> 8) & 0xff)
        LJMP    ??data_trans_process_6 & 0xFFFF
//  917     }
//  918       
//  919   }
//  920   else if(len >= 4)
??data_trans_process_0:
        CLR     C
        MOV     A,R0
        SUBB    A,#0x4
        MOV     A,R1
        SUBB    A,#0x0
        MOV     C,0xD0 /* PSW */.2
        XRL     A,PSW
        RLC     A
        JNC     $+5
        LJMP    ??data_trans_process_1 & 0xFFFF
//  921   {
//  922     //if(strcmp(buf,"[[RA")==0)
//  923     if( (buf[0] == '[') && (buf[1] == '[') && (buf[2] == 'R') && (buf[3] == 'A') )
        MOV     A,#0x5
        LCALL   ?XSTACK_DISP0_8
        MOVX    A,@DPTR
        XRL     A,#0x5b
        JZ      $+5
        LJMP    ??data_trans_process_1 & 0xFFFF
        MOV     A,#0x6
        LCALL   ?XSTACK_DISP0_8
        MOVX    A,@DPTR
        XRL     A,#0x5b
        JNZ     ??data_trans_process_1
        MOV     A,#0x7
        LCALL   ?XSTACK_DISP0_8
        MOVX    A,@DPTR
        XRL     A,#0x52
        JNZ     ??data_trans_process_1
        MOV     A,#0x8
        LCALL   ?XSTACK_DISP0_8
        MOVX    A,@DPTR
        XRL     A,#0x41
        JNZ     ??data_trans_process_1
//  924     {
//  925       //test code
//  926       /*for(i=0;i<5;i++)
//  927       {
//  928         sprintf(send_info,"#%d#\n",1000+i);
//  929         //uart0_puts(send_info,7);
//  930         HalUARTWrite(0,send_info,strlen(send_info));
//  931       }
//  932       HalUARTWrite(0,"]]\r\n",strlen("]]\r\n"));
//  933       //test code
//  934       */
//  935       for(i=0;i<point_num;i++)
        MOV     R6,#0x0
        MOV     R7,#0x0
        SJMP    ??CrossCallReturnLabel_47
//  936       {
//  937         sprintf(send_info,"#%s#\n\0",point_info[i].address);
??data_trans_process_7:
        ; Setup parameters for call to function sprintf
        MOV     A,R6
        MOV     R0,A
        MOV     A,R7
        MOV     R1,A
        MOV     A,R0
        MOV     B,#0x1e
        MUL     AB
        MOV     R0,A
        MOV     R2,B
        MOV     B,#0x1e
        MOV     A,R1
        MUL     AB
        ADD     A,R2
        MOV     R1,A
        MOV     A,R0
        ADD     A,#((point_info + 25) & 0xff)
        MOV     ?V0 + 0,A
        MOV     A,R1
        ADDC    A,#(((point_info + 25) >> 8) & 0xff)
        MOV     ?V0 + 1,A
        MOV     R0,#?V0 + 0
        LCALL   ?PUSH_XSTACK_I_TWO
        CFI CFA_XSP16 add(XSP16, 92)
        MOV     R4,#(`?<Constant "#%s#\\n\\000">` & 0xff)
        MOV     R5,#((`?<Constant "#%s#\\n\\000">` >> 8) & 0xff)
        MOV     A,#0x28
        LCALL   ?XSTACK_DISP0_8
        MOV     R2,DPL
        MOV     R3,DPH
        LCALL   ??sprintf?relay
        MOV     A,#0x2
        LCALL   ?DEALLOC_XSTACK8
        CFI CFA_XSP16 add(XSP16, 90)
//  938         //uart0_puts(send_info,7);
//  939         HalUARTWrite(0,send_info,strlen(send_info));
        ; Setup parameters for call to function HalUARTWrite
        ; Setup parameters for call to function strlen
        MOV     A,#0x26
        LCALL   ?XSTACK_DISP0_8
        LCALL   ?Subroutine25 & 0xFFFF
??CrossCallReturnLabel_52:
        LCALL   ?XSTACK_DISP0_8
        MOV     R2,DPL
        MOV     R3,DPH
        MOV     R1,#0x0
        LCALL   ??HalUARTWrite?relay
//  940       }
        LCALL   ?Subroutine23 & 0xFFFF
??CrossCallReturnLabel_47:
        LCALL   ?Subroutine13 & 0xFFFF
??CrossCallReturnLabel_29:
        JC      ??data_trans_process_7
//  941       HalUARTWrite(0,"]]\r\n",strlen("]]\r\n"));
        ; Setup parameters for call to function HalUARTWrite
        MOV     R4,#0x4
        MOV     R5,#0x0
        MOV     R2,#(`?<Constant "]]\\r\\n">` & 0xff)
        MOV     R3,#((`?<Constant "]]\\r\\n">` >> 8) & 0xff)
??data_trans_process_6:
        MOV     R1,#0x0
        LCALL   ??HalUARTWrite?relay
//  942 
//  943     }
//  944   }
//  945 #if defined(ZAPP_P1)
//  946   SPIMgr_AppFlowControl(SPI_MGR_ZAPP_RX_READY);//恢复流，不然不能接收新数据
//  947 #endif
//  948   return 0;   
??data_trans_process_1:
        MOV     R2,#0x0
        MOV     R3,#0x0
        MOV     A,#0x4e
        LJMP    ?Subroutine40 & 0xFFFF
        CFI EndBlock cfiBlock309
//  949 }

        RSEG BANKED_CODE:CODE:NOROOT(0)
?Subroutine25:
        CFI Block cfiCond310 Using cfiCommon0
        CFI NoFunction
        CFI Conditional ??CrossCallReturnLabel_51
        CFI R6 load(1, XDATA, add(CFA_XSP16, literal(-12)))
        CFI VB load(1, XDATA, add(CFA_XSP16, literal(-11)))
        CFI V0 load(1, XDATA, add(CFA_XSP16, literal(-10)))
        CFI V1 load(1, XDATA, add(CFA_XSP16, literal(-9)))
        CFI V2 load(1, XDATA, add(CFA_XSP16, literal(-8)))
        CFI V3 load(1, XDATA, add(CFA_XSP16, literal(-7)))
        CFI R7 load(1, XDATA, add(CFA_XSP16, literal(-6)))
        CFI ?RET_LOW load(1, XDATA, add(CFA_XSP16, literal(-5)))
        CFI ?RET_HIGH load(1, XDATA, add(CFA_XSP16, literal(-4)))
        CFI ?BRET_EXT load(1, XDATA, add(CFA_XSP16, literal(-3)))
        CFI DPL0 load(1, XDATA, add(CFA_XSP16, literal(-2)))
        CFI DPH0 load(1, XDATA, add(CFA_XSP16, literal(-1)))
        CFI CFA_SP SP+0
        CFI CFA_XSP16 add(XSP16, 90)
        CFI Block cfiCond311 Using cfiCommon0
        CFI (cfiCond311) NoFunction
        CFI (cfiCond311) Conditional ??CrossCallReturnLabel_52
        CFI (cfiCond311) R6 load(1, XDATA, add(CFA_XSP16, literal(-12)))
        CFI (cfiCond311) VB load(1, XDATA, add(CFA_XSP16, literal(-11)))
        CFI (cfiCond311) V0 load(1, XDATA, add(CFA_XSP16, literal(-10)))
        CFI (cfiCond311) V1 load(1, XDATA, add(CFA_XSP16, literal(-9)))
        CFI (cfiCond311) V2 load(1, XDATA, add(CFA_XSP16, literal(-8)))
        CFI (cfiCond311) V3 load(1, XDATA, add(CFA_XSP16, literal(-7)))
        CFI (cfiCond311) R7 load(1, XDATA, add(CFA_XSP16, literal(-6)))
        CFI (cfiCond311) ?RET_LOW load(1, XDATA, add(CFA_XSP16, literal(-5)))
        CFI (cfiCond311) ?RET_HIGH load(1, XDATA, add(CFA_XSP16, literal(-4)))
        CFI (cfiCond311) ?BRET_EXT load(1, XDATA, add(CFA_XSP16, literal(-3)))
        CFI (cfiCond311) DPL0 load(1, XDATA, add(CFA_XSP16, literal(-2)))
        CFI (cfiCond311) DPH0 load(1, XDATA, add(CFA_XSP16, literal(-1)))
        CFI (cfiCond311) CFA_SP SP+0
        CFI (cfiCond311) CFA_XSP16 add(XSP16, 90)
        CFI Block cfiPicker312 Using cfiCommon1
        CFI (cfiPicker312) NoFunction
        CFI (cfiPicker312) Picker
        MOV     R2,DPL
        MOV     R3,DPH
        LCALL   ??strlen?relay
        MOV     A,R2
        MOV     R4,A
        MOV     A,R3
        MOV     R5,A
        MOV     A,#0x26
        RET
        CFI EndBlock cfiCond310
        CFI EndBlock cfiCond311
        CFI EndBlock cfiPicker312

        RSEG BANKED_CODE:CODE:NOROOT(0)
?Subroutine23:
        CFI Block cfiCond313 Using cfiCommon0
        CFI NoFunction
        CFI Conditional ??CrossCallReturnLabel_46
        CFI R6 load(1, XDATA, add(CFA_XSP16, literal(-12)))
        CFI VB load(1, XDATA, add(CFA_XSP16, literal(-11)))
        CFI V0 load(1, XDATA, add(CFA_XSP16, literal(-10)))
        CFI V1 load(1, XDATA, add(CFA_XSP16, literal(-9)))
        CFI V2 load(1, XDATA, add(CFA_XSP16, literal(-8)))
        CFI V3 load(1, XDATA, add(CFA_XSP16, literal(-7)))
        CFI R7 load(1, XDATA, add(CFA_XSP16, literal(-6)))
        CFI ?RET_LOW load(1, XDATA, add(CFA_XSP16, literal(-5)))
        CFI ?RET_HIGH load(1, XDATA, add(CFA_XSP16, literal(-4)))
        CFI ?BRET_EXT load(1, XDATA, add(CFA_XSP16, literal(-3)))
        CFI DPL0 load(1, XDATA, add(CFA_XSP16, literal(-2)))
        CFI DPH0 load(1, XDATA, add(CFA_XSP16, literal(-1)))
        CFI CFA_SP SP+0
        CFI CFA_XSP16 add(XSP16, 16)
        CFI Block cfiCond314 Using cfiCommon0
        CFI (cfiCond314) NoFunction
        CFI (cfiCond314) Conditional ??CrossCallReturnLabel_47
        CFI (cfiCond314) R6 load(1, XDATA, add(CFA_XSP16, literal(-12)))
        CFI (cfiCond314) VB load(1, XDATA, add(CFA_XSP16, literal(-11)))
        CFI (cfiCond314) V0 load(1, XDATA, add(CFA_XSP16, literal(-10)))
        CFI (cfiCond314) V1 load(1, XDATA, add(CFA_XSP16, literal(-9)))
        CFI (cfiCond314) V2 load(1, XDATA, add(CFA_XSP16, literal(-8)))
        CFI (cfiCond314) V3 load(1, XDATA, add(CFA_XSP16, literal(-7)))
        CFI (cfiCond314) R7 load(1, XDATA, add(CFA_XSP16, literal(-6)))
        CFI (cfiCond314) ?RET_LOW load(1, XDATA, add(CFA_XSP16, literal(-5)))
        CFI (cfiCond314) ?RET_HIGH load(1, XDATA, add(CFA_XSP16, literal(-4)))
        CFI (cfiCond314) ?BRET_EXT load(1, XDATA, add(CFA_XSP16, literal(-3)))
        CFI (cfiCond314) DPL0 load(1, XDATA, add(CFA_XSP16, literal(-2)))
        CFI (cfiCond314) DPH0 load(1, XDATA, add(CFA_XSP16, literal(-1)))
        CFI (cfiCond314) CFA_SP SP+0
        CFI (cfiCond314) CFA_XSP16 add(XSP16, 90)
        CFI Block cfiCond315 Using cfiCommon0
        CFI (cfiCond315) NoFunction
        CFI (cfiCond315) Conditional ??CrossCallReturnLabel_48
        CFI (cfiCond315) R6 load(1, XDATA, add(CFA_XSP16, literal(-13)))
        CFI (cfiCond315) VB load(1, XDATA, add(CFA_XSP16, literal(-12)))
        CFI (cfiCond315) V0 load(1, XDATA, add(CFA_XSP16, literal(-11)))
        CFI (cfiCond315) V1 load(1, XDATA, add(CFA_XSP16, literal(-10)))
        CFI (cfiCond315) V2 load(1, XDATA, add(CFA_XSP16, literal(-9)))
        CFI (cfiCond315) V3 load(1, XDATA, add(CFA_XSP16, literal(-8)))
        CFI (cfiCond315) V4 load(1, XDATA, add(CFA_XSP16, literal(-7)))
        CFI (cfiCond315) R7 load(1, XDATA, add(CFA_XSP16, literal(-6)))
        CFI (cfiCond315) ?RET_LOW load(1, XDATA, add(CFA_XSP16, literal(-5)))
        CFI (cfiCond315) ?RET_HIGH load(1, XDATA, add(CFA_XSP16, literal(-4)))
        CFI (cfiCond315) ?BRET_EXT load(1, XDATA, add(CFA_XSP16, literal(-3)))
        CFI (cfiCond315) DPL0 load(1, XDATA, add(CFA_XSP16, literal(-2)))
        CFI (cfiCond315) DPH0 load(1, XDATA, add(CFA_XSP16, literal(-1)))
        CFI (cfiCond315) CFA_SP SP+0
        CFI (cfiCond315) CFA_XSP16 add(XSP16, 13)
        CFI Block cfiPicker316 Using cfiCommon1
        CFI (cfiPicker316) NoFunction
        CFI (cfiPicker316) Picker
        MOV     A,R6
        ADD     A,#0x1
        INC     R6
        MOV     A,R7
        ADDC    A,#0x0
        MOV     R7,A
        RET
        CFI EndBlock cfiCond313
        CFI EndBlock cfiCond314
        CFI EndBlock cfiCond315
        CFI EndBlock cfiPicker316

        RSEG BANKED_CODE:CODE:NOROOT(0)
?Subroutine21:
        CFI Block cfiCond317 Using cfiCommon0
        CFI NoFunction
        CFI Conditional ??CrossCallReturnLabel_42
        CFI R6 load(1, XDATA, add(CFA_XSP16, literal(-12)))
        CFI VB load(1, XDATA, add(CFA_XSP16, literal(-11)))
        CFI V0 load(1, XDATA, add(CFA_XSP16, literal(-10)))
        CFI V1 load(1, XDATA, add(CFA_XSP16, literal(-9)))
        CFI V2 load(1, XDATA, add(CFA_XSP16, literal(-8)))
        CFI V3 load(1, XDATA, add(CFA_XSP16, literal(-7)))
        CFI R7 load(1, XDATA, add(CFA_XSP16, literal(-6)))
        CFI ?RET_LOW load(1, XDATA, add(CFA_XSP16, literal(-5)))
        CFI ?RET_HIGH load(1, XDATA, add(CFA_XSP16, literal(-4)))
        CFI ?BRET_EXT load(1, XDATA, add(CFA_XSP16, literal(-3)))
        CFI DPL0 load(1, XDATA, add(CFA_XSP16, literal(-2)))
        CFI DPH0 load(1, XDATA, add(CFA_XSP16, literal(-1)))
        CFI CFA_SP SP+0
        CFI CFA_XSP16 add(XSP16, 16)
        CFI Block cfiCond318 Using cfiCommon0
        CFI (cfiCond318) NoFunction
        CFI (cfiCond318) Conditional ??CrossCallReturnLabel_43
        CFI (cfiCond318) R6 load(1, XDATA, add(CFA_XSP16, literal(-12)))
        CFI (cfiCond318) VB load(1, XDATA, add(CFA_XSP16, literal(-11)))
        CFI (cfiCond318) V0 load(1, XDATA, add(CFA_XSP16, literal(-10)))
        CFI (cfiCond318) V1 load(1, XDATA, add(CFA_XSP16, literal(-9)))
        CFI (cfiCond318) V2 load(1, XDATA, add(CFA_XSP16, literal(-8)))
        CFI (cfiCond318) V3 load(1, XDATA, add(CFA_XSP16, literal(-7)))
        CFI (cfiCond318) R7 load(1, XDATA, add(CFA_XSP16, literal(-6)))
        CFI (cfiCond318) ?RET_LOW load(1, XDATA, add(CFA_XSP16, literal(-5)))
        CFI (cfiCond318) ?RET_HIGH load(1, XDATA, add(CFA_XSP16, literal(-4)))
        CFI (cfiCond318) ?BRET_EXT load(1, XDATA, add(CFA_XSP16, literal(-3)))
        CFI (cfiCond318) DPL0 load(1, XDATA, add(CFA_XSP16, literal(-2)))
        CFI (cfiCond318) DPH0 load(1, XDATA, add(CFA_XSP16, literal(-1)))
        CFI (cfiCond318) CFA_SP SP+0
        CFI (cfiCond318) CFA_XSP16 add(XSP16, 90)
        CFI Block cfiPicker319 Using cfiCommon1
        CFI (cfiPicker319) NoFunction
        CFI (cfiPicker319) Picker
        MOV     A,R6
        MOV     R0,A
        MOV     A,R7
        MOV     R1,A
        MOV     A,R0
        MOV     B,#0x1e
        MUL     AB
        MOV     R0,A
        MOV     R2,B
        MOV     B,#0x1e
        MOV     A,R1
        MUL     AB
        ADD     A,R2
        MOV     R1,A
        MOV     A,R0
        ADD     A,#((point_info + 25) & 0xff)
        MOV     R4,A
        MOV     A,R1
        ADDC    A,#(((point_info + 25) >> 8) & 0xff)
        MOV     R5,A
        MOV     DPL,?XSP + 0
        MOV     DPH,?XSP + 1
        MOV     R2,DPL
        MOV     R3,DPH
        LCALL   ??strcmp?relay
        MOV     A,R2
        RET
        CFI EndBlock cfiCond317
        CFI EndBlock cfiCond318
        CFI EndBlock cfiPicker319

        RSEG BANKED_CODE:CODE:NOROOT(0)
?Subroutine20:
        CFI Block cfiCond320 Using cfiCommon0
        CFI NoFunction
        CFI Conditional ??CrossCallReturnLabel_38
        CFI R6 load(1, XDATA, add(CFA_XSP16, literal(-12)))
        CFI VB load(1, XDATA, add(CFA_XSP16, literal(-11)))
        CFI V0 load(1, XDATA, add(CFA_XSP16, literal(-10)))
        CFI V1 load(1, XDATA, add(CFA_XSP16, literal(-9)))
        CFI V2 load(1, XDATA, add(CFA_XSP16, literal(-8)))
        CFI V3 load(1, XDATA, add(CFA_XSP16, literal(-7)))
        CFI R7 load(1, XDATA, add(CFA_XSP16, literal(-6)))
        CFI ?RET_LOW load(1, XDATA, add(CFA_XSP16, literal(-5)))
        CFI ?RET_HIGH load(1, XDATA, add(CFA_XSP16, literal(-4)))
        CFI ?BRET_EXT load(1, XDATA, add(CFA_XSP16, literal(-3)))
        CFI DPL0 load(1, XDATA, add(CFA_XSP16, literal(-2)))
        CFI DPH0 load(1, XDATA, add(CFA_XSP16, literal(-1)))
        CFI CFA_SP SP+0
        CFI CFA_XSP16 add(XSP16, 90)
        CFI Block cfiCond321 Using cfiCommon0
        CFI (cfiCond321) NoFunction
        CFI (cfiCond321) Conditional ??CrossCallReturnLabel_39
        CFI (cfiCond321) R6 load(1, XDATA, add(CFA_XSP16, literal(-12)))
        CFI (cfiCond321) VB load(1, XDATA, add(CFA_XSP16, literal(-11)))
        CFI (cfiCond321) V0 load(1, XDATA, add(CFA_XSP16, literal(-10)))
        CFI (cfiCond321) V1 load(1, XDATA, add(CFA_XSP16, literal(-9)))
        CFI (cfiCond321) V2 load(1, XDATA, add(CFA_XSP16, literal(-8)))
        CFI (cfiCond321) V3 load(1, XDATA, add(CFA_XSP16, literal(-7)))
        CFI (cfiCond321) R7 load(1, XDATA, add(CFA_XSP16, literal(-6)))
        CFI (cfiCond321) ?RET_LOW load(1, XDATA, add(CFA_XSP16, literal(-5)))
        CFI (cfiCond321) ?RET_HIGH load(1, XDATA, add(CFA_XSP16, literal(-4)))
        CFI (cfiCond321) ?BRET_EXT load(1, XDATA, add(CFA_XSP16, literal(-3)))
        CFI (cfiCond321) DPL0 load(1, XDATA, add(CFA_XSP16, literal(-2)))
        CFI (cfiCond321) DPH0 load(1, XDATA, add(CFA_XSP16, literal(-1)))
        CFI (cfiCond321) CFA_SP SP+0
        CFI (cfiCond321) CFA_XSP16 add(XSP16, 92)
        CFI Block cfiCond322 Using cfiCommon0
        CFI (cfiCond322) NoFunction
        CFI (cfiCond322) Conditional ??CrossCallReturnLabel_40
        CFI (cfiCond322) R6 load(1, XDATA, add(CFA_XSP16, literal(-12)))
        CFI (cfiCond322) VB load(1, XDATA, add(CFA_XSP16, literal(-11)))
        CFI (cfiCond322) V0 load(1, XDATA, add(CFA_XSP16, literal(-10)))
        CFI (cfiCond322) V1 load(1, XDATA, add(CFA_XSP16, literal(-9)))
        CFI (cfiCond322) V2 load(1, XDATA, add(CFA_XSP16, literal(-8)))
        CFI (cfiCond322) V3 load(1, XDATA, add(CFA_XSP16, literal(-7)))
        CFI (cfiCond322) R7 load(1, XDATA, add(CFA_XSP16, literal(-6)))
        CFI (cfiCond322) ?RET_LOW load(1, XDATA, add(CFA_XSP16, literal(-5)))
        CFI (cfiCond322) ?RET_HIGH load(1, XDATA, add(CFA_XSP16, literal(-4)))
        CFI (cfiCond322) ?BRET_EXT load(1, XDATA, add(CFA_XSP16, literal(-3)))
        CFI (cfiCond322) DPL0 load(1, XDATA, add(CFA_XSP16, literal(-2)))
        CFI (cfiCond322) DPH0 load(1, XDATA, add(CFA_XSP16, literal(-1)))
        CFI (cfiCond322) CFA_SP SP+0
        CFI (cfiCond322) CFA_XSP16 add(XSP16, 94)
        CFI Block cfiCond323 Using cfiCommon0
        CFI (cfiCond323) NoFunction
        CFI (cfiCond323) Conditional ??CrossCallReturnLabel_41
        CFI (cfiCond323) R6 load(1, XDATA, add(CFA_XSP16, literal(-12)))
        CFI (cfiCond323) VB load(1, XDATA, add(CFA_XSP16, literal(-11)))
        CFI (cfiCond323) V0 load(1, XDATA, add(CFA_XSP16, literal(-10)))
        CFI (cfiCond323) V1 load(1, XDATA, add(CFA_XSP16, literal(-9)))
        CFI (cfiCond323) V2 load(1, XDATA, add(CFA_XSP16, literal(-8)))
        CFI (cfiCond323) V3 load(1, XDATA, add(CFA_XSP16, literal(-7)))
        CFI (cfiCond323) R7 load(1, XDATA, add(CFA_XSP16, literal(-6)))
        CFI (cfiCond323) ?RET_LOW load(1, XDATA, add(CFA_XSP16, literal(-5)))
        CFI (cfiCond323) ?RET_HIGH load(1, XDATA, add(CFA_XSP16, literal(-4)))
        CFI (cfiCond323) ?BRET_EXT load(1, XDATA, add(CFA_XSP16, literal(-3)))
        CFI (cfiCond323) DPL0 load(1, XDATA, add(CFA_XSP16, literal(-2)))
        CFI (cfiCond323) DPH0 load(1, XDATA, add(CFA_XSP16, literal(-1)))
        CFI (cfiCond323) CFA_SP SP+0
        CFI (cfiCond323) CFA_XSP16 add(XSP16, 96)
        CFI Block cfiPicker324 Using cfiCommon1
        CFI (cfiPicker324) NoFunction
        CFI (cfiPicker324) Picker
        MOV     ?V0 + 2,A
        MOV     A,?V0 + 1
        ADDC    A,#0x0
        MOV     ?V0 + 3,A
        MOV     R0,#?V0 + 2
        RET
        CFI EndBlock cfiCond320
        CFI EndBlock cfiCond321
        CFI EndBlock cfiCond322
        CFI EndBlock cfiCond323
        CFI EndBlock cfiPicker324

        RSEG BANKED_CODE:CODE:NOROOT(0)
?Subroutine13:
        CFI Block cfiCond325 Using cfiCommon0
        CFI NoFunction
        CFI Conditional ??CrossCallReturnLabel_27
        CFI R6 load(1, XDATA, add(CFA_XSP16, literal(-12)))
        CFI VB load(1, XDATA, add(CFA_XSP16, literal(-11)))
        CFI V0 load(1, XDATA, add(CFA_XSP16, literal(-10)))
        CFI V1 load(1, XDATA, add(CFA_XSP16, literal(-9)))
        CFI V2 load(1, XDATA, add(CFA_XSP16, literal(-8)))
        CFI V3 load(1, XDATA, add(CFA_XSP16, literal(-7)))
        CFI R7 load(1, XDATA, add(CFA_XSP16, literal(-6)))
        CFI ?RET_LOW load(1, XDATA, add(CFA_XSP16, literal(-5)))
        CFI ?RET_HIGH load(1, XDATA, add(CFA_XSP16, literal(-4)))
        CFI ?BRET_EXT load(1, XDATA, add(CFA_XSP16, literal(-3)))
        CFI DPL0 load(1, XDATA, add(CFA_XSP16, literal(-2)))
        CFI DPH0 load(1, XDATA, add(CFA_XSP16, literal(-1)))
        CFI CFA_SP SP+0
        CFI CFA_XSP16 add(XSP16, 16)
        CFI Block cfiCond326 Using cfiCommon0
        CFI (cfiCond326) NoFunction
        CFI (cfiCond326) Conditional ??CrossCallReturnLabel_28
        CFI (cfiCond326) R6 load(1, XDATA, add(CFA_XSP16, literal(-12)))
        CFI (cfiCond326) VB load(1, XDATA, add(CFA_XSP16, literal(-11)))
        CFI (cfiCond326) V0 load(1, XDATA, add(CFA_XSP16, literal(-10)))
        CFI (cfiCond326) V1 load(1, XDATA, add(CFA_XSP16, literal(-9)))
        CFI (cfiCond326) V2 load(1, XDATA, add(CFA_XSP16, literal(-8)))
        CFI (cfiCond326) V3 load(1, XDATA, add(CFA_XSP16, literal(-7)))
        CFI (cfiCond326) R7 load(1, XDATA, add(CFA_XSP16, literal(-6)))
        CFI (cfiCond326) ?RET_LOW load(1, XDATA, add(CFA_XSP16, literal(-5)))
        CFI (cfiCond326) ?RET_HIGH load(1, XDATA, add(CFA_XSP16, literal(-4)))
        CFI (cfiCond326) ?BRET_EXT load(1, XDATA, add(CFA_XSP16, literal(-3)))
        CFI (cfiCond326) DPL0 load(1, XDATA, add(CFA_XSP16, literal(-2)))
        CFI (cfiCond326) DPH0 load(1, XDATA, add(CFA_XSP16, literal(-1)))
        CFI (cfiCond326) CFA_SP SP+0
        CFI (cfiCond326) CFA_XSP16 add(XSP16, 90)
        CFI Block cfiCond327 Using cfiCommon0
        CFI (cfiCond327) NoFunction
        CFI (cfiCond327) Conditional ??CrossCallReturnLabel_29
        CFI (cfiCond327) R6 load(1, XDATA, add(CFA_XSP16, literal(-12)))
        CFI (cfiCond327) VB load(1, XDATA, add(CFA_XSP16, literal(-11)))
        CFI (cfiCond327) V0 load(1, XDATA, add(CFA_XSP16, literal(-10)))
        CFI (cfiCond327) V1 load(1, XDATA, add(CFA_XSP16, literal(-9)))
        CFI (cfiCond327) V2 load(1, XDATA, add(CFA_XSP16, literal(-8)))
        CFI (cfiCond327) V3 load(1, XDATA, add(CFA_XSP16, literal(-7)))
        CFI (cfiCond327) R7 load(1, XDATA, add(CFA_XSP16, literal(-6)))
        CFI (cfiCond327) ?RET_LOW load(1, XDATA, add(CFA_XSP16, literal(-5)))
        CFI (cfiCond327) ?RET_HIGH load(1, XDATA, add(CFA_XSP16, literal(-4)))
        CFI (cfiCond327) ?BRET_EXT load(1, XDATA, add(CFA_XSP16, literal(-3)))
        CFI (cfiCond327) DPL0 load(1, XDATA, add(CFA_XSP16, literal(-2)))
        CFI (cfiCond327) DPH0 load(1, XDATA, add(CFA_XSP16, literal(-1)))
        CFI (cfiCond327) CFA_SP SP+0
        CFI (cfiCond327) CFA_XSP16 add(XSP16, 90)
        CFI Block cfiPicker328 Using cfiCommon1
        CFI (cfiPicker328) NoFunction
        CFI (cfiPicker328) Picker
        MOV     DPTR,#point_num
        MOVX    A,@DPTR
        MOV     R0,A
        INC     DPTR
        MOVX    A,@DPTR
        MOV     R1,A
        CLR     C
        MOV     A,R6
        SUBB    A,R0
        MOV     A,R7
        SUBB    A,R1
        MOV     C,0xD0 /* PSW */.2
        XRL     A,PSW
        RLC     A
        RET
        CFI EndBlock cfiCond325
        CFI EndBlock cfiCond326
        CFI EndBlock cfiCond327
        CFI EndBlock cfiPicker328
//  950 
//  951 //------------------------------------------------------------------------------
//  952 // xiaoyang add @2011-5-25
//  953 //------------------------------------------------------------------------------
//  954 
//  955 /******************************************************************************
//  956  * CONSTANTS
//  957  */
//  958 //BUFFER buffer;
//  959 
//  960 /******************************************************************************
//  961 * @fn  initUART
//  962 *
//  963 * @brief
//  964 *      Initializes components for the UART application example.
//  965 *
//  966 * Parameters:
//  967 *
//  968 * @param  void
//  969 *
//  970 * @return void
//  971 *
//  972 ******************************************************************************/

        RSEG BANKED_CODE:CODE:NOROOT(0)
//  973 void UART_SETUP(char uart,int baudRate,char options)  
UART_SETUP:
        CFI Block cfiBlock329 Using cfiCommon0
        CFI Function UART_SETUP
//  974 {
        MOV     A,#-0xc
        LCALL   ?BANKED_ENTER_XDATA
        CFI DPH0 load(1, XDATA, add(CFA_XSP16, literal(-1)))
        CFI DPL0 load(1, XDATA, add(CFA_XSP16, literal(-2)))
        CFI ?BRET_EXT load(1, XDATA, add(CFA_XSP16, literal(-3)))
        CFI ?RET_HIGH load(1, XDATA, add(CFA_XSP16, literal(-4)))
        CFI ?RET_LOW load(1, XDATA, add(CFA_XSP16, literal(-5)))
        CFI R7 load(1, XDATA, add(CFA_XSP16, literal(-6)))
        CFI V3 load(1, XDATA, add(CFA_XSP16, literal(-7)))
        CFI V2 load(1, XDATA, add(CFA_XSP16, literal(-8)))
        CFI V1 load(1, XDATA, add(CFA_XSP16, literal(-9)))
        CFI V0 load(1, XDATA, add(CFA_XSP16, literal(-10)))
        CFI VB load(1, XDATA, add(CFA_XSP16, literal(-11)))
        CFI R6 load(1, XDATA, add(CFA_XSP16, literal(-12)))
        CFI CFA_SP SP+0
        CFI CFA_XSP16 add(XSP16, 12)
        ; Saved register size: 12
        ; Auto size: 0
//  975     if ((options) & FLOW_CONTROL_ENABLE){      
        MOV     A,R4
        MOV     C,0xE0 /* A   */.6
        MOV     A,0xf1
        JNC     ??UART_SETUP_0
//  976         if(PERCFG & 0x01){ /* Alt 2        */
        MOV     C,0xE0 /* A   */.0
        JNC     ??UART_SETUP_1
//  977            P1SEL |= 0x3C;                    
        ORL     0xf4,#0x3c
??UART_SETUP_2:
        MOV     A,0xf4
        SJMP    ??UART_SETUP_3
//  978         } else {           /* Alt 1        */
//  979            P0SEL |= 0x3C;                    
??UART_SETUP_1:
        ORL     0xf3,#0x3c
        SJMP    ??UART_SETUP_4
//  980         }                                                                         
//  981     }                                          
//  982     else{                    
//  983         if(PERCFG & 0x01){ /* Alt 2        */
??UART_SETUP_0:
        MOV     C,0xE0 /* A   */.0
        JNC     ??UART_SETUP_5
//  984            P1SEL |= 0x30;                    
        ORL     0xf4,#0x30
        SJMP    ??UART_SETUP_2
//  985         } else {           /* Alt 1        */
//  986            P0SEL |= 0x0C;                    
??UART_SETUP_5:
        ORL     0xf3,#0xc
??UART_SETUP_4:
        MOV     A,0xf3
//  987         }                                                                                                    
//  988     }   
//  989     
//  990     U0GCR = BAUD_E((baudRate), CLKSPD);
??UART_SETUP_3:
        MOV     A,#0x60
        XRL     A,R2
        JNZ     ??UART_SETUP_6
        MOV     A,#0x9
        XRL     A,R3
??UART_SETUP_6:
        JNZ     ??UART_SETUP_7
        MOV     A,0xc6
        MOV     C,0xE0 /* A   */.0
        CLR     A
        MOV     0xE0 /* A   */.0,C
        ADD     A,#0x6
        LJMP    ??UART_SETUP_8 & 0xFFFF
??UART_SETUP_7:
        MOV     A,#-0x40
        XRL     A,R2
        JNZ     ??UART_SETUP_9
        MOV     A,#0x12
        XRL     A,R3
??UART_SETUP_9:
        JNZ     ??UART_SETUP_10
        MOV     A,0xc6
        MOV     C,0xE0 /* A   */.0
        CLR     A
        MOV     0xE0 /* A   */.0,C
        ADD     A,#0x7
        LJMP    ??UART_SETUP_11 & 0xFFFF
??UART_SETUP_10:
        MOV     A,#-0x80
        XRL     A,R2
        JNZ     ??UART_SETUP_12
        MOV     A,#0x25
        XRL     A,R3
??UART_SETUP_12:
        JNZ     ??UART_SETUP_13
        MOV     A,0xc6
        MOV     C,0xE0 /* A   */.0
        CLR     A
        MOV     0xE0 /* A   */.0,C
        ADD     A,#0x8
        LJMP    ??UART_SETUP_14 & 0xFFFF
??UART_SETUP_13:
        MOV     A,#0x40
        XRL     A,R2
        JNZ     ??UART_SETUP_15
        MOV     A,#0x38
        XRL     A,R3
??UART_SETUP_15:
        JNZ     ??UART_SETUP_16
        MOV     A,0xc6
        MOV     C,0xE0 /* A   */.0
        CLR     A
        MOV     0xE0 /* A   */.0,C
        ADD     A,#0x8
        LJMP    ??UART_SETUP_17 & 0xFFFF
??UART_SETUP_16:
        MOV     A,R2
        JNZ     ??UART_SETUP_18
        MOV     A,#0x4b
        XRL     A,R3
??UART_SETUP_18:
        JNZ     ??UART_SETUP_19
        MOV     A,0xc6
        MOV     C,0xE0 /* A   */.0
        CLR     A
        MOV     0xE0 /* A   */.0,C
        ADD     A,#0x9
        LJMP    ??UART_SETUP_20 & 0xFFFF
??UART_SETUP_19:
        MOV     A,#-0x80
        XRL     A,R2
        JNZ     ??UART_SETUP_21
        MOV     A,#0x70
        XRL     A,R3
??UART_SETUP_21:
        JNZ     ??UART_SETUP_22
        MOV     A,0xc6
        MOV     C,0xE0 /* A   */.0
        CLR     A
        MOV     0xE0 /* A   */.0,C
        ADD     A,#0x9
        LJMP    ??UART_SETUP_23 & 0xFFFF
??UART_SETUP_22:
        LCALL   ?Subroutine24 & 0xFFFF
??CrossCallReturnLabel_49:
        LCALL   ?L_EQ_X
        JNZ     ??UART_SETUP_24
        MOV     A,0xc6
        MOV     C,0xE0 /* A   */.0
        CLR     A
        MOV     0xE0 /* A   */.0,C
        ADD     A,#0xa
        LJMP    ??UART_SETUP_25 & 0xFFFF
??UART_SETUP_24:
        MOV     A,R3
        RLC     A
        SUBB    A,0xE0 /* A   */
        MOV     DPTR,#__Constant_e100
        MOV     R0,#?V0 + 0
        LCALL   ?L_EQ_X
        JNZ     ??UART_SETUP_26
        MOV     A,0xc6
        MOV     C,0xE0 /* A   */.0
        CLR     A
        MOV     0xE0 /* A   */.0,C
        ADD     A,#0xa
        LJMP    ??UART_SETUP_27 & 0xFFFF
??UART_SETUP_26:
        MOV     A,R3
        RLC     A
        SUBB    A,0xE0 /* A   */
        MOV     DPTR,#__Constant_12c00
        MOV     R0,#?V0 + 0
        LCALL   ?L_EQ_X
        JNZ     ??UART_SETUP_28
        MOV     A,0xc6
        MOV     C,0xE0 /* A   */.0
        CLR     A
        MOV     0xE0 /* A   */.0,C
        ADD     A,#0xb
        SJMP    ??UART_SETUP_29
??UART_SETUP_28:
        MOV     A,R3
        RLC     A
        SUBB    A,0xE0 /* A   */
        MOV     DPTR,#__Constant_1c200
        MOV     R0,#?V0 + 0
        LCALL   ?L_EQ_X
        JNZ     ??UART_SETUP_30
        MOV     A,0xc6
        MOV     C,0xE0 /* A   */.0
        CLR     A
        MOV     0xE0 /* A   */.0,C
        ADD     A,#0xb
        SJMP    ??UART_SETUP_31
??UART_SETUP_30:
        MOV     A,R3
        RLC     A
        SUBB    A,0xE0 /* A   */
        MOV     DPTR,#__Constant_25800
        MOV     R0,#?V0 + 0
        LCALL   ?L_EQ_X
        JNZ     ??UART_SETUP_32
        MOV     A,0xc6
        MOV     C,0xE0 /* A   */.0
        CLR     A
        MOV     0xE0 /* A   */.0,C
        ADD     A,#0xc
        SJMP    ??UART_SETUP_33
??UART_SETUP_32:
        MOV     A,R3
        RLC     A
        SUBB    A,0xE0 /* A   */
        MOV     DPTR,#__Constant_38400
        MOV     R0,#?V0 + 0
        LCALL   ?L_EQ_X
        JNZ     ??UART_SETUP_34
        MOV     A,0xc6
        MOV     C,0xE0 /* A   */.0
        CLR     A
        MOV     0xE0 /* A   */.0,C
        ADD     A,#0xc
        SJMP    ??UART_SETUP_35
??UART_SETUP_34:
        MOV     A,R3
        RLC     A
        SUBB    A,0xE0 /* A   */
        MOV     DPTR,#__Constant_4b000
        MOV     R0,#?V0 + 0
        LCALL   ?L_EQ_X
        JNZ     ??UART_SETUP_36
        MOV     A,0xc6
        MOV     C,0xE0 /* A   */.0
        CLR     A
        MOV     0xE0 /* A   */.0,C
        ADD     A,#0xd
        MOV     R5,A
        SJMP    ??UART_SETUP_37
??UART_SETUP_36:
        MOV     R5,#0x0
??UART_SETUP_37:
        MOV     A,R5
??UART_SETUP_35:
        MOV     R6,A
        MOV     A,R6
??UART_SETUP_33:
        MOV     R5,A
        MOV     A,R5
??UART_SETUP_31:
        MOV     R6,A
        MOV     A,R6
??UART_SETUP_29:
        MOV     R5,A
        MOV     A,R5
??UART_SETUP_27:
        MOV     R6,A
        MOV     A,R6
??UART_SETUP_25:
        MOV     R5,A
        MOV     A,R5
??UART_SETUP_23:
        MOV     R6,A
        MOV     A,R6
??UART_SETUP_20:
        MOV     R5,A
        MOV     A,R5
??UART_SETUP_17:
        MOV     R6,A
        MOV     A,R6
??UART_SETUP_14:
        MOV     R5,A
        MOV     A,R5
??UART_SETUP_11:
        MOV     R6,A
        MOV     A,R6
??UART_SETUP_8:
        MOV     R5,A
        MOV     0xc5,R5
//  991     U0BAUD = BAUD_M(baudRate);
        MOV     A,#0x60
        XRL     A,R2
        JNZ     ??UART_SETUP_38
        MOV     A,#0x9
        XRL     A,R3
??UART_SETUP_38:
        JNZ     ??UART_SETUP_39
        MOV     R2,#0x3b
        LJMP    ??UART_SETUP_40 & 0xFFFF
??UART_SETUP_39:
        MOV     A,#-0x40
        XRL     A,R2
        JNZ     ??UART_SETUP_41
        MOV     A,#0x12
        XRL     A,R3
??UART_SETUP_41:
        JNZ     ??UART_SETUP_42
        MOV     R3,#0x3b
        LJMP    ??UART_SETUP_43 & 0xFFFF
??UART_SETUP_42:
        MOV     A,#-0x80
        XRL     A,R2
        JNZ     ??UART_SETUP_44
        MOV     A,#0x25
        XRL     A,R3
??UART_SETUP_44:
        JNZ     ??UART_SETUP_45
        MOV     R2,#0x3b
        LJMP    ??UART_SETUP_46 & 0xFFFF
??UART_SETUP_45:
        MOV     A,#0x40
        XRL     A,R2
        JNZ     ??UART_SETUP_47
        MOV     A,#0x38
        XRL     A,R3
??UART_SETUP_47:
        JNZ     ??UART_SETUP_48
        MOV     R3,#-0x28
        LJMP    ??UART_SETUP_49 & 0xFFFF
??UART_SETUP_48:
        MOV     A,R2
        JNZ     ??UART_SETUP_50
        MOV     A,#0x4b
        XRL     A,R3
??UART_SETUP_50:
        JNZ     ??UART_SETUP_51
        MOV     R2,#0x3b
        LJMP    ??UART_SETUP_52 & 0xFFFF
??UART_SETUP_51:
        MOV     A,#-0x80
        XRL     A,R2
        JNZ     ??UART_SETUP_53
        MOV     A,#0x70
        XRL     A,R3
??UART_SETUP_53:
        JNZ     ??UART_SETUP_54
        MOV     R3,#-0x28
        SJMP    ??UART_SETUP_55
??UART_SETUP_54:
        LCALL   ?Subroutine24 & 0xFFFF
??CrossCallReturnLabel_50:
        LCALL   ?L_EQ_X
        JNZ     ??UART_SETUP_56
        MOV     R2,#0x3b
        SJMP    ??UART_SETUP_57
??UART_SETUP_56:
        MOV     DPTR,#__Constant_e100
        MOV     R0,#?V0 + 0
        LCALL   ?L_EQ_X
        JNZ     ??UART_SETUP_58
        MOV     R3,#-0x28
        SJMP    ??UART_SETUP_59
??UART_SETUP_58:
        MOV     DPTR,#__Constant_12c00
        MOV     R0,#?V0 + 0
        LCALL   ?L_EQ_X
        JNZ     ??UART_SETUP_60
        MOV     R2,#0x3b
        SJMP    ??UART_SETUP_61
??UART_SETUP_60:
        MOV     DPTR,#__Constant_1c200
        MOV     R0,#?V0 + 0
        LCALL   ?L_EQ_X
        JNZ     ??UART_SETUP_62
        MOV     R3,#-0x28
        SJMP    ??UART_SETUP_63
??UART_SETUP_62:
        MOV     DPTR,#__Constant_25800
        MOV     R0,#?V0 + 0
        LCALL   ?L_EQ_X
        JNZ     ??UART_SETUP_64
        MOV     R2,#0x3b
        SJMP    ??UART_SETUP_65
??UART_SETUP_64:
        MOV     DPTR,#__Constant_38400
        MOV     R0,#?V0 + 0
        LCALL   ?L_EQ_X
        JNZ     ??UART_SETUP_66
        MOV     R3,#-0x28
        SJMP    ??UART_SETUP_67
??UART_SETUP_66:
        MOV     DPTR,#__Constant_4b000
        MOV     R0,#?V0 + 0
        LCALL   ?L_EQ_X
        JNZ     ??UART_SETUP_68
        MOV     R2,#0x3b
        SJMP    ??UART_SETUP_69
??UART_SETUP_68:
        MOV     R2,#0x0
??UART_SETUP_69:
        MOV     A,R2
        MOV     R3,A
??UART_SETUP_67:
        MOV     A,R3
        MOV     R2,A
??UART_SETUP_65:
        MOV     A,R2
        MOV     R3,A
??UART_SETUP_63:
        MOV     A,R3
        MOV     R2,A
??UART_SETUP_61:
        MOV     A,R2
        MOV     R3,A
??UART_SETUP_59:
        MOV     A,R3
        MOV     R2,A
??UART_SETUP_57:
        MOV     A,R2
        MOV     R3,A
??UART_SETUP_55:
        MOV     A,R3
        MOV     R2,A
??UART_SETUP_52:
        MOV     A,R2
        MOV     R3,A
??UART_SETUP_49:
        MOV     A,R3
        MOV     R2,A
??UART_SETUP_46:
        MOV     A,R2
        MOV     R3,A
??UART_SETUP_43:
        MOV     A,R3
        MOV     R2,A
??UART_SETUP_40:
        MOV     0xc2,R2
//  992     U0UCR = ((options) | 0x80);
        MOV     A,#-0x80
        ORL     A,R4
        MOV     0xc4,A
//  993     U0CSR = 0x80;
        MOV     0x86,#-0x80
//  994                              
//  995     if((options) & TRANSFER_MSB_FIRST){        
        MOV     A,R4
        MOV     C,0xE0 /* A   */.7
        JNC     ??UART_SETUP_70
//  996        U0GCR |= 0x20;                   
        ORL     0xc5,#0x20
//  997     }
//  998 }
??UART_SETUP_70:
        LJMP    ??Subroutine40_0 & 0xFFFF
        CFI EndBlock cfiBlock329
        REQUIRE U0CSR
        REQUIRE U0BAUD
        REQUIRE U0UCR
        REQUIRE U0GCR
        REQUIRE CLKCON
        REQUIRE PERCFG
        REQUIRE P0SEL
        REQUIRE P1SEL

        RSEG BANKED_CODE:CODE:NOROOT(0)
?Subroutine24:
        CFI Block cfiCond330 Using cfiCommon0
        CFI NoFunction
        CFI Conditional ??CrossCallReturnLabel_49
        CFI R6 load(1, XDATA, add(CFA_XSP16, literal(-12)))
        CFI VB load(1, XDATA, add(CFA_XSP16, literal(-11)))
        CFI V0 load(1, XDATA, add(CFA_XSP16, literal(-10)))
        CFI V1 load(1, XDATA, add(CFA_XSP16, literal(-9)))
        CFI V2 load(1, XDATA, add(CFA_XSP16, literal(-8)))
        CFI V3 load(1, XDATA, add(CFA_XSP16, literal(-7)))
        CFI R7 load(1, XDATA, add(CFA_XSP16, literal(-6)))
        CFI ?RET_LOW load(1, XDATA, add(CFA_XSP16, literal(-5)))
        CFI ?RET_HIGH load(1, XDATA, add(CFA_XSP16, literal(-4)))
        CFI ?BRET_EXT load(1, XDATA, add(CFA_XSP16, literal(-3)))
        CFI DPL0 load(1, XDATA, add(CFA_XSP16, literal(-2)))
        CFI DPH0 load(1, XDATA, add(CFA_XSP16, literal(-1)))
        CFI CFA_SP SP+0
        CFI CFA_XSP16 add(XSP16, 12)
        CFI Block cfiCond331 Using cfiCommon0
        CFI (cfiCond331) NoFunction
        CFI (cfiCond331) Conditional ??CrossCallReturnLabel_50
        CFI (cfiCond331) R6 load(1, XDATA, add(CFA_XSP16, literal(-12)))
        CFI (cfiCond331) VB load(1, XDATA, add(CFA_XSP16, literal(-11)))
        CFI (cfiCond331) V0 load(1, XDATA, add(CFA_XSP16, literal(-10)))
        CFI (cfiCond331) V1 load(1, XDATA, add(CFA_XSP16, literal(-9)))
        CFI (cfiCond331) V2 load(1, XDATA, add(CFA_XSP16, literal(-8)))
        CFI (cfiCond331) V3 load(1, XDATA, add(CFA_XSP16, literal(-7)))
        CFI (cfiCond331) R7 load(1, XDATA, add(CFA_XSP16, literal(-6)))
        CFI (cfiCond331) ?RET_LOW load(1, XDATA, add(CFA_XSP16, literal(-5)))
        CFI (cfiCond331) ?RET_HIGH load(1, XDATA, add(CFA_XSP16, literal(-4)))
        CFI (cfiCond331) ?BRET_EXT load(1, XDATA, add(CFA_XSP16, literal(-3)))
        CFI (cfiCond331) DPL0 load(1, XDATA, add(CFA_XSP16, literal(-2)))
        CFI (cfiCond331) DPH0 load(1, XDATA, add(CFA_XSP16, literal(-1)))
        CFI (cfiCond331) CFA_SP SP+0
        CFI (cfiCond331) CFA_XSP16 add(XSP16, 12)
        CFI Block cfiPicker332 Using cfiCommon1
        CFI (cfiPicker332) NoFunction
        CFI (cfiPicker332) Picker
        MOV     ?V0 + 0,R2
        MOV     A,R3
        MOV     ?V0 + 1,A
        RLC     A
        SUBB    A,0xE0 /* A   */
        MOV     ?V0 + 2,A
        MOV     ?V0 + 3,A
        MOV     DPTR,#__Constant_9600
        MOV     R0,#?V0 + 0
        RET
        CFI EndBlock cfiCond330
        CFI EndBlock cfiCond331
        CFI EndBlock cfiPicker332
//  999 /*
// 1000 void initUART(void)
// 1001 {
// 1002    // Setup for UART0
// 1003    IO_PER_LOC_USART0_AT_PORT0_PIN2345();
// 1004 
// 1005    //设置波特率和传输模式
// 1006    UART_SETUP(0, 9600, HIGH_STOP);
// 1007    
// 1008    UTX0IF = 1;
// 1009 }
// 1010 */
// 1011 // Global interrupt enables
// 1012 #define INT_GLOBAL_ENABLE(on) EA=(!!on)
// 1013 

        RSEG BANKED_CODE:CODE:NOROOT(0)
// 1014 void UART0ISRopen(void)
UART0ISRopen:
        CFI Block cfiBlock333 Using cfiCommon0
        CFI Function UART0ISRopen
// 1015 {
        ; Saved register size: 0
        ; Auto size: 0
// 1016   U0UCR|=0x80;
        ORL     0xc4,#0x80
// 1017   IEN0 |= 0x04;//开串口接收中断 'URX0IE = 1',
        SETB    0xa8.2
// 1018   INT_GLOBAL_ENABLE(TRUE);
        SETB    0xa8.7
// 1019 }
        LJMP    ?BRET
        CFI EndBlock cfiBlock333
        REQUIRE _A_IEN0
        REQUIRE U0UCR
// 1020 

        RSEG BANKED_CODE:CODE:NOROOT(0)
// 1021 void initUART(void)
initUART:
        CFI Block cfiBlock334 Using cfiCommon0
        CFI Function initUART
// 1022 {
        FUNCALL initUART, UART_SETUP
        LOCFRAME ISTACK, 2, STACK
        LOCFRAME PSTACK, 0, STACK
        LOCFRAME XSTACK, 0, STACK
        LOCFRAME IOVERLAY, 0, STATIC
        LOCFRAME DOVERLAY, 0, STATIC
        ARGFRAME ISTACK, 2, STACK
        ARGFRAME PSTACK, 0, STACK
        ARGFRAME XSTACK, 0, STACK
        ARGFRAME IOVERLAY, 0, STATIC
        ARGFRAME DOVERLAY, 0, STATIC
        FUNCALL initUART, UART0ISRopen
        LOCFRAME ISTACK, 2, STACK
        LOCFRAME PSTACK, 0, STACK
        LOCFRAME XSTACK, 0, STACK
        LOCFRAME IOVERLAY, 0, STATIC
        LOCFRAME DOVERLAY, 0, STATIC
        ARGFRAME ISTACK, 2, STACK
        ARGFRAME PSTACK, 0, STACK
        ARGFRAME XSTACK, 0, STACK
        ARGFRAME IOVERLAY, 0, STATIC
        ARGFRAME DOVERLAY, 0, STATIC
        PUSH    DPL
        CFI DPL0 Frame(CFA_SP, 4)
        CFI CFA_SP SP+-4
        PUSH    DPH
        CFI DPH0 Frame(CFA_SP, 5)
        CFI CFA_SP SP+-5
        ; Saved register size: 2
        ; Auto size: 0
// 1023    // Setup for UART0
// 1024   // IO_PER_LOC_UART0_AT_PORT0_PIN2345();
// 1025    IO_PER_LOC_USART0_AT_PORT0_PIN2345();
        ANL     0xf1,#0xfe
// 1026    //SET_MAIN_CLOCK_SOURCE(CRYSTAL);
// 1027    UART_SETUP(0, 9600, HIGH_STOP);
        ; Setup parameters for call to function UART_SETUP
        MOV     R4,#0x2
        MOV     R2,#-0x80
        MOV     R3,#0x25
        MOV     R1,#0x0
        LCALL   ??UART_SETUP?relay
// 1028    U0CSR = 0xC5;//允许接收
        MOV     0x86,#-0x3b
// 1029    UTX0IF=1;
        SETB    0xe8.1
// 1030    URX0IF=1;
        SETB    0x88.3
// 1031    
// 1032    UART0ISRopen();
        ; Setup parameters for call to function UART0ISRopen
        LCALL   ??UART0ISRopen?relay
// 1033 }
        LJMP    ?Subroutine39 & 0xFFFF
        CFI EndBlock cfiBlock334
        REQUIRE U0CSR
        REQUIRE _A_TCON
        REQUIRE _A_IRCON2
        REQUIRE PERCFG
// 1034 
// 1035 #pragma vector=URX0_VECTOR                //URX0_VECTOR

        RSEG NEAR_CODE:CODE:NOROOT(0)
// 1036 __interrupt void URX0_IRQ(void)
URX0_IRQ:
        CFI Block cfiBlock335 Using cfiCommon1
        CFI Function URX0_IRQ
// 1037 {
        ; Saved register size: 1
        ; Auto size: 0
// 1038 }
        RETI
        CFI EndBlock cfiBlock335
// 1039 
// 1040 //-----------------------------------------------------------------------------
// 1041 // sned str or char via uart0
// 1042 //-----------------------------------------------------------------------------
// 1043 

        RSEG BANKED_CODE:CODE:NOROOT(0)
// 1044 int uart0_putc(int c)
uart0_putc:
        CFI Block cfiBlock336 Using cfiCommon0
        CFI Function uart0_putc
// 1045 {
        ; Saved register size: 1
        ; Auto size: 0
// 1046    if (c == '\n')  {
        MOV     A,#0xa
        XRL     A,R2
        JNZ     ??uart0_putc_0
        MOV     A,R3
??uart0_putc_0:
        JNZ     ??uart0_putc_1
// 1047       while (!UTX0IF);
??uart0_putc_2:
        MOV     C,0xe8.1
        JNC     ??uart0_putc_2
// 1048       UTX0IF = 0;
        CLR     0xe8.1
// 1049       U0DBUF = 0x0d;       //output CR 
        MOV     0xc1,#0xd
// 1050    }
// 1051 
// 1052    while (!UTX0IF);
??uart0_putc_1:
        MOV     C,0xe8.1
        JNC     ??uart0_putc_1
// 1053    UTX0IF = 0;
        CLR     0xe8.1
// 1054    return (U0DBUF = c);
        MOV     0xc1,R2
        MOV     R3,#0x0
        LJMP    ?BRET
        CFI EndBlock cfiBlock336
        REQUIRE U0DBUF
        REQUIRE _A_IRCON2
// 1055 }
// 1056 
// 1057 

        RSEG BANKED_CODE:CODE:NOROOT(0)
// 1058 void uart0_puts(char* str,int len)
uart0_puts:
        CFI Block cfiBlock337 Using cfiCommon0
        CFI Function uart0_puts
// 1059 {
        FUNCALL uart0_puts, uart0_putc
        LOCFRAME ISTACK, 0, STACK
        LOCFRAME PSTACK, 0, STACK
        LOCFRAME XSTACK, 13, STACK
        LOCFRAME IOVERLAY, 0, STATIC
        LOCFRAME DOVERLAY, 0, STATIC
        ARGFRAME ISTACK, 0, STACK
        ARGFRAME PSTACK, 0, STACK
        ARGFRAME XSTACK, 13, STACK
        ARGFRAME IOVERLAY, 0, STATIC
        ARGFRAME DOVERLAY, 0, STATIC
        MOV     A,#-0xd
        LCALL   ?BANKED_ENTER_XDATA
        CFI DPH0 load(1, XDATA, add(CFA_XSP16, literal(-1)))
        CFI DPL0 load(1, XDATA, add(CFA_XSP16, literal(-2)))
        CFI ?BRET_EXT load(1, XDATA, add(CFA_XSP16, literal(-3)))
        CFI ?RET_HIGH load(1, XDATA, add(CFA_XSP16, literal(-4)))
        CFI ?RET_LOW load(1, XDATA, add(CFA_XSP16, literal(-5)))
        CFI R7 load(1, XDATA, add(CFA_XSP16, literal(-6)))
        CFI V4 load(1, XDATA, add(CFA_XSP16, literal(-7)))
        CFI V3 load(1, XDATA, add(CFA_XSP16, literal(-8)))
        CFI V2 load(1, XDATA, add(CFA_XSP16, literal(-9)))
        CFI V1 load(1, XDATA, add(CFA_XSP16, literal(-10)))
        CFI V0 load(1, XDATA, add(CFA_XSP16, literal(-11)))
        CFI VB load(1, XDATA, add(CFA_XSP16, literal(-12)))
        CFI R6 load(1, XDATA, add(CFA_XSP16, literal(-13)))
        CFI CFA_SP SP+0
        CFI CFA_XSP16 add(XSP16, 13)
        ; Saved register size: 13
        ; Auto size: 0
        MOV     ?V0 + 2,R2
        MOV     ?V0 + 3,R3
        MOV     ?V0 + 0,R4
        MOV     ?V0 + 1,R5
// 1060     int i = 0;
// 1061     if(str == NULL)
        MOV     A,R2
        JNZ     ??uart0_puts_0
        MOV     A,R3
??uart0_puts_0:
        JZ      ??uart0_puts_1
// 1062         return ;
// 1063     for(i = 0; i < len; i++)
        MOV     R6,#0x0
        MOV     R7,#0x0
        SJMP    ??CrossCallReturnLabel_48
// 1064     {
// 1065         uart0_putc(*(str+i));
??uart0_puts_2:
        ; Setup parameters for call to function uart0_putc
        MOV     A,?V0 + 2
        ADD     A,R6
        MOV     DPL,A
        MOV     A,?V0 + 3
        ADDC    A,R7
        MOV     DPH,A
        MOVX    A,@DPTR
        MOV     R2,A
        MOV     R3,#0x0
        LCALL   ??uart0_putc?relay
// 1066     }
        LCALL   ?Subroutine23 & 0xFFFF
??CrossCallReturnLabel_48:
        CLR     C
        MOV     A,R6
        SUBB    A,?V0 + 0
        MOV     A,R7
        SUBB    A,?V0 + 1
        MOV     C,0xD0 /* PSW */.2
        XRL     A,PSW
        RLC     A
        JC      ??uart0_puts_2
??uart0_puts_1:
        LJMP    ?Subroutine44 & 0xFFFF
        CFI EndBlock cfiBlock337
// 1067 }

        COMMON INTVEC:CODE:ROOT(0)
        ORG 19
`??URX0_IRQ??INTVEC 19`:
        LJMP       (URX0_IRQ)

        RSEG XDATA_ID:CODE:NOROOT(0)
        DATA
`?<Initializer for <Constant "GenericApp">>`:
        DB "GenericApp"

        RSEG XDATA_ID:CODE:NOROOT(0)
        DATA
`?<Initializer for <Constant "]]\\r\\n">>`:
        DB "]]\015\012"

        RSEG XDATA_ID:CODE:NOROOT(0)
        DATA
`?<Initializer for <Constant "hal sw1 pressed!\\`:
        DB "hal sw1 pressed!\015\012"

        RSEG XDATA_ID:CODE:NOROOT(0)
        DATA
`?<Initializer for <Constant "hal sw2 pressed!\\`:
        DB "hal sw2 pressed!\015\012"

        RSEG XDATA_ID:CODE:NOROOT(0)
        DATA
`?<Initializer for <Constant "1111222233334444\\`:
        DB "1111222233334444\012"

        RSEG XDATA_ID:CODE:NOROOT(0)
        DATA
`?<Initializer for <Constant "9999222233\\r\\n">>`:
        DB "9999222233\015\012"

        RSEG XDATA_ID:CODE:NOROOT(0)
        DATA
`?<Initializer for <Constant "hal sw4 pressed!\\`:
        DB "hal sw4 pressed!\015\012"

        RSEG XDATA_ID:CODE:NOROOT(0)
        DATA
`?<Initializer for <Constant "Hello World">>`:
        DB "Hello World"

        RSEG XDATA_ID:CODE:NOROOT(0)
        DATA
`?<Initializer for <Constant "#%s:%s:%s:%s:%s#\\`:
        DB "#%s:%s:%s:%s:%s#\012"

        RSEG XDATA_ID:CODE:NOROOT(0)
        DATA
`?<Initializer for <Constant "]]\\n">>`:
        DB "]]\012"

        RSEG XDATA_ID:CODE:NOROOT(0)
        DATA
`?<Initializer for <Constant "#%s#\\n\\000">>`:
        DB 23H, 25H, 73H, 23H, 0AH, 0, 0

        RSEG XDATA_ID:CODE:NOROOT(0)
        DATA
`?<Initializer for GenericApp_ClusterList>`:
        DW 1

        RSEG XDATA_ID:CODE:NOROOT(0)
        DATA
`?<Initializer for GenericApp_SimpleDesc>`:
        DB 10
        DW 3844, 1
        DB 0, 1
        DW GenericApp_ClusterList
        DB 1
        DW GenericApp_ClusterList

        RSEG XDATA_ID:CODE:NOROOT(0)
        DATA
`?<Initializer for __Constant_9600>`:
        DD 38400

        RSEG XDATA_ID:CODE:NOROOT(0)
        DATA
`?<Initializer for __Constant_e100>`:
        DD 57600

        RSEG XDATA_ID:CODE:NOROOT(0)
        DATA
`?<Initializer for __Constant_12c00>`:
        DD 76800

        RSEG XDATA_ID:CODE:NOROOT(0)
        DATA
`?<Initializer for __Constant_1c200>`:
        DD 115200

        RSEG XDATA_ID:CODE:NOROOT(0)
        DATA
`?<Initializer for __Constant_25800>`:
        DD 153600

        RSEG XDATA_ID:CODE:NOROOT(0)
        DATA
`?<Initializer for __Constant_38400>`:
        DD 230400

        RSEG XDATA_ID:CODE:NOROOT(0)
        DATA
`?<Initializer for __Constant_4b000>`:
        DD 307200

        RSEG BANK_RELAYS:CODE:REORDER:NOROOT(0)
??GenericApp_Init?relay:
        LCALL   ?BDISPATCH
        DATA
        DC24    GenericApp_Init

        RSEG BANK_RELAYS:CODE:REORDER:NOROOT(0)
??GenericApp_ProcessEvent?relay:
        LCALL   ?BDISPATCH
        DATA
        DC24    GenericApp_ProcessEvent

        RSEG BANK_RELAYS:CODE:REORDER:NOROOT(0)
??GenericApp_ProcessZDOMsgs?relay:
        LCALL   ?BDISPATCH
        DATA
        DC24    GenericApp_ProcessZDOMsgs

        RSEG BANK_RELAYS:CODE:REORDER:NOROOT(0)
??GenericApp_HandleKeys?relay:
        LCALL   ?BDISPATCH
        DATA
        DC24    GenericApp_HandleKeys

        RSEG BANK_RELAYS:CODE:REORDER:NOROOT(0)
??GenericApp_MessageMSGCB?relay:
        LCALL   ?BDISPATCH
        DATA
        DC24    GenericApp_MessageMSGCB

        RSEG BANK_RELAYS:CODE:REORDER:NOROOT(0)
??GenericApp_SendTheMessage?relay:
        LCALL   ?BDISPATCH
        DATA
        DC24    GenericApp_SendTheMessage

        RSEG BANK_RELAYS:CODE:REORDER:NOROOT(0)
??uart0_getString?relay:
        LCALL   ?BDISPATCH
        DATA
        DC24    uart0_getString

        RSEG BANK_RELAYS:CODE:REORDER:NOROOT(0)
??data_trans_Init?relay:
        LCALL   ?BDISPATCH
        DATA
        DC24    data_trans_Init

        RSEG BANK_RELAYS:CODE:REORDER:NOROOT(0)
??data_trans_process?relay:
        LCALL   ?BDISPATCH
        DATA
        DC24    data_trans_process

        RSEG BANK_RELAYS:CODE:REORDER:NOROOT(0)
??UART_SETUP?relay:
        LCALL   ?BDISPATCH
        DATA
        DC24    UART_SETUP

        RSEG BANK_RELAYS:CODE:REORDER:NOROOT(0)
??UART0ISRopen?relay:
        LCALL   ?BDISPATCH
        DATA
        DC24    UART0ISRopen

        RSEG BANK_RELAYS:CODE:REORDER:NOROOT(0)
??initUART?relay:
        LCALL   ?BDISPATCH
        DATA
        DC24    initUART

        RSEG BANK_RELAYS:CODE:REORDER:NOROOT(0)
??uart0_putc?relay:
        LCALL   ?BDISPATCH
        DATA
        DC24    uart0_putc

        RSEG BANK_RELAYS:CODE:REORDER:NOROOT(0)
??uart0_puts?relay:
        LCALL   ?BDISPATCH
        DATA
        DC24    uart0_puts

        END
// 
// 3 459 bytes in segment BANKED_CODE
//    84 bytes in segment BANK_RELAYS
//     3 bytes in segment INTVEC
//     1 byte  in segment NEAR_CODE
//    12 bytes in segment SFR_AN
//   187 bytes in segment XDATA_I
//   187 bytes in segment XDATA_ID
//   349 bytes in segment XDATA_Z
// 
// 3 703 bytes of CODE  memory (+ 31 bytes shared)
//     0 bytes of DATA  memory (+ 12 bytes shared)
//   508 bytes of XDATA memory (+ 28 bytes shared)
//
//Errors: none
//Warnings: 20
